---
triple:          'x86_64-apple-darwin'
binary-path:     client
relocations:
  - { offset: 0x26, size: 0x8, addend: 0x0, symName: _main, symObjAddr: 0x0, symBinAddr: 0x100001380, symSize: 0x1150 }
  - { offset: 0x3B, size: 0x8, addend: 0x0, symName: _.str, symObjAddr: 0x2FE0, symBinAddr: 0x10042E8A0, symSize: 0x0 }
  - { offset: 0x66, size: 0x8, addend: 0x0, symName: _.str.1, symObjAddr: 0x3020, symBinAddr: 0x10042E8E0, symSize: 0x0 }
  - { offset: 0x83, size: 0x8, addend: 0x0, symName: _.str.2, symObjAddr: 0x3060, symBinAddr: 0x10042E920, symSize: 0x0 }
  - { offset: 0xA1, size: 0x8, addend: 0x0, symName: _.str.3, symObjAddr: 0x30C0, symBinAddr: 0x10042E980, symSize: 0x0 }
  - { offset: 0xBF, size: 0x8, addend: 0x0, symName: _.str.4, symObjAddr: 0x3100, symBinAddr: 0x10042E9C0, symSize: 0x0 }
  - { offset: 0xDD, size: 0x8, addend: 0x0, symName: _.str.5, symObjAddr: 0x3160, symBinAddr: 0x10042EA20, symSize: 0x0 }
  - { offset: 0xFB, size: 0x8, addend: 0x0, symName: _.str.6, symObjAddr: 0x3180, symBinAddr: 0x10042EA40, symSize: 0x0 }
  - { offset: 0x119, size: 0x8, addend: 0x0, symName: _.str.7, symObjAddr: 0x31A0, symBinAddr: 0x10042EA60, symSize: 0x0 }
  - { offset: 0x137, size: 0x8, addend: 0x0, symName: _.str.8, symObjAddr: 0x31E0, symBinAddr: 0x10042EAA0, symSize: 0x0 }
  - { offset: 0x155, size: 0x8, addend: 0x0, symName: _.str.9, symObjAddr: 0x3220, symBinAddr: 0x10042EAE0, symSize: 0x0 }
  - { offset: 0x173, size: 0x8, addend: 0x0, symName: _.str.10, symObjAddr: 0x3280, symBinAddr: 0x10042EB40, symSize: 0x0 }
  - { offset: 0x191, size: 0x8, addend: 0x0, symName: _.str.11, symObjAddr: 0x32E0, symBinAddr: 0x10042EBA0, symSize: 0x0 }
  - { offset: 0x1AE, size: 0x8, addend: 0x0, symName: _.str.12, symObjAddr: 0x3320, symBinAddr: 0x10042EBE0, symSize: 0x0 }
  - { offset: 0x1C3, size: 0x8, addend: 0x0, symName: _recv_cb, symObjAddr: 0x11C0, symBinAddr: 0x100002540, symSize: 0x1190 }
  - { offset: 0x1E4, size: 0x8, addend: 0x0, symName: _recv_cb.req_sent, symObjAddr: 0x7980, symBinAddr: 0x10049DD40, symSize: 0x0 }
  - { offset: 0x1F9, size: 0x8, addend: 0x0, symName: _recv_cb.buf, symObjAddr: 0x79A0, symBinAddr: 0x10049DD60, symSize: 0x0 }
  - { offset: 0x20E, size: 0x8, addend: 0x0, symName: _recv_cb.r, symObjAddr: 0x34A0, symBinAddr: 0x10042ED60, symSize: 0x0 }
  - { offset: 0x398, size: 0x8, addend: 0x0, symName: _.str.13, symObjAddr: 0x3340, symBinAddr: 0x10042EC00, symSize: 0x0 }
  - { offset: 0x3B5, size: 0x8, addend: 0x0, symName: _.str.14, symObjAddr: 0x3380, symBinAddr: 0x10042EC40, symSize: 0x0 }
  - { offset: 0x3D2, size: 0x8, addend: 0x0, symName: _.str.15, symObjAddr: 0x33A0, symBinAddr: 0x10042EC60, symSize: 0x0 }
  - { offset: 0x3EF, size: 0x8, addend: 0x0, symName: _.str.16, symObjAddr: 0x33E0, symBinAddr: 0x10042ECA0, symSize: 0x0 }
  - { offset: 0x40C, size: 0x8, addend: 0x0, symName: _.str.17, symObjAddr: 0x3400, symBinAddr: 0x10042ECC0, symSize: 0x0 }
  - { offset: 0x41D, size: 0x8, addend: 0x0, symName: _.str.18, symObjAddr: 0x3420, symBinAddr: 0x10042ECE0, symSize: 0x0 }
  - { offset: 0x43A, size: 0x8, addend: 0x0, symName: _.str.19, symObjAddr: 0x3460, symBinAddr: 0x10042ED20, symSize: 0x0 }
  - { offset: 0x468, size: 0x8, addend: 0x0, symName: _.str.20, symObjAddr: 0x34E0, symBinAddr: 0x10042EDA0, symSize: 0x0 }
  - { offset: 0x479, size: 0x8, addend: 0x0, symName: _.str.21, symObjAddr: 0x3540, symBinAddr: 0x10042EE00, symSize: 0x0 }
  - { offset: 0x48A, size: 0x8, addend: 0x0, symName: _.str.22, symObjAddr: 0x3580, symBinAddr: 0x10042EE40, symSize: 0x0 }
  - { offset: 0x49B, size: 0x8, addend: 0x0, symName: _.str.23, symObjAddr: 0x35C0, symBinAddr: 0x10042EE80, symSize: 0x0 }
  - { offset: 0x4B8, size: 0x8, addend: 0x0, symName: _.str.24, symObjAddr: 0x35E0, symBinAddr: 0x10042EEA0, symSize: 0x0 }
  - { offset: 0x4C9, size: 0x8, addend: 0x0, symName: _.str.25, symObjAddr: 0x3620, symBinAddr: 0x10042EEE0, symSize: 0x0 }
  - { offset: 0x4E6, size: 0x8, addend: 0x0, symName: _.str.26, symObjAddr: 0x3640, symBinAddr: 0x10042EF00, symSize: 0x0 }
  - { offset: 0x4FB, size: 0x8, addend: 0x0, symName: _flush_egress, symObjAddr: 0x2960, symBinAddr: 0x100003CE0, symSize: 0x600 }
  - { offset: 0x51C, size: 0x8, addend: 0x0, symName: _flush_egress.out, symObjAddr: 0x1B980, symBinAddr: 0x1004B1D40, symSize: 0x0 }
  - { offset: 0x5A6, size: 0x8, addend: 0x0, symName: _.str.27, symObjAddr: 0x36A0, symBinAddr: 0x10042EF60, symSize: 0x0 }
  - { offset: 0x5B7, size: 0x8, addend: 0x0, symName: _.str.28, symObjAddr: 0x36C0, symBinAddr: 0x10042EF80, symSize: 0x0 }
  - { offset: 0x5C8, size: 0x8, addend: 0x0, symName: _.str.29, symObjAddr: 0x3700, symBinAddr: 0x10042EFC0, symSize: 0x0 }
  - { offset: 0x5D9, size: 0x8, addend: 0x0, symName: _.str.30, symObjAddr: 0x3720, symBinAddr: 0x10042EFE0, symSize: 0x0 }
  - { offset: 0x64C, size: 0x8, addend: 0x0, symName: _main, symObjAddr: 0x0, symBinAddr: 0x100001380, symSize: 0x1150 }
  - { offset: 0x75D, size: 0x8, addend: 0x0, symName: _debug_log, symObjAddr: 0x1150, symBinAddr: 0x1000024D0, symSize: 0x70 }
  - { offset: 0x78F, size: 0x8, addend: 0x0, symName: _timeout_cb, symObjAddr: 0x2350, symBinAddr: 0x1000036D0, symSize: 0x610 }
  - { offset: 0x814, size: 0x8, addend: 0x0, symName: _ev_loop, symObjAddr: 0x2F60, symBinAddr: 0x1000042E0, symSize: 0x30 }
  - { offset: 0xED3, size: 0x8, addend: 0x0, symName: '__ZN109_$LT$core..iter..adapters..rev..Rev$LT$I$GT$$u20$as$u20$core..iter..traits..exact_size..ExactSizeIterator$GT$3len17h2df31327e24892faE', symObjAddr: 0x0, symBinAddr: 0x100004350, symSize: 0x20 }
  - { offset: 0xEF9, size: 0x8, addend: 0x0, symName: '__ZN109_$LT$core..iter..adapters..rev..Rev$LT$I$GT$$u20$as$u20$core..iter..traits..exact_size..ExactSizeIterator$GT$3len17h2df31327e24892faE', symObjAddr: 0x0, symBinAddr: 0x100004350, symSize: 0x20 }
  - { offset: 0xF34, size: 0x8, addend: 0x0, symName: '__ZN98_$LT$core..iter..adapters..rev..Rev$LT$I$GT$$u20$as$u20$core..iter..traits..iterator..Iterator$GT$4next17hfe8ff87fde4f79bbE', symObjAddr: 0x50, symBinAddr: 0x1000043A0, symSize: 0x22 }
  - { offset: 0x1005, size: 0x8, addend: 0x0, symName: '__ZN63_$LT$I$u20$as$u20$core..iter..traits..collect..IntoIterator$GT$9into_iter17ha6a6813af7c9c81dE', symObjAddr: 0x20, symBinAddr: 0x100004370, symSize: 0x30 }
  - { offset: 0x1810, size: 0x8, addend: 0x0, symName: __ZN6quiche8recovery11gcongestion8recovery10SentStatus3ack17h90fbf77a7fa4b257E, symObjAddr: 0x0, symBinAddr: 0x1000043D0, symSize: 0x40 }
  - { offset: 0x2404, size: 0x8, addend: 0x0, symName: '__ZN100_$LT$quiche..recovery..gcongestion..recovery..GRecovery$u20$as$u20$quiche..recovery..RecoveryOps$GT$10lost_count17h413bc945f50e5500E', symObjAddr: 0x22B0, symBinAddr: 0x100006680, symSize: 0x20 }
  - { offset: 0x2432, size: 0x8, addend: 0x0, symName: '__ZN100_$LT$quiche..recovery..gcongestion..recovery..GRecovery$u20$as$u20$quiche..recovery..RecoveryOps$GT$10bytes_lost17h04b7a167328165d5E', symObjAddr: 0x22D0, symBinAddr: 0x1000066A0, symSize: 0x20 }
  - { offset: 0x2460, size: 0x8, addend: 0x0, symName: '__ZN100_$LT$quiche..recovery..gcongestion..recovery..GRecovery$u20$as$u20$quiche..recovery..RecoveryOps$GT$17should_elicit_ack17h490d98fa982f5541E', symObjAddr: 0x22F0, symBinAddr: 0x1000066C0, symSize: 0x60 }
  - { offset: 0x249D, size: 0x8, addend: 0x0, symName: '__ZN100_$LT$quiche..recovery..gcongestion..recovery..GRecovery$u20$as$u20$quiche..recovery..RecoveryOps$GT$16get_acked_frames17h8b081505cd416ae3E', symObjAddr: 0x2350, symBinAddr: 0x100006720, symSize: 0x50 }
  - { offset: 0x24DA, size: 0x8, addend: 0x0, symName: '__ZN100_$LT$quiche..recovery..gcongestion..recovery..GRecovery$u20$as$u20$quiche..recovery..RecoveryOps$GT$15get_lost_frames17h1444719f4a74a3f5E', symObjAddr: 0x23A0, symBinAddr: 0x100006770, symSize: 0x50 }
  - { offset: 0x2517, size: 0x8, addend: 0x0, symName: '__ZN100_$LT$quiche..recovery..gcongestion..recovery..GRecovery$u20$as$u20$quiche..recovery..RecoveryOps$GT$26get_largest_acked_on_epoch17hb313f89799c15803E', symObjAddr: 0x23F0, symBinAddr: 0x1000067C0, symSize: 0x40 }
  - { offset: 0x2554, size: 0x8, addend: 0x0, symName: '__ZN100_$LT$quiche..recovery..gcongestion..recovery..GRecovery$u20$as$u20$quiche..recovery..RecoveryOps$GT$15has_lost_frames17hc7b128a0764f019eE', symObjAddr: 0x2430, symBinAddr: 0x100006800, symSize: 0x40 }
  - { offset: 0x2591, size: 0x8, addend: 0x0, symName: '__ZN100_$LT$quiche..recovery..gcongestion..recovery..GRecovery$u20$as$u20$quiche..recovery..RecoveryOps$GT$11loss_probes17h327396d7b915c2e3E', symObjAddr: 0x2470, symBinAddr: 0x100006840, symSize: 0x30 }
  - { offset: 0x25CE, size: 0x8, addend: 0x0, symName: '__ZN100_$LT$quiche..recovery..gcongestion..recovery..GRecovery$u20$as$u20$quiche..recovery..RecoveryOps$GT$9ping_sent17hc18e29dc79f83e82E', symObjAddr: 0x24A0, symBinAddr: 0x100006870, symSize: 0x80 }
  - { offset: 0x262D, size: 0x8, addend: 0x0, symName: '__ZN100_$LT$quiche..recovery..gcongestion..recovery..GRecovery$u20$as$u20$quiche..recovery..RecoveryOps$GT$14on_packet_sent17h6ae5ceec85855d3eE', symObjAddr: 0x2520, symBinAddr: 0x1000068F0, symSize: 0x780 }
  - { offset: 0x27DA, size: 0x8, addend: 0x0, symName: '__ZN100_$LT$quiche..recovery..gcongestion..recovery..GRecovery$u20$as$u20$quiche..recovery..RecoveryOps$GT$20get_packet_send_time17h96a415d0e0cb5fa0E', symObjAddr: 0x2CA0, symBinAddr: 0x100007070, symSize: 0x60 }
  - { offset: 0x2817, size: 0x8, addend: 0x0, symName: '__ZN100_$LT$quiche..recovery..gcongestion..recovery..GRecovery$u20$as$u20$quiche..recovery..RecoveryOps$GT$15on_ack_received17h23ec7bb10121333dE', symObjAddr: 0x2D00, symBinAddr: 0x1000070D0, symSize: 0x920 }
  - { offset: 0x2A61, size: 0x8, addend: 0x0, symName: '__ZN100_$LT$quiche..recovery..gcongestion..recovery..GRecovery$u20$as$u20$quiche..recovery..RecoveryOps$GT$25on_loss_detection_timeout17hd422ebf35b8e4748E', symObjAddr: 0x3620, symBinAddr: 0x1000079F0, symSize: 0x810 }
  - { offset: 0x2C5D, size: 0x8, addend: 0x0, symName: '__ZN100_$LT$quiche..recovery..gcongestion..recovery..GRecovery$u20$as$u20$quiche..recovery..RecoveryOps$GT$26on_pkt_num_space_discarded17h1ec2b4f68775e67aE', symObjAddr: 0x3E30, symBinAddr: 0x100008200, symSize: 0xD0 }
  - { offset: 0x2CD2, size: 0x8, addend: 0x0, symName: '__ZN100_$LT$quiche..recovery..gcongestion..recovery..GRecovery$u20$as$u20$quiche..recovery..RecoveryOps$GT$14on_path_change17h4f4b1c84c8ac7c17E', symObjAddr: 0x3F00, symBinAddr: 0x1000082D0, symSize: 0x50 }
  - { offset: 0x2D2D, size: 0x8, addend: 0x0, symName: '__ZN100_$LT$quiche..recovery..gcongestion..recovery..GRecovery$u20$as$u20$quiche..recovery..RecoveryOps$GT$20loss_detection_timer17he2423063befedbbeE', symObjAddr: 0x3F50, symBinAddr: 0x100008320, symSize: 0x20 }
  - { offset: 0x2D5B, size: 0x8, addend: 0x0, symName: '__ZN100_$LT$quiche..recovery..gcongestion..recovery..GRecovery$u20$as$u20$quiche..recovery..RecoveryOps$GT$4cwnd17h1f3015cb3412f53fE', symObjAddr: 0x3F70, symBinAddr: 0x100008340, symSize: 0x20 }
  - { offset: 0x2D89, size: 0x8, addend: 0x0, symName: '__ZN100_$LT$quiche..recovery..gcongestion..recovery..GRecovery$u20$as$u20$quiche..recovery..RecoveryOps$GT$14cwnd_available17hf03b5e80a82768c8E', symObjAddr: 0x3F90, symBinAddr: 0x100008360, symSize: 0x90 }
  - { offset: 0x2DDD, size: 0x8, addend: 0x0, symName: '__ZN100_$LT$quiche..recovery..gcongestion..recovery..GRecovery$u20$as$u20$quiche..recovery..RecoveryOps$GT$3rtt17hbeeb7fc84b490257E', symObjAddr: 0x4020, symBinAddr: 0x1000083F0, symSize: 0x20 }
  - { offset: 0x2E0B, size: 0x8, addend: 0x0, symName: '__ZN100_$LT$quiche..recovery..gcongestion..recovery..GRecovery$u20$as$u20$quiche..recovery..RecoveryOps$GT$7min_rtt17hac682235a1c12b79E', symObjAddr: 0x4040, symBinAddr: 0x100008410, symSize: 0x20 }
  - { offset: 0x2E39, size: 0x8, addend: 0x0, symName: '__ZN100_$LT$quiche..recovery..gcongestion..recovery..GRecovery$u20$as$u20$quiche..recovery..RecoveryOps$GT$7max_rtt17hedc791a4a0cda6daE', symObjAddr: 0x4060, symBinAddr: 0x100008430, symSize: 0x20 }
  - { offset: 0x2E67, size: 0x8, addend: 0x0, symName: '__ZN100_$LT$quiche..recovery..gcongestion..recovery..GRecovery$u20$as$u20$quiche..recovery..RecoveryOps$GT$6rttvar17hb1598d604a8e8c3eE', symObjAddr: 0x4080, symBinAddr: 0x100008450, symSize: 0x20 }
  - { offset: 0x2E95, size: 0x8, addend: 0x0, symName: '__ZN100_$LT$quiche..recovery..gcongestion..recovery..GRecovery$u20$as$u20$quiche..recovery..RecoveryOps$GT$3pto17h572751912562bb17E', symObjAddr: 0x40A0, symBinAddr: 0x100008470, symSize: 0x70 }
  - { offset: 0x2EE1, size: 0x8, addend: 0x0, symName: '__ZN100_$LT$quiche..recovery..gcongestion..recovery..GRecovery$u20$as$u20$quiche..recovery..RecoveryOps$GT$13delivery_rate17hf466d2c03f08b132E', symObjAddr: 0x4110, symBinAddr: 0x1000084E0, symSize: 0x30 }
  - { offset: 0x2F0F, size: 0x8, addend: 0x0, symName: '__ZN100_$LT$quiche..recovery..gcongestion..recovery..GRecovery$u20$as$u20$quiche..recovery..RecoveryOps$GT$13max_bandwidth17hc68de38611814793E', symObjAddr: 0x4140, symBinAddr: 0x100008510, symSize: 0x40 }
  - { offset: 0x2F3D, size: 0x8, addend: 0x0, symName: '__ZN100_$LT$quiche..recovery..gcongestion..recovery..GRecovery$u20$as$u20$quiche..recovery..RecoveryOps$GT$12startup_exit17h890b78fb7381d6cbE', symObjAddr: 0x4180, symBinAddr: 0x100008550, symSize: 0x40 }
  - { offset: 0x2F6B, size: 0x8, addend: 0x0, symName: '__ZN100_$LT$quiche..recovery..gcongestion..recovery..GRecovery$u20$as$u20$quiche..recovery..RecoveryOps$GT$17max_datagram_size17ha0165a8027986891E', symObjAddr: 0x41C0, symBinAddr: 0x100008590, symSize: 0x20 }
  - { offset: 0x2F99, size: 0x8, addend: 0x0, symName: '__ZN100_$LT$quiche..recovery..gcongestion..recovery..GRecovery$u20$as$u20$quiche..recovery..RecoveryOps$GT$30pmtud_update_max_datagram_size17h6bdce50c82d603efE', symObjAddr: 0x41E0, symBinAddr: 0x1000085B0, symSize: 0x40 }
  - { offset: 0x2FD2, size: 0x8, addend: 0x0, symName: '__ZN100_$LT$quiche..recovery..gcongestion..recovery..GRecovery$u20$as$u20$quiche..recovery..RecoveryOps$GT$24update_max_datagram_size17h747d67fc20f2bb1dE', symObjAddr: 0x4220, symBinAddr: 0x1000085F0, symSize: 0x40 }
  - { offset: 0x300B, size: 0x8, addend: 0x0, symName: '__ZN100_$LT$quiche..recovery..gcongestion..recovery..GRecovery$u20$as$u20$quiche..recovery..RecoveryOps$GT$14on_app_limited17h2ca962e8b914aea6E', symObjAddr: 0x4260, symBinAddr: 0x100008630, symSize: 0x40 }
  - { offset: 0x3035, size: 0x8, addend: 0x0, symName: '__ZN100_$LT$quiche..recovery..gcongestion..recovery..GRecovery$u20$as$u20$quiche..recovery..RecoveryOps$GT$24bytes_in_flight_duration17h8d9e93000d0746afE', symObjAddr: 0x42A0, symBinAddr: 0x100008670, symSize: 0x20 }
  - { offset: 0x3063, size: 0x8, addend: 0x0, symName: '__ZN100_$LT$quiche..recovery..gcongestion..recovery..GRecovery$u20$as$u20$quiche..recovery..RecoveryOps$GT$18update_app_limited17h029434bd82597705E', symObjAddr: 0x42C0, symBinAddr: 0x100008690, symSize: 0x20 }
  - { offset: 0x309C, size: 0x8, addend: 0x0, symName: '__ZN100_$LT$quiche..recovery..gcongestion..recovery..GRecovery$u20$as$u20$quiche..recovery..RecoveryOps$GT$32delivery_rate_update_app_limited17h3f64e31393716813E', symObjAddr: 0x42E0, symBinAddr: 0x1000086B0, symSize: 0x20 }
  - { offset: 0x30D5, size: 0x8, addend: 0x0, symName: '__ZN100_$LT$quiche..recovery..gcongestion..recovery..GRecovery$u20$as$u20$quiche..recovery..RecoveryOps$GT$20update_max_ack_delay17h11531d4010dbb0a5E', symObjAddr: 0x4300, symBinAddr: 0x1000086D0, symSize: 0x20 }
  - { offset: 0x310E, size: 0x8, addend: 0x0, symName: '__ZN100_$LT$quiche..recovery..gcongestion..recovery..GRecovery$u20$as$u20$quiche..recovery..RecoveryOps$GT$21get_next_release_time17h98f959b389ba2371E', symObjAddr: 0x4320, symBinAddr: 0x1000086F0, symSize: 0x30 }
  - { offset: 0x313C, size: 0x8, addend: 0x0, symName: '__ZN100_$LT$quiche..recovery..gcongestion..recovery..GRecovery$u20$as$u20$quiche..recovery..RecoveryOps$GT$19gcongestion_enabled17ha92334eac57c232bE', symObjAddr: 0x4350, symBinAddr: 0x100008720, symSize: 0x10 }
  - { offset: 0x316A, size: 0x8, addend: 0x0, symName: '__ZN100_$LT$quiche..recovery..gcongestion..recovery..GRecovery$u20$as$u20$quiche..recovery..RecoveryOps$GT$12send_quantum17h43a4a8313443c036E', symObjAddr: 0x4360, symBinAddr: 0x100008730, symSize: 0x100 }
  - { offset: 0x31DE, size: 0x8, addend: 0x0, symName: '__ZN87_$LT$quiche..recovery..gcongestion..recovery..GRecovery$u20$as$u20$core..fmt..Debug$GT$3fmt17h585783371fb1a173E', symObjAddr: 0x4460, symBinAddr: 0x100008830, symSize: 0x280 }
  - { offset: 0x3314, size: 0x8, addend: 0x0, symName: '__ZN97_$LT$quiche..recovery..gcongestion..recovery..RecoveryEpoch$u20$as$u20$core..default..Default$GT$7default17h2b78f039e619d954E', symObjAddr: 0x46E0, symBinAddr: 0x100008AB0, symSize: 0x1AC }
  - { offset: 0x6593, size: 0x8, addend: 0x0, symName: __ZN6quiche8recovery11gcongestion8recovery10SentStatus3ack17h90fbf77a7fa4b257E, symObjAddr: 0x0, symBinAddr: 0x1000043D0, symSize: 0x40 }
  - { offset: 0x65B5, size: 0x8, addend: 0x0, symName: __ZN6quiche8recovery11gcongestion8recovery10SentStatus4lose17h8094a3316fe71df4E, symObjAddr: 0x40, symBinAddr: 0x100004410, symSize: 0x90 }
  - { offset: 0x6644, size: 0x8, addend: 0x0, symName: __ZN6quiche8recovery11gcongestion8recovery13RecoveryEpoch7discard17hc21e86e4f076935dE, symObjAddr: 0xD0, symBinAddr: 0x1000044A0, symSize: 0xE0 }
  - { offset: 0x671F, size: 0x8, addend: 0x0, symName: __ZN6quiche8recovery11gcongestion8recovery13RecoveryEpoch31detect_and_remove_acked_packets17h68a19922504d3a3cE, symObjAddr: 0x1B0, symBinAddr: 0x100004580, symSize: 0x860 }
  - { offset: 0x69C7, size: 0x8, addend: 0x0, symName: __ZN6quiche8recovery11gcongestion8recovery13RecoveryEpoch30detect_and_remove_lost_packets17h261e9376234606d5E, symObjAddr: 0xA10, symBinAddr: 0x100004DE0, symSize: 0x660 }
  - { offset: 0x6BBC, size: 0x8, addend: 0x0, symName: __ZN6quiche8recovery11gcongestion8recovery13RecoveryEpoch28drain_acked_and_lost_packets17hd4bd54993da12350E, symObjAddr: 0x1070, symBinAddr: 0x100005440, symSize: 0xB0 }
  - { offset: 0x6BEC, size: 0x8, addend: 0x0, symName: __ZN6quiche8recovery11gcongestion8recovery13RecoveryEpoch13least_unacked17h904185564b83b387E, symObjAddr: 0x1120, symBinAddr: 0x1000054F0, symSize: 0x130 }
  - { offset: 0x6C5E, size: 0x8, addend: 0x0, symName: __ZN6quiche8recovery11gcongestion8recovery13LossThreshold3new17h2c838eacbfc9ac05E, symObjAddr: 0x1250, symBinAddr: 0x100005620, symSize: 0x80 }
  - { offset: 0x6CAC, size: 0x8, addend: 0x0, symName: __ZN6quiche8recovery11gcongestion8recovery13LossThreshold10pkt_thresh17haa3ae675421e5231E, symObjAddr: 0x12D0, symBinAddr: 0x1000056A0, symSize: 0x20 }
  - { offset: 0x6CCF, size: 0x8, addend: 0x0, symName: __ZN6quiche8recovery11gcongestion8recovery13LossThreshold11time_thresh17hdd09022fdaf87a66E, symObjAddr: 0x12F0, symBinAddr: 0x1000056C0, symSize: 0x10 }
  - { offset: 0x6CFF, size: 0x8, addend: 0x0, symName: __ZN6quiche8recovery11gcongestion8recovery13LossThreshold16on_spurious_loss17h983dc278e864b60bE, symObjAddr: 0x1300, symBinAddr: 0x1000056D0, symSize: 0x130 }
  - { offset: 0x6D7F, size: 0x8, addend: 0x0, symName: __ZN6quiche8recovery11gcongestion8recovery9GRecovery3new17h1a17eaa6c2949f77E, symObjAddr: 0x1430, symBinAddr: 0x100005800, symSize: 0x490 }
  - { offset: 0x6DE4, size: 0x8, addend: 0x0, symName: __ZN6quiche8recovery11gcongestion8recovery9GRecovery30detect_and_remove_lost_packets17h7cd7f613d01c3085E, symObjAddr: 0x18C0, symBinAddr: 0x100005C90, symSize: 0x300 }
  - { offset: 0x6EF4, size: 0x8, addend: 0x0, symName: __ZN6quiche8recovery11gcongestion8recovery9GRecovery19loss_time_and_space17h1b710489ce73f44aE, symObjAddr: 0x1BC0, symBinAddr: 0x100005F90, symSize: 0x1F0 }
  - { offset: 0x6F90, size: 0x8, addend: 0x0, symName: __ZN6quiche8recovery11gcongestion8recovery9GRecovery18pto_time_and_space17h313c3d59d68873c8E, symObjAddr: 0x1DB0, symBinAddr: 0x100006180, symSize: 0x3B0 }
  - { offset: 0x705A, size: 0x8, addend: 0x0, symName: __ZN6quiche8recovery11gcongestion8recovery9GRecovery24set_loss_detection_timer17h94b0cda8e339d74cE, symObjAddr: 0x2160, symBinAddr: 0x100006530, symSize: 0x150 }
  - { offset: 0x73A6, size: 0x8, addend: 0x0, symName: __ZN3std2io5Write18write_all_vectored17h57c4d114081c125bE, symObjAddr: 0x0, symBinAddr: 0x100008C60, symSize: 0x2B0 }
  - { offset: 0x7786, size: 0x8, addend: 0x0, symName: __ZN3std2io5Write18write_all_vectored17h57c4d114081c125bE, symObjAddr: 0x0, symBinAddr: 0x100008C60, symSize: 0x2B0 }
  - { offset: 0x78F4, size: 0x8, addend: 0x0, symName: __ZN3std2io5Write9write_fmt17h05d59c62ceb3c665E, symObjAddr: 0x2B0, symBinAddr: 0x100008F10, symSize: 0x170 }
  - { offset: 0x7B7D, size: 0x8, addend: 0x0, symName: '__ZN83_$LT$std..io..buffered..bufwriter..BufWriter$LT$W$GT$$u20$as$u20$std..io..Write$GT$14write_vectored17he41c443bd36ac6f6E', symObjAddr: 0xC10, symBinAddr: 0x1000095C0, symSize: 0xA40 }
  - { offset: 0x8764, size: 0x8, addend: 0x0, symName: '__ZN83_$LT$std..io..buffered..bufwriter..BufWriter$LT$W$GT$$u20$as$u20$std..io..Write$GT$14write_vectored28_$u7b$$u7b$closure$u7d$$u7d$17h358861d47ed56796E', symObjAddr: 0x1650, symBinAddr: 0x10000A000, symSize: 0x70 }
  - { offset: 0x880A, size: 0x8, addend: 0x0, symName: '__ZN83_$LT$std..io..buffered..bufwriter..BufWriter$LT$W$GT$$u20$as$u20$std..io..Write$GT$14write_vectored28_$u7b$$u7b$closure$u7d$$u7d$17h4e5aa9166f9409f9E', symObjAddr: 0x16C0, symBinAddr: 0x10000A070, symSize: 0x70 }
  - { offset: 0x8930, size: 0x8, addend: 0x0, symName: '__ZN83_$LT$std..io..buffered..bufwriter..BufWriter$LT$W$GT$$u20$as$u20$std..io..Write$GT$17is_write_vectored17h4034748f8f112f19E', symObjAddr: 0x1730, symBinAddr: 0x10000A0E0, symSize: 0x10 }
  - { offset: 0x89A8, size: 0x8, addend: 0x0, symName: '__ZN83_$LT$std..io..buffered..bufwriter..BufWriter$LT$W$GT$$u20$as$u20$std..io..Write$GT$5flush17h3b2402c9d202ac74E', symObjAddr: 0x1740, symBinAddr: 0x10000A0F0, symSize: 0x70 }
  - { offset: 0x8A6E, size: 0x8, addend: 0x0, symName: '__ZN83_$LT$std..io..buffered..bufwriter..BufWriter$LT$W$GT$$u20$as$u20$std..io..Write$GT$5write17h9b898f94e6dd536cE', symObjAddr: 0x17B0, symBinAddr: 0x10000A160, symSize: 0x80 }
  - { offset: 0x8B28, size: 0x8, addend: 0x0, symName: '__ZN83_$LT$std..io..buffered..bufwriter..BufWriter$LT$W$GT$$u20$as$u20$std..io..Write$GT$9write_all17h21835a7990269271E', symObjAddr: 0x1830, symBinAddr: 0x10000A1E0, symSize: 0x69 }
  - { offset: 0xA161, size: 0x8, addend: 0x0, symName: '__ZN3std2io8buffered9bufwriter18BufWriter$LT$W$GT$10write_cold17hd42dcf39b5a66661E', symObjAddr: 0x420, symBinAddr: 0x1003AF630, symSize: 0x170 }
  - { offset: 0xA3AA, size: 0x8, addend: 0x0, symName: '__ZN3std2io8buffered9bufwriter18BufWriter$LT$W$GT$13with_capacity17h1d14151f807e7079E', symObjAddr: 0x590, symBinAddr: 0x100009080, symSize: 0xC0 }
  - { offset: 0xA500, size: 0x8, addend: 0x0, symName: '__ZN3std2io8buffered9bufwriter18BufWriter$LT$W$GT$14write_all_cold17h848dc3a8d7e3938bE', symObjAddr: 0x650, symBinAddr: 0x1003AF7A0, symSize: 0x140 }
  - { offset: 0xA7AD, size: 0x8, addend: 0x0, symName: '__ZN3std2io8buffered9bufwriter18BufWriter$LT$W$GT$25write_to_buffer_unchecked17hc190c1ffeef724b8E', symObjAddr: 0x790, symBinAddr: 0x100009140, symSize: 0xC0 }
  - { offset: 0xA98E, size: 0x8, addend: 0x0, symName: '__ZN3std2io8buffered9bufwriter18BufWriter$LT$W$GT$3new17hab3610a9fc6e15b7E', symObjAddr: 0x850, symBinAddr: 0x100009200, symSize: 0x30 }
  - { offset: 0xAADB, size: 0x8, addend: 0x0, symName: '__ZN3std2io8buffered9bufwriter18BufWriter$LT$W$GT$9flush_buf17h628bfb0c3b7e9a51E', symObjAddr: 0x880, symBinAddr: 0x100009230, symSize: 0x390 }
  - { offset: 0xB207, size: 0x8, addend: 0x0, symName: __ZN6quiche5Error7to_wire17h5b4725e565237a56E, symObjAddr: 0x0, symBinAddr: 0x10000A250, symSize: 0x2C0 }
  - { offset: 0x104AF, size: 0x8, addend: 0x0, symName: '__ZN52_$LT$quiche..Error$u20$as$u20$core..fmt..Display$GT$3fmt17h7b58e6a85a6f1cbdE', symObjAddr: 0x440, symBinAddr: 0x10000A690, symSize: 0x60 }
  - { offset: 0x10511, size: 0x8, addend: 0x0, symName: '__ZN52_$LT$quiche..Error$u20$as$u20$core..error..Error$GT$6source17hde7b0ab0266cad6bE', symObjAddr: 0x4A0, symBinAddr: 0x10000A6F0, symSize: 0x20 }
  - { offset: 0x10545, size: 0x8, addend: 0x0, symName: '__ZN88_$LT$quiche..Error$u20$as$u20$core..convert..From$LT$octets..BufferTooShortError$GT$$GT$4from17h134490fe5adf3b9cE', symObjAddr: 0x4C0, symBinAddr: 0x10000A710, symSize: 0x20 }
  - { offset: 0x10580, size: 0x8, addend: 0x0, symName: __ZN6quiche19is_reserved_version17h9cb73c4bcd3d2b75E, symObjAddr: 0x4E0, symBinAddr: 0x10000A730, symSize: 0x20 }
  - { offset: 0x10CAE, size: 0x8, addend: 0x0, symName: __ZN6quiche6accept17hee6b76c0637ead5bE, symObjAddr: 0x12D0, symBinAddr: 0x10000B520, symSize: 0x150 }
  - { offset: 0x10D5B, size: 0x8, addend: 0x0, symName: __ZN6quiche7connect17hff858881bd2f2b81E, symObjAddr: 0x1420, symBinAddr: 0x10000B670, symSize: 0x2E0 }
  - { offset: 0x10E56, size: 0x8, addend: 0x0, symName: __ZN6quiche17negotiate_version17hd91f0bd09a6d6a22E, symObjAddr: 0x1700, symBinAddr: 0x10000B950, symSize: 0x80 }
  - { offset: 0x10EA2, size: 0x8, addend: 0x0, symName: __ZN6quiche5retry17h8e22a608eefb2d2bE, symObjAddr: 0x1780, symBinAddr: 0x10000B9D0, symSize: 0x120 }
  - { offset: 0x10F1D, size: 0x8, addend: 0x0, symName: __ZN6quiche20version_is_supported17ha5817b104f86b322E, symObjAddr: 0x18A0, symBinAddr: 0x10000BAF0, symSize: 0x20 }
  - { offset: 0x10F4B, size: 0x8, addend: 0x0, symName: __ZN6quiche15drop_pkt_on_err17h560950f1aa834a16E, symObjAddr: 0x18C0, symBinAddr: 0x10000BB10, symSize: 0x190 }
  - { offset: 0x10FF7, size: 0x8, addend: 0x0, symName: '__ZN59_$LT$quiche..AddrTupleFmt$u20$as$u20$core..fmt..Display$GT$3fmt17h9ea8dd00d4f1ce37E', symObjAddr: 0x1A50, symBinAddr: 0x10000BCA0, symSize: 0x130 }
  - { offset: 0x110A1, size: 0x8, addend: 0x0, symName: '__ZN171_$LT$quiche..UnknownTransportParameter$LT$alloc..vec..Vec$LT$u8$GT$$GT$$u20$as$u20$core..convert..From$LT$quiche..UnknownTransportParameter$LT$$RF$$u5b$u8$u5d$$GT$$GT$$GT$4from17h7e49d0a809edfb65E', symObjAddr: 0x1B80, symBinAddr: 0x10000BDD0, symSize: 0x60 }
  - { offset: 0x11100, size: 0x8, addend: 0x0, symName: '__ZN100_$LT$$RF$quiche..UnknownTransportParameters$u20$as$u20$core..iter..traits..collect..IntoIterator$GT$9into_iter17h43e37d6901f49a52E', symObjAddr: 0x1CB0, symBinAddr: 0x10000BF00, symSize: 0x20 }
  - { offset: 0x11134, size: 0x8, addend: 0x0, symName: '__ZN100_$LT$quiche..UnknownTransportParameterIterator$u20$as$u20$core..iter..traits..iterator..Iterator$GT$4next17h8baa768f9667b9f0E', symObjAddr: 0x1CD0, symBinAddr: 0x10000BF20, symSize: 0x70 }
  - { offset: 0x1117E, size: 0x8, addend: 0x0, symName: '__ZN66_$LT$quiche..TransportParams$u20$as$u20$core..default..Default$GT$7default17hd382aca6bf24e21fE', symObjAddr: 0x1D40, symBinAddr: 0x10000BF90, symSize: 0x1F0 }
  - { offset: 0x111A7, size: 0x8, addend: 0x0, symName: '__ZN6quiche3ffi99_$LT$impl$u20$core..convert..From$LT$$RF$quiche..ffi..RecvInfo$GT$$u20$for$u20$quiche..RecvInfo$GT$4from17h704bb3b443675e60E', symObjAddr: 0x4C00, symBinAddr: 0x10000EE50, symSize: 0x90 }
  - { offset: 0x11215, size: 0x8, addend: 0x0, symName: '__ZN50_$LT$quiche..Error$u20$as$u20$core..fmt..Debug$GT$3fmt17h4dbac6580d4232d9E', symObjAddr: 0x4C90, symBinAddr: 0x10000EEE0, symSize: 0x380 }
  - { offset: 0x112B2, size: 0x8, addend: 0x0, symName: '__ZN54_$LT$quiche..Error$u20$as$u20$core..cmp..PartialEq$GT$2eq17h9ea8ca98c6cd5fd8E', symObjAddr: 0x5010, symBinAddr: 0x10000F260, symSize: 0x140 }
  - { offset: 0x113AD, size: 0x8, addend: 0x0, symName: '__ZN53_$LT$quiche..RecvInfo$u20$as$u20$core..fmt..Debug$GT$3fmt17h46b37d26b9eb003fE', symObjAddr: 0x5150, symBinAddr: 0x10000F3A0, symSize: 0x90 }
  - { offset: 0x113F0, size: 0x8, addend: 0x0, symName: '__ZN57_$LT$quiche..Shutdown$u20$as$u20$core..cmp..PartialEq$GT$2eq17h273124e5cc89c317E', symObjAddr: 0x51E0, symBinAddr: 0x10000F430, symSize: 0x30 }
  - { offset: 0x1146F, size: 0x8, addend: 0x0, symName: '__ZN73_$LT$quiche..UnknownTransportParameters$u20$as$u20$core..clone..Clone$GT$5clone17h20684726963173f5E', symObjAddr: 0x5210, symBinAddr: 0x10000F460, symSize: 0x60 }
  - { offset: 0x114A3, size: 0x8, addend: 0x0, symName: '__ZN71_$LT$quiche..UnknownTransportParameters$u20$as$u20$core..fmt..Debug$GT$3fmt17h310a1e958f91ec7aE', symObjAddr: 0x5270, symBinAddr: 0x10000F4C0, symSize: 0x90 }
  - { offset: 0x114E6, size: 0x8, addend: 0x0, symName: '__ZN75_$LT$quiche..UnknownTransportParameters$u20$as$u20$core..cmp..PartialEq$GT$2eq17h9b940dcb58b6ce64E', symObjAddr: 0x5300, symBinAddr: 0x10000F550, symSize: 0x50 }
  - { offset: 0x11529, size: 0x8, addend: 0x0, symName: '__ZN62_$LT$quiche..TransportParams$u20$as$u20$core..clone..Clone$GT$5clone17h4a16e5c993757e07E', symObjAddr: 0x5350, symBinAddr: 0x10000F5A0, symSize: 0x3B0 }
  - { offset: 0x1155E, size: 0x8, addend: 0x0, symName: '__ZN60_$LT$quiche..TransportParams$u20$as$u20$core..fmt..Debug$GT$3fmt17hf9f35f4903f7bfadE', symObjAddr: 0x5700, symBinAddr: 0x10000F950, symSize: 0x2E0 }
  - { offset: 0x115DF, size: 0x8, addend: 0x0, symName: '__ZN64_$LT$quiche..TransportParams$u20$as$u20$core..cmp..PartialEq$GT$2eq17h29d88d060d52d509E', symObjAddr: 0x59E0, symBinAddr: 0x10000FC30, symSize: 0x215 }
  - { offset: 0x12750, size: 0x8, addend: 0x0, symName: __ZN6quiche5Error7to_wire17h5b4725e565237a56E, symObjAddr: 0x0, symBinAddr: 0x10000A250, symSize: 0x2C0 }
  - { offset: 0x1277A, size: 0x8, addend: 0x0, symName: __ZN6quiche5Error4to_c17h88f6c3cd3cecfaa9E, symObjAddr: 0x2C0, symBinAddr: 0x10000A510, symSize: 0x180 }
  - { offset: 0x127B8, size: 0x8, addend: 0x0, symName: __ZN6quiche6Config3new17hc82cf4dcb9953eb4E, symObjAddr: 0x500, symBinAddr: 0x10000A750, symSize: 0x90 }
  - { offset: 0x127F9, size: 0x8, addend: 0x0, symName: __ZN6quiche6Config12with_tls_ctx17h20176b467bcd9f1fE, symObjAddr: 0x590, symBinAddr: 0x10000A7E0, symSize: 0x300 }
  - { offset: 0x12857, size: 0x8, addend: 0x0, symName: __ZN6quiche6Config29load_cert_chain_from_pem_file17hfb71e709b29ba07dE, symObjAddr: 0x890, symBinAddr: 0x10000AAE0, symSize: 0x30 }
  - { offset: 0x12889, size: 0x8, addend: 0x0, symName: __ZN6quiche6Config27load_priv_key_from_pem_file17hcd4c32579e8d2b0eE, symObjAddr: 0x8C0, symBinAddr: 0x10000AB10, symSize: 0x30 }
  - { offset: 0x128BB, size: 0x8, addend: 0x0, symName: __ZN6quiche6Config31load_verify_locations_from_file17h99db91894c964912E, symObjAddr: 0x8F0, symBinAddr: 0x10000AB40, symSize: 0x30 }
  - { offset: 0x128ED, size: 0x8, addend: 0x0, symName: __ZN6quiche6Config36load_verify_locations_from_directory17h5068318e6c1a48feE, symObjAddr: 0x920, symBinAddr: 0x10000AB70, symSize: 0x30 }
  - { offset: 0x1291F, size: 0x8, addend: 0x0, symName: __ZN6quiche6Config11verify_peer17h2e7d528d6e333fc2E, symObjAddr: 0x950, symBinAddr: 0x10000ABA0, symSize: 0x30 }
  - { offset: 0x12951, size: 0x8, addend: 0x0, symName: __ZN6quiche6Config13discover_pmtu17h812f68460298378eE, symObjAddr: 0x980, symBinAddr: 0x10000ABD0, symSize: 0x20 }
  - { offset: 0x12983, size: 0x8, addend: 0x0, symName: __ZN6quiche6Config6grease17h9a7153b9a4cd370cE, symObjAddr: 0x9A0, symBinAddr: 0x10000ABF0, symSize: 0x20 }
  - { offset: 0x129B5, size: 0x8, addend: 0x0, symName: __ZN6quiche6Config8log_keys17h2d62ce50f0cf9a65E, symObjAddr: 0x9C0, symBinAddr: 0x10000AC10, symSize: 0x20 }
  - { offset: 0x129D8, size: 0x8, addend: 0x0, symName: __ZN6quiche6Config14set_ticket_key17h96234b0d5ac5fdf1E, symObjAddr: 0x9E0, symBinAddr: 0x10000AC30, symSize: 0x30 }
  - { offset: 0x12A0A, size: 0x8, addend: 0x0, symName: __ZN6quiche6Config17enable_early_data17h4b6a588f93b15efaE, symObjAddr: 0xA10, symBinAddr: 0x10000AC60, symSize: 0x30 }
  - { offset: 0x12A54, size: 0x8, addend: 0x0, symName: __ZN6quiche6Config22set_application_protos17h149a62faaf716da6E, symObjAddr: 0xA40, symBinAddr: 0x10000AC90, symSize: 0xE0 }
  - { offset: 0x12A86, size: 0x8, addend: 0x0, symName: __ZN6quiche6Config34set_application_protos_wire_format17hf000851e5b6894f3E, symObjAddr: 0xB20, symBinAddr: 0x10000AD70, symSize: 0x150 }
  - { offset: 0x12B04, size: 0x8, addend: 0x0, symName: __ZN6quiche6Config28set_max_amplification_factor17h8ad754cbf401a60dE, symObjAddr: 0xC70, symBinAddr: 0x10000AEC0, symSize: 0x20 }
  - { offset: 0x12B36, size: 0x8, addend: 0x0, symName: __ZN6quiche6Config24set_send_capacity_factor17hceea98e700467043E, symObjAddr: 0xC90, symBinAddr: 0x10000AEE0, symSize: 0x20 }
  - { offset: 0x12B68, size: 0x8, addend: 0x0, symName: __ZN6quiche6Config15set_initial_rtt17h2812bc7bdb665882E, symObjAddr: 0xCB0, symBinAddr: 0x10000AF00, symSize: 0x20 }
  - { offset: 0x12B9A, size: 0x8, addend: 0x0, symName: __ZN6quiche6Config20set_max_idle_timeout17ha73a1d56c8764867E, symObjAddr: 0xCD0, symBinAddr: 0x10000AF20, symSize: 0x40 }
  - { offset: 0x12BCC, size: 0x8, addend: 0x0, symName: __ZN6quiche6Config29set_max_recv_udp_payload_size17h05c3c6c94278bd1aE, symObjAddr: 0xD10, symBinAddr: 0x10000AF60, symSize: 0x40 }
  - { offset: 0x12BFE, size: 0x8, addend: 0x0, symName: __ZN6quiche6Config29set_max_send_udp_payload_size17h3fe0f026548e0061E, symObjAddr: 0xD50, symBinAddr: 0x10000AFA0, symSize: 0x40 }
  - { offset: 0x12C30, size: 0x8, addend: 0x0, symName: __ZN6quiche6Config20set_initial_max_data17h6d70a072173e1973E, symObjAddr: 0xD90, symBinAddr: 0x10000AFE0, symSize: 0x40 }
  - { offset: 0x12C62, size: 0x8, addend: 0x0, symName: __ZN6quiche6Config38set_initial_max_stream_data_bidi_local17h7f5217f79c5ae9eaE, symObjAddr: 0xDD0, symBinAddr: 0x10000B020, symSize: 0x40 }
  - { offset: 0x12C94, size: 0x8, addend: 0x0, symName: __ZN6quiche6Config39set_initial_max_stream_data_bidi_remote17h8d7152de74b7c7c8E, symObjAddr: 0xE10, symBinAddr: 0x10000B060, symSize: 0x40 }
  - { offset: 0x12CC6, size: 0x8, addend: 0x0, symName: __ZN6quiche6Config31set_initial_max_stream_data_uni17h3d5a21c096027957E, symObjAddr: 0xE50, symBinAddr: 0x10000B0A0, symSize: 0x40 }
  - { offset: 0x12CF8, size: 0x8, addend: 0x0, symName: __ZN6quiche6Config28set_initial_max_streams_bidi17h2909598da69e2b69E, symObjAddr: 0xE90, symBinAddr: 0x10000B0E0, symSize: 0x40 }
  - { offset: 0x12D2A, size: 0x8, addend: 0x0, symName: __ZN6quiche6Config27set_initial_max_streams_uni17h12842216c7edc1edE, symObjAddr: 0xED0, symBinAddr: 0x10000B120, symSize: 0x40 }
  - { offset: 0x12D5C, size: 0x8, addend: 0x0, symName: __ZN6quiche6Config22set_ack_delay_exponent17hb8b950b91727a011E, symObjAddr: 0xF10, symBinAddr: 0x10000B160, symSize: 0x40 }
  - { offset: 0x12D8E, size: 0x8, addend: 0x0, symName: __ZN6quiche6Config17set_max_ack_delay17h29af764949e9ef84E, symObjAddr: 0xF50, symBinAddr: 0x10000B1A0, symSize: 0x40 }
  - { offset: 0x12DC0, size: 0x8, addend: 0x0, symName: __ZN6quiche6Config30set_active_connection_id_limit17hd2ea2487206a3eb0E, symObjAddr: 0xF90, symBinAddr: 0x10000B1E0, symSize: 0x50 }
  - { offset: 0x12DF2, size: 0x8, addend: 0x0, symName: __ZN6quiche6Config28set_disable_active_migration17h6b2b73a04980fa38E, symObjAddr: 0xFE0, symBinAddr: 0x10000B230, symSize: 0x20 }
  - { offset: 0x12E24, size: 0x8, addend: 0x0, symName: __ZN6quiche6Config16set_cc_algorithm17h853bbcd3a3da1f39E, symObjAddr: 0x1000, symBinAddr: 0x10000B250, symSize: 0x20 }
  - { offset: 0x12E56, size: 0x8, addend: 0x0, symName: __ZN6quiche6Config21set_cc_algorithm_name17h8fd9177cbeb4b42bE, symObjAddr: 0x1020, symBinAddr: 0x10000B270, symSize: 0xA0 }
  - { offset: 0x12EA6, size: 0x8, addend: 0x0, symName: __ZN6quiche6Config37set_initial_congestion_window_packets17h1a63f8c3045bab99E, symObjAddr: 0x10C0, symBinAddr: 0x10000B310, symSize: 0x20 }
  - { offset: 0x12ED8, size: 0x8, addend: 0x0, symName: __ZN6quiche6Config33set_enable_relaxed_loss_threshold17h273f52602c162448E, symObjAddr: 0x10E0, symBinAddr: 0x10000B330, symSize: 0x20 }
  - { offset: 0x12F0A, size: 0x8, addend: 0x0, symName: __ZN6quiche6Config14enable_hystart17h977a08b31f637057E, symObjAddr: 0x1100, symBinAddr: 0x10000B350, symSize: 0x20 }
  - { offset: 0x12F3C, size: 0x8, addend: 0x0, symName: __ZN6quiche6Config13enable_pacing17h22cb98703ecf88e9E, symObjAddr: 0x1120, symBinAddr: 0x10000B370, symSize: 0x20 }
  - { offset: 0x12F6E, size: 0x8, addend: 0x0, symName: __ZN6quiche6Config19set_max_pacing_rate17h885452e50439817bE, symObjAddr: 0x1140, symBinAddr: 0x10000B390, symSize: 0x30 }
  - { offset: 0x12FA0, size: 0x8, addend: 0x0, symName: __ZN6quiche6Config12enable_dgram17h55ea5306e8addc6aE, symObjAddr: 0x1170, symBinAddr: 0x10000B3C0, symSize: 0x80 }
  - { offset: 0x12FF0, size: 0x8, addend: 0x0, symName: __ZN6quiche6Config37set_path_challenge_recv_max_queue_len17h9de9fdc2fde7aebfE, symObjAddr: 0x11F0, symBinAddr: 0x10000B440, symSize: 0x20 }
  - { offset: 0x13022, size: 0x8, addend: 0x0, symName: __ZN6quiche6Config25set_max_connection_window17hd4acfb180959a60cE, symObjAddr: 0x1210, symBinAddr: 0x10000B460, symSize: 0x20 }
  - { offset: 0x13054, size: 0x8, addend: 0x0, symName: __ZN6quiche6Config21set_max_stream_window17h9d57fec62253aab3E, symObjAddr: 0x1230, symBinAddr: 0x10000B480, symSize: 0x20 }
  - { offset: 0x13086, size: 0x8, addend: 0x0, symName: __ZN6quiche6Config25set_stateless_reset_token17h1243d415591cea8dE, symObjAddr: 0x1250, symBinAddr: 0x10000B4A0, symSize: 0x30 }
  - { offset: 0x130B8, size: 0x8, addend: 0x0, symName: __ZN6quiche6Config22set_disable_dcid_reuse17h00b381c69ed46a53E, symObjAddr: 0x1280, symBinAddr: 0x10000B4D0, symSize: 0x20 }
  - { offset: 0x130EA, size: 0x8, addend: 0x0, symName: __ZN6quiche6Config41enable_track_unknown_transport_parameters17h8659f17336ef2c6dE, symObjAddr: 0x12A0, symBinAddr: 0x10000B4F0, symSize: 0x30 }
  - { offset: 0x13129, size: 0x8, addend: 0x0, symName: __ZN6quiche26UnknownTransportParameters4push17he1b39118adb823afE, symObjAddr: 0x1BE0, symBinAddr: 0x10000BE30, symSize: 0xD0 }
  - { offset: 0x13172, size: 0x8, addend: 0x0, symName: __ZN6quiche15TransportParams6decode17h4f03d84adbf1c49bE, symObjAddr: 0x1F30, symBinAddr: 0x10000C180, symSize: 0x1550 }
  - { offset: 0x13522, size: 0x8, addend: 0x0, symName: __ZN6quiche15TransportParams12encode_param17hbe5106c7454aeab4E, symObjAddr: 0x3480, symBinAddr: 0x10000D6D0, symSize: 0x100 }
  - { offset: 0x135AC, size: 0x8, addend: 0x0, symName: __ZN6quiche15TransportParams6encode17he5156391a435056bE, symObjAddr: 0x3580, symBinAddr: 0x10000D7D0, symSize: 0x1680 }
  - { offset: 0x14934, size: 0x8, addend: 0x0, symName: __ZN3std4path4Path15to_string_lossy17ha203b6a1687c9e07E, symObjAddr: 0x0, symBinAddr: 0x10000FE50, symSize: 0x40 }
  - { offset: 0x14ABC, size: 0x8, addend: 0x0, symName: '__ZN3std4path77_$LT$impl$u20$core..convert..AsRef$LT$std..path..Path$GT$$u20$for$u20$str$GT$6as_ref17hfc35c9da1f1dbdabE', symObjAddr: 0x40, symBinAddr: 0x10000FE90, symSize: 0x20 }
  - { offset: 0x14AF0, size: 0x8, addend: 0x0, symName: '__ZN62_$LT$std..path..PathBuf$u20$as$u20$core..ops..deref..Deref$GT$5deref17h54dd70ca6a41ee49E', symObjAddr: 0x60, symBinAddr: 0x10000FEB0, symSize: 0x30 }
  - { offset: 0x14BB1, size: 0x8, addend: 0x0, symName: '__ZN82_$LT$std..path..PathBuf$u20$as$u20$core..convert..AsRef$LT$std..path..Path$GT$$GT$6as_ref17he5abddbb49274229E', symObjAddr: 0x90, symBinAddr: 0x10000FEE0, symSize: 0x22 }
  - { offset: 0x14F28, size: 0x8, addend: 0x0, symName: __ZN3std4path4Path15to_string_lossy17ha203b6a1687c9e07E, symObjAddr: 0x0, symBinAddr: 0x10000FE50, symSize: 0x40 }
  - { offset: 0x14FF7, size: 0x8, addend: 0x0, symName: __ZN4core3fmt8builders9DebugList7entries17h1e8d329a26bb681eE, symObjAddr: 0x0, symBinAddr: 0x10000FF10, symSize: 0xD0 }
  - { offset: 0x15D37, size: 0x8, addend: 0x0, symName: __ZN4core3fmt8builders9DebugList7entries17h1e8d329a26bb681eE, symObjAddr: 0x0, symBinAddr: 0x10000FF10, symSize: 0xD0 }
  - { offset: 0x15DBE, size: 0x8, addend: 0x0, symName: __ZN4core3fmt8builders9DebugList7entries17h333371346a34d333E, symObjAddr: 0xD0, symBinAddr: 0x10000FFE0, symSize: 0xD0 }
  - { offset: 0x15E44, size: 0x8, addend: 0x0, symName: __ZN4core3fmt8builders9DebugList7entries17h3f6658570bd0ce56E, symObjAddr: 0x1A0, symBinAddr: 0x1000100B0, symSize: 0xD0 }
  - { offset: 0x15ECA, size: 0x8, addend: 0x0, symName: __ZN4core3fmt8builders9DebugList7entries17h4578f40fac9ed855E, symObjAddr: 0x270, symBinAddr: 0x100010180, symSize: 0xD0 }
  - { offset: 0x15F50, size: 0x8, addend: 0x0, symName: __ZN4core3fmt8builders9DebugList7entries17h90a7d2be24f7c003E, symObjAddr: 0x340, symBinAddr: 0x100010250, symSize: 0xD0 }
  - { offset: 0x15FD7, size: 0x8, addend: 0x0, symName: __ZN4core3fmt8builders9DebugList7entries17h90e3faae75ad6967E, symObjAddr: 0x410, symBinAddr: 0x100010320, symSize: 0xD0 }
  - { offset: 0x1605D, size: 0x8, addend: 0x0, symName: __ZN4core3fmt8builders9DebugList7entries17hab23f3a9b077cfabE, symObjAddr: 0x4E0, symBinAddr: 0x1000103F0, symSize: 0xD0 }
  - { offset: 0x160E3, size: 0x8, addend: 0x0, symName: __ZN4core3fmt8builders9DebugList7entries17hf7e812b9f870bcf7E, symObjAddr: 0x5B0, symBinAddr: 0x1000104C0, symSize: 0xD0 }
  - { offset: 0x16169, size: 0x8, addend: 0x0, symName: __ZN4core3fmt8builders9DebugList7entries17hfeaf9d9d71b229baE, symObjAddr: 0x680, symBinAddr: 0x100010590, symSize: 0xC3 }
  - { offset: 0x16200, size: 0x8, addend: 0x0, symName: __ZN6quiche5frame5Frame10from_bytes17h8ed8a47414bfa413E, symObjAddr: 0x0, symBinAddr: 0x100010660, symSize: 0x1CB0 }
  - { offset: 0x167B6, size: 0x8, addend: 0x0, symName: '__ZN57_$LT$quiche..frame..Frame$u20$as$u20$core..fmt..Debug$GT$3fmt17h848bacd352c1dcb5E', symObjAddr: 0x5AA0, symBinAddr: 0x100016100, symSize: 0x19B0 }
  - { offset: 0x17349, size: 0x8, addend: 0x0, symName: __ZN6quiche5frame15parse_ack_frame17hff6d29da6ee617f2E, symObjAddr: 0x7450, symBinAddr: 0x100017AB0, symSize: 0x950 }
  - { offset: 0x175D5, size: 0x8, addend: 0x0, symName: __ZN6quiche5frame20encode_crypto_header17h4813588f87c39898E, symObjAddr: 0x7DA0, symBinAddr: 0x100018400, symSize: 0x1B0 }
  - { offset: 0x1767D, size: 0x8, addend: 0x0, symName: __ZN6quiche5frame20encode_stream_header17h15f0da97bca20da9E, symObjAddr: 0x7F50, symBinAddr: 0x1000185B0, symSize: 0x2A0 }
  - { offset: 0x177A5, size: 0x8, addend: 0x0, symName: __ZN6quiche5frame19encode_dgram_header17h58f7849c5fa3ed60E, symObjAddr: 0x81F0, symBinAddr: 0x100018850, symSize: 0x130 }
  - { offset: 0x1785B, size: 0x8, addend: 0x0, symName: __ZN6quiche5frame18parse_stream_frame17hd748985cab4eaf85E, symObjAddr: 0x8320, symBinAddr: 0x100018980, symSize: 0x370 }
  - { offset: 0x17A0B, size: 0x8, addend: 0x0, symName: __ZN6quiche5frame20parse_datagram_frame17hb21a0c9e67ff5e3fE, symObjAddr: 0x8690, symBinAddr: 0x100018CF0, symSize: 0x1E0 }
  - { offset: 0x17AFC, size: 0x8, addend: 0x0, symName: '__ZN63_$LT$quiche..frame..EcnCounts$u20$as$u20$core..clone..Clone$GT$5clone17h3a285270ab0dd447E', symObjAddr: 0x8870, symBinAddr: 0x100018ED0, symSize: 0x30 }
  - { offset: 0x17B2E, size: 0x8, addend: 0x0, symName: '__ZN61_$LT$quiche..frame..EcnCounts$u20$as$u20$core..fmt..Debug$GT$3fmt17h980018187dc4a523E', symObjAddr: 0x88A0, symBinAddr: 0x100018F00, symSize: 0xC0 }
  - { offset: 0x17B6E, size: 0x8, addend: 0x0, symName: '__ZN59_$LT$quiche..frame..Frame$u20$as$u20$core..clone..Clone$GT$5clone17h100f641da2d8d89fE', symObjAddr: 0x8960, symBinAddr: 0x100018FC0, symSize: 0x964 }
  - { offset: 0x19580, size: 0x8, addend: 0x0, symName: __ZN6quiche5frame5Frame10from_bytes17h8ed8a47414bfa413E, symObjAddr: 0x0, symBinAddr: 0x100010660, symSize: 0x1CB0 }
  - { offset: 0x19D63, size: 0x8, addend: 0x0, symName: __ZN6quiche5frame5Frame8to_bytes17h5d7a9dd39107cecfE, symObjAddr: 0x1CB0, symBinAddr: 0x100012310, symSize: 0x2970 }
  - { offset: 0x1AA04, size: 0x8, addend: 0x0, symName: __ZN6quiche5frame5Frame8wire_len17h446ae1ab0d954c46E, symObjAddr: 0x4620, symBinAddr: 0x100014C80, symSize: 0x13C0 }
  - { offset: 0x1AE61, size: 0x8, addend: 0x0, symName: __ZN6quiche5frame5Frame13ack_eliciting17hc180734d221374b8E, symObjAddr: 0x59E0, symBinAddr: 0x100016040, symSize: 0x60 }
  - { offset: 0x1AE84, size: 0x8, addend: 0x0, symName: __ZN6quiche5frame5Frame7probing17h794eb907c201326cE, symObjAddr: 0x5A40, symBinAddr: 0x1000160A0, symSize: 0x60 }
  - { offset: 0x1B2B2, size: 0x8, addend: 0x0, symName: '__ZN4core3f6421_$LT$impl$u20$f64$GT$3abs17h73a70d72935c4a2eE', symObjAddr: 0x0, symBinAddr: 0x100019930, symSize: 0x20 }
  - { offset: 0x1B2CE, size: 0x8, addend: 0x0, symName: '__ZN4core3f6421_$LT$impl$u20$f64$GT$3abs17h73a70d72935c4a2eE', symObjAddr: 0x0, symBinAddr: 0x100019930, symSize: 0x20 }
  - { offset: 0x1B2FC, size: 0x8, addend: 0x0, symName: '__ZN4core3f6421_$LT$impl$u20$f64$GT$3max17hdccb4fb772269899E', symObjAddr: 0x20, symBinAddr: 0x100019950, symSize: 0x40 }
  - { offset: 0x1B339, size: 0x8, addend: 0x0, symName: '__ZN4core3f6421_$LT$impl$u20$f64$GT$3min17h843802f5ab6b75a0E', symObjAddr: 0x60, symBinAddr: 0x100019990, symSize: 0x40 }
  - { offset: 0x1B38C, size: 0x8, addend: 0x0, symName: '__ZN4core7convert3num18ptr_try_from_impls69_$LT$impl$u20$core..convert..TryFrom$LT$u64$GT$$u20$for$u20$usize$GT$8try_from17h835187265bcb2376E', symObjAddr: 0xA0, symBinAddr: 0x1000199D0, symSize: 0x20 }
  - { offset: 0x1B4E7, size: 0x8, addend: 0x0, symName: __ZN4core9core_arch3x867__m128i8as_i8x1617h1d34cf3543c1c606E, symObjAddr: 0xC0, symBinAddr: 0x1000199F0, symSize: 0x11 }
  - { offset: 0x1B544, size: 0x8, addend: 0x0, symName: '__ZN105_$LT$std..collections..hash..map..Iter$LT$K$C$V$GT$$u20$as$u20$core..iter..traits..iterator..Iterator$GT$4next17h5b04f2f26bd4757bE', symObjAddr: 0x0, symBinAddr: 0x100019A10, symSize: 0x20 }
  - { offset: 0x1BA73, size: 0x8, addend: 0x0, symName: '__ZN105_$LT$std..collections..hash..map..Iter$LT$K$C$V$GT$$u20$as$u20$core..iter..traits..iterator..Iterator$GT$4next17h5b04f2f26bd4757bE', symObjAddr: 0x0, symBinAddr: 0x100019A10, symSize: 0x20 }
  - { offset: 0x1BAB3, size: 0x8, addend: 0x0, symName: '__ZN105_$LT$std..collections..hash..map..Iter$LT$K$C$V$GT$$u20$as$u20$core..iter..traits..iterator..Iterator$GT$4next17hc47cb5eccf9169beE', symObjAddr: 0x20, symBinAddr: 0x100019A30, symSize: 0x20 }
  - { offset: 0x1BAF3, size: 0x8, addend: 0x0, symName: '__ZN105_$LT$std..collections..hash..map..Iter$LT$K$C$V$GT$$u20$as$u20$core..iter..traits..iterator..Iterator$GT$9size_hint17h2fedca4a34cbc22cE', symObjAddr: 0x40, symBinAddr: 0x100019A50, symSize: 0x30 }
  - { offset: 0x1BB5E, size: 0x8, addend: 0x0, symName: '__ZN105_$LT$std..collections..hash..map..Iter$LT$K$C$V$GT$$u20$as$u20$core..iter..traits..iterator..Iterator$GT$9size_hint17hf80055ab8f00b198E', symObjAddr: 0x70, symBinAddr: 0x100019A80, symSize: 0x30 }
  - { offset: 0x1C4C6, size: 0x8, addend: 0x0, symName: '__ZN96_$LT$std..collections..hash..map..HashMap$LT$K$C$V$C$S$GT$$u20$as$u20$core..default..Default$GT$7default17h3c2fb322f9ff50d6E', symObjAddr: 0xB80, symBinAddr: 0x10001A590, symSize: 0x90 }
  - { offset: 0x1C549, size: 0x8, addend: 0x0, symName: '__ZN96_$LT$std..collections..hash..map..HashMap$LT$K$C$V$C$S$GT$$u20$as$u20$core..default..Default$GT$7default17h9e560d3c48377a47E', symObjAddr: 0xC10, symBinAddr: 0x10001A620, symSize: 0x90 }
  - { offset: 0x1C5CC, size: 0x8, addend: 0x0, symName: '__ZN96_$LT$std..collections..hash..map..HashMap$LT$K$C$V$C$S$GT$$u20$as$u20$core..default..Default$GT$7default17habca3ee8d7b4a93dE', symObjAddr: 0xCA0, symBinAddr: 0x10001A6B0, symSize: 0x90 }
  - { offset: 0x1C64F, size: 0x8, addend: 0x0, symName: '__ZN96_$LT$std..collections..hash..map..HashMap$LT$K$C$V$C$S$GT$$u20$as$u20$core..default..Default$GT$7default17hc03b24eaf41151ddE', symObjAddr: 0xD30, symBinAddr: 0x10001A740, symSize: 0x8E }
  - { offset: 0x1E14F, size: 0x8, addend: 0x0, symName: __ZN4core4iter6traits8iterator8Iterator3map17h09a52baddacc3f83E, symObjAddr: 0xAF0, symBinAddr: 0x10001A500, symSize: 0x30 }
  - { offset: 0x1E1BD, size: 0x8, addend: 0x0, symName: __ZN4core4iter6traits8iterator8Iterator3map17h4187b073d7e6de1bE, symObjAddr: 0xB20, symBinAddr: 0x10001A530, symSize: 0x30 }
  - { offset: 0x1E22B, size: 0x8, addend: 0x0, symName: __ZN4core4iter6traits8iterator8Iterator3map17hdbbd3dc2a3bb4fcaE, symObjAddr: 0xB50, symBinAddr: 0x10001A560, symSize: 0x30 }
  - { offset: 0x1E927, size: 0x8, addend: 0x0, symName: '__ZN3std11collections4hash3map18Entry$LT$K$C$V$GT$14or_insert_with17h0ec9966b48873624E', symObjAddr: 0xA0, symBinAddr: 0x100019AB0, symSize: 0x270 }
  - { offset: 0x1EC25, size: 0x8, addend: 0x0, symName: '__ZN3std11collections4hash3map18Entry$LT$K$C$V$GT$14or_insert_with17hc59cb1fa4e2ebd6eE', symObjAddr: 0x310, symBinAddr: 0x100019D20, symSize: 0x270 }
  - { offset: 0x1F0AB, size: 0x8, addend: 0x0, symName: '__ZN3std11collections4hash3map24HashMap$LT$K$C$V$C$S$GT$3get17ha3aa72d15e67e3beE', symObjAddr: 0x580, symBinAddr: 0x100019F90, symSize: 0x60 }
  - { offset: 0x1F1BF, size: 0x8, addend: 0x0, symName: '__ZN3std11collections4hash3map24HashMap$LT$K$C$V$C$S$GT$3get17he76a37b117136acbE', symObjAddr: 0x5E0, symBinAddr: 0x100019FF0, symSize: 0x60 }
  - { offset: 0x1F27C, size: 0x8, addend: 0x0, symName: '__ZN3std11collections4hash3map24HashMap$LT$K$C$V$C$S$GT$4iter17h46ef4fa1c45952b0E', symObjAddr: 0x640, symBinAddr: 0x10001A050, symSize: 0x40 }
  - { offset: 0x1F2FF, size: 0x8, addend: 0x0, symName: '__ZN3std11collections4hash3map24HashMap$LT$K$C$V$C$S$GT$4iter17hf93fe047b2d62d30E', symObjAddr: 0x680, symBinAddr: 0x10001A090, symSize: 0x40 }
  - { offset: 0x1F34A, size: 0x8, addend: 0x0, symName: '__ZN3std11collections4hash3map24HashMap$LT$K$C$V$C$S$GT$5entry17h73b8273065e60a94E', symObjAddr: 0x6C0, symBinAddr: 0x10001A0D0, symSize: 0xC0 }
  - { offset: 0x1F40A, size: 0x8, addend: 0x0, symName: '__ZN3std11collections4hash3map24HashMap$LT$K$C$V$C$S$GT$5entry17h89e0429725541db5E', symObjAddr: 0x780, symBinAddr: 0x10001A190, symSize: 0xC0 }
  - { offset: 0x1F4B0, size: 0x8, addend: 0x0, symName: '__ZN3std11collections4hash3map24HashMap$LT$K$C$V$C$S$GT$6insert17h515dabd7249a2df8E', symObjAddr: 0x840, symBinAddr: 0x10001A250, symSize: 0x30 }
  - { offset: 0x1F50C, size: 0x8, addend: 0x0, symName: '__ZN3std11collections4hash3map24HashMap$LT$K$C$V$C$S$GT$6insert17hb8920bf25620f692E', symObjAddr: 0x870, symBinAddr: 0x10001A280, symSize: 0x30 }
  - { offset: 0x1F576, size: 0x8, addend: 0x0, symName: '__ZN3std11collections4hash3map24HashMap$LT$K$C$V$C$S$GT$6insert17hecd040531968b077E', symObjAddr: 0x8A0, symBinAddr: 0x10001A2B0, symSize: 0x20 }
  - { offset: 0x1F5D2, size: 0x8, addend: 0x0, symName: '__ZN3std11collections4hash3map24HashMap$LT$K$C$V$C$S$GT$6remove17h6f11caa86d71d403E', symObjAddr: 0x8C0, symBinAddr: 0x10001A2D0, symSize: 0x30 }
  - { offset: 0x1F628, size: 0x8, addend: 0x0, symName: '__ZN3std11collections4hash3map24HashMap$LT$K$C$V$C$S$GT$6remove17h82f72c0e58cdc6adE', symObjAddr: 0x8F0, symBinAddr: 0x10001A300, symSize: 0x20 }
  - { offset: 0x1F67E, size: 0x8, addend: 0x0, symName: '__ZN3std11collections4hash3map24HashMap$LT$K$C$V$C$S$GT$6remove17h9df8ab4f50876663E', symObjAddr: 0x910, symBinAddr: 0x10001A320, symSize: 0x30 }
  - { offset: 0x1F6D4, size: 0x8, addend: 0x0, symName: '__ZN3std11collections4hash3map24HashMap$LT$K$C$V$C$S$GT$6remove17hdf7ee43a946504b1E', symObjAddr: 0x940, symBinAddr: 0x10001A350, symSize: 0x30 }
  - { offset: 0x1F79F, size: 0x8, addend: 0x0, symName: '__ZN3std11collections4hash3map24HashMap$LT$K$C$V$C$S$GT$7get_mut17hc0a0e3cd3cb52c90E', symObjAddr: 0x970, symBinAddr: 0x10001A380, symSize: 0x60 }
  - { offset: 0x1F899, size: 0x8, addend: 0x0, symName: '__ZN3std11collections4hash3map24HashMap$LT$K$C$V$C$S$GT$7get_mut17hf8a5f51eb5dd1b2fE', symObjAddr: 0x9D0, symBinAddr: 0x10001A3E0, symSize: 0x60 }
  - { offset: 0x1F963, size: 0x8, addend: 0x0, symName: '__ZN3std11collections4hash3map24HashMap$LT$K$C$V$C$S$GT$8is_empty17h0536be93ee792a8aE', symObjAddr: 0xA30, symBinAddr: 0x10001A440, symSize: 0x20 }
  - { offset: 0x1F9EE, size: 0x8, addend: 0x0, symName: '__ZN3std11collections4hash3map24HashMap$LT$K$C$V$C$S$GT$8is_empty17h596050a623ee8077E', symObjAddr: 0xA50, symBinAddr: 0x10001A460, symSize: 0x20 }
  - { offset: 0x1FA41, size: 0x8, addend: 0x0, symName: '__ZN3std11collections4hash3map24VacantEntry$LT$K$C$V$GT$6insert17ha43ca0ebe0a02856E', symObjAddr: 0xA70, symBinAddr: 0x10001A480, symSize: 0x30 }
  - { offset: 0x1FB30, size: 0x8, addend: 0x0, symName: '__ZN3std11collections4hash3map26OccupiedEntry$LT$K$C$V$GT$8into_mut17hddcd7ee80e3e7a6dE', symObjAddr: 0xAA0, symBinAddr: 0x10001A4B0, symSize: 0x50 }
  - { offset: 0x1FE01, size: 0x8, addend: 0x0, symName: __ZN3std2io5error14repr_bitpacked11decode_repr17h325b5b748e947e8eE, symObjAddr: 0x0, symBinAddr: 0x10001A7D0, symSize: 0x200 }
  - { offset: 0x20029, size: 0x8, addend: 0x0, symName: '__ZN78_$LT$std..io..error..repr_bitpacked..Repr$u20$as$u20$core..ops..drop..Drop$GT$4drop28_$u7b$$u7b$closure$u7d$$u7d$17hea5bab2b998a7524E', symObjAddr: 0x410, symBinAddr: 0x10001ABE0, symSize: 0x2A }
  - { offset: 0x200DF, size: 0x8, addend: 0x0, symName: __ZN3std2io5error14repr_bitpacked11decode_repr17h325b5b748e947e8eE, symObjAddr: 0x0, symBinAddr: 0x10001A7D0, symSize: 0x200 }
  - { offset: 0x20351, size: 0x8, addend: 0x0, symName: '__ZN3std2io5error14repr_bitpacked4Repr4data28_$u7b$$u7b$closure$u7d$$u7d$17h80060808cae9a427E', symObjAddr: 0x400, symBinAddr: 0x10001ABD0, symSize: 0x10 }
  - { offset: 0x20389, size: 0x8, addend: 0x0, symName: __ZN3std2io5error14repr_bitpacked11decode_repr17he125d31a158d2346E, symObjAddr: 0x200, symBinAddr: 0x10001A9D0, symSize: 0x200 }
  - { offset: 0x21225, size: 0x8, addend: 0x0, symName: '__ZN146_$LT$core..ops..range..Range$LT$usize$GT$$u20$as$u20$core..iter..adapters..step_by..SpecRangeSetup$LT$core..ops..range..Range$LT$usize$GT$$GT$$GT$5setup17hfab5c3cc28b72565E', symObjAddr: 0x0, symBinAddr: 0x10001AC10, symSize: 0x160 }
  - { offset: 0x212BD, size: 0x8, addend: 0x0, symName: '__ZN146_$LT$core..ops..range..Range$LT$usize$GT$$u20$as$u20$core..iter..adapters..step_by..SpecRangeSetup$LT$core..ops..range..Range$LT$usize$GT$$GT$$GT$5setup17hfab5c3cc28b72565E', symObjAddr: 0x0, symBinAddr: 0x10001AC10, symSize: 0x160 }
  - { offset: 0x21526, size: 0x8, addend: 0x0, symName: '__ZN4core3str6traits99_$LT$impl$u20$core..slice..index..SliceIndex$LT$str$GT$$u20$for$u20$core..ops..range..RangeFull$GT$5index17h6556822539c7765aE', symObjAddr: 0x160, symBinAddr: 0x10001AD70, symSize: 0x17 }
  - { offset: 0x215F9, size: 0x8, addend: 0x0, symName: '__ZN101_$LT$std..collections..hash..set..Iter$LT$K$GT$$u20$as$u20$core..iter..traits..iterator..Iterator$GT$4next17hc2e6120be0887bddE', symObjAddr: 0x0, symBinAddr: 0x10001AD90, symSize: 0x60 }
  - { offset: 0x21DB3, size: 0x8, addend: 0x0, symName: __ZN4core4iter6traits8iterator8Iterator6copied17h6e2169ed3a0dee75E, symObjAddr: 0xAE0, symBinAddr: 0x10001B870, symSize: 0x30 }
  - { offset: 0x21E09, size: 0x8, addend: 0x0, symName: __ZN4core4iter6traits8iterator8Iterator8try_fold17h064ac6fbf5f4f62aE, symObjAddr: 0xB10, symBinAddr: 0x10001B8A0, symSize: 0xF0 }
  - { offset: 0x21EBC, size: 0x8, addend: 0x0, symName: __ZN4core4iter6traits8iterator8Iterator8try_fold17h4a09081ecdfee414E, symObjAddr: 0xC00, symBinAddr: 0x10001B990, symSize: 0xF0 }
  - { offset: 0x22C5C, size: 0x8, addend: 0x0, symName: '__ZN101_$LT$std..collections..hash..set..Iter$LT$K$GT$$u20$as$u20$core..iter..traits..iterator..Iterator$GT$4next17hc2e6120be0887bddE', symObjAddr: 0x0, symBinAddr: 0x10001AD90, symSize: 0x60 }
  - { offset: 0x22CE5, size: 0x8, addend: 0x0, symName: '__ZN101_$LT$std..collections..hash..set..Iter$LT$K$GT$$u20$as$u20$core..iter..traits..iterator..Iterator$GT$9size_hint17h300c2f013e92c74fE', symObjAddr: 0x60, symBinAddr: 0x10001ADF0, symSize: 0x30 }
  - { offset: 0x22D79, size: 0x8, addend: 0x0, symName: '__ZN105_$LT$std..collections..hash..set..IntoIter$LT$K$GT$$u20$as$u20$core..iter..traits..iterator..Iterator$GT$4next17hae936b2a223ce6f9E', symObjAddr: 0x90, symBinAddr: 0x10001AE20, symSize: 0x60 }
  - { offset: 0x22E08, size: 0x8, addend: 0x0, symName: '__ZN111_$LT$std..collections..hash..set..HashSet$LT$T$C$S$GT$$u20$as$u20$core..iter..traits..collect..IntoIterator$GT$9into_iter17hb80b54c839f4b188E', symObjAddr: 0xF0, symBinAddr: 0x10001AE80, symSize: 0x90 }
  - { offset: 0x22E6E, size: 0x8, addend: 0x0, symName: '__ZN115_$LT$std..collections..hash..set..HashSet$LT$T$GT$$u20$as$u20$core..convert..From$LT$$u5b$T$u3b$$u20$N$u5d$$GT$$GT$4from17hb28e2af4060907b4E', symObjAddr: 0x180, symBinAddr: 0x10001AF10, symSize: 0x20 }
  - { offset: 0x230D7, size: 0x8, addend: 0x0, symName: '__ZN120_$LT$std..collections..hash..set..HashSet$LT$T$C$S$GT$$u20$as$u20$core..iter..traits..collect..FromIterator$LT$T$GT$$GT$9from_iter17hd28528220e72de8dE', symObjAddr: 0x1A0, symBinAddr: 0x10001AF30, symSize: 0x210 }
  - { offset: 0x231BD, size: 0x8, addend: 0x0, symName: '__ZN120_$LT$std..collections..hash..set..HashSet$LT$T$C$S$GT$$u20$as$u20$core..iter..traits..collect..FromIterator$LT$T$GT$$GT$9from_iter17he505f97223dd1ed9E', symObjAddr: 0x3B0, symBinAddr: 0x10001B140, symSize: 0x220 }
  - { offset: 0x232CE, size: 0x8, addend: 0x0, symName: '__ZN92_$LT$std..collections..hash..set..HashSet$LT$T$C$S$GT$$u20$as$u20$core..default..Default$GT$7default17h08d912c21696e2b7E', symObjAddr: 0xD50, symBinAddr: 0x10001BAE0, symSize: 0x50 }
  - { offset: 0x23314, size: 0x8, addend: 0x0, symName: '__ZN92_$LT$std..collections..hash..set..HashSet$LT$T$C$S$GT$$u20$as$u20$core..default..Default$GT$7default17hc4f871b2a4cd60fbE', symObjAddr: 0xDA0, symBinAddr: 0x10001BB30, symSize: 0x66 }
  - { offset: 0x233A9, size: 0x8, addend: 0x0, symName: '__ZN3std11collections4hash3set20HashSet$LT$T$C$S$GT$11is_disjoint28_$u7b$$u7b$closure$u7d$$u7d$17h0fd3d2a2bdcc5e92E', symObjAddr: 0x7B0, symBinAddr: 0x10001B540, symSize: 0x60 }
  - { offset: 0x2348B, size: 0x8, addend: 0x0, symName: '__ZN3std11collections4hash3set20HashSet$LT$T$C$S$GT$11is_disjoint28_$u7b$$u7b$closure$u7d$$u7d$17he8ed1ab350b1968fE', symObjAddr: 0x810, symBinAddr: 0x10001B5A0, symSize: 0x60 }
  - { offset: 0x23682, size: 0x8, addend: 0x0, symName: '__ZN88_$LT$std..collections..hash..set..HashSet$LT$T$C$S$GT$$u20$as$u20$core..clone..Clone$GT$5clone17h4f3447da79e2f41bE', symObjAddr: 0xCF0, symBinAddr: 0x10001BA80, symSize: 0x60 }
  - { offset: 0x23918, size: 0x8, addend: 0x0, symName: '__ZN3std11collections4hash3set16HashSet$LT$T$GT$3new17hf596c22bf5f2c339E', symObjAddr: 0x5D0, symBinAddr: 0x10001B360, symSize: 0x50 }
  - { offset: 0x23ABA, size: 0x8, addend: 0x0, symName: '__ZN3std11collections4hash3set20HashSet$LT$T$C$S$GT$11is_disjoint17h70bdd4172e729556E', symObjAddr: 0x620, symBinAddr: 0x10001B3B0, symSize: 0x190 }
  - { offset: 0x23EAB, size: 0x8, addend: 0x0, symName: '__ZN3std11collections4hash3set20HashSet$LT$T$C$S$GT$3len17hec6799000f2972b0E', symObjAddr: 0x870, symBinAddr: 0x10001B600, symSize: 0x10 }
  - { offset: 0x23FBD, size: 0x8, addend: 0x0, symName: '__ZN3std11collections4hash3set20HashSet$LT$T$C$S$GT$4iter17h25d5415759796aaaE', symObjAddr: 0x880, symBinAddr: 0x10001B610, symSize: 0x80 }
  - { offset: 0x240B8, size: 0x8, addend: 0x0, symName: '__ZN3std11collections4hash3set20HashSet$LT$T$C$S$GT$6insert17h81fc2ef7af00030eE', symObjAddr: 0x900, symBinAddr: 0x10001B690, symSize: 0x40 }
  - { offset: 0x241EA, size: 0x8, addend: 0x0, symName: '__ZN3std11collections4hash3set20HashSet$LT$T$C$S$GT$6insert17h849ad55422ea6d57E', symObjAddr: 0x940, symBinAddr: 0x10001B6D0, symSize: 0x40 }
  - { offset: 0x242EF, size: 0x8, addend: 0x0, symName: '__ZN3std11collections4hash3set20HashSet$LT$T$C$S$GT$6remove17h6ae0bc34ecf8ef89E', symObjAddr: 0x980, symBinAddr: 0x10001B710, symSize: 0x40 }
  - { offset: 0x243DF, size: 0x8, addend: 0x0, symName: '__ZN3std11collections4hash3set20HashSet$LT$T$C$S$GT$6remove17h8d3dbbaf809b7a4bE', symObjAddr: 0x9C0, symBinAddr: 0x10001B750, symSize: 0x40 }
  - { offset: 0x2451B, size: 0x8, addend: 0x0, symName: '__ZN3std11collections4hash3set20HashSet$LT$T$C$S$GT$8contains17h115b1a497902e873E', symObjAddr: 0xA00, symBinAddr: 0x10001B790, symSize: 0x50 }
  - { offset: 0x2467D, size: 0x8, addend: 0x0, symName: '__ZN3std11collections4hash3set20HashSet$LT$T$C$S$GT$8contains17hf328cbf28d96a767E', symObjAddr: 0xA50, symBinAddr: 0x10001B7E0, symSize: 0x50 }
  - { offset: 0x24781, size: 0x8, addend: 0x0, symName: '__ZN3std11collections4hash3set20HashSet$LT$T$C$S$GT$8is_empty17h42747ad6f390b680E', symObjAddr: 0xAA0, symBinAddr: 0x10001B830, symSize: 0x20 }
  - { offset: 0x2482C, size: 0x8, addend: 0x0, symName: '__ZN3std11collections4hash3set20HashSet$LT$T$C$S$GT$8is_empty17h64389c03ce694e83E', symObjAddr: 0xAC0, symBinAddr: 0x10001B850, symSize: 0x20 }
  - { offset: 0x248D2, size: 0x8, addend: 0x0, symName: '__ZN6quiche8recovery10congestion3bbr115_$LT$impl$u20$core..convert..From$LT$quiche..recovery..congestion..bbr..BBRStateMachine$GT$$u20$for$u20$$RF$str$GT$4from17h8f0705867784ad0fE', symObjAddr: 0x0, symBinAddr: 0x10001BBA0, symSize: 0xA0 }
  - { offset: 0x24900, size: 0x8, addend: 0x0, symName: __ZN6quiche8recovery10congestion3bbr3BBR17hbe068089fc44d171E, symObjAddr: 0x968, symBinAddr: 0x10046E250, symSize: 0x0 }
  - { offset: 0x24AA8, size: 0x8, addend: 0x0, symName: '__ZN6quiche8recovery10congestion3bbr115_$LT$impl$u20$core..convert..From$LT$quiche..recovery..congestion..bbr..BBRStateMachine$GT$$u20$for$u20$$RF$str$GT$4from17h8f0705867784ad0fE', symObjAddr: 0x0, symBinAddr: 0x10001BBA0, symSize: 0xA0 }
  - { offset: 0x24AD5, size: 0x8, addend: 0x0, symName: __ZN6quiche8recovery10congestion3bbr18bbr_enter_recovery17ha1dafe4d4a08e950E, symObjAddr: 0x230, symBinAddr: 0x10001BDD0, symSize: 0xB0 }
  - { offset: 0x24B1D, size: 0x8, addend: 0x0, symName: __ZN6quiche8recovery10congestion3bbr17bbr_exit_recovery17h8ddc4d2caaf47b19E, symObjAddr: 0x2E0, symBinAddr: 0x10001BE80, symSize: 0x40 }
  - { offset: 0x24B47, size: 0x8, addend: 0x0, symName: __ZN6quiche8recovery10congestion3bbr7on_init17hde95530aaa501fa7E, symObjAddr: 0x320, symBinAddr: 0x10001BEC0, symSize: 0x20 }
  - { offset: 0x24B71, size: 0x8, addend: 0x0, symName: __ZN6quiche8recovery10congestion3bbr14on_packet_sent17h92e3940c5ef74ebbE, symObjAddr: 0x340, symBinAddr: 0x10001BEE0, symSize: 0x40 }
  - { offset: 0x24BC8, size: 0x8, addend: 0x0, symName: __ZN6quiche8recovery10congestion3bbr16on_packets_acked17he94bf694422bad84E, symObjAddr: 0x380, symBinAddr: 0x10001BF20, symSize: 0x140 }
  - { offset: 0x24C46, size: 0x8, addend: 0x0, symName: __ZN6quiche8recovery10congestion3bbr16congestion_event17had33cfd9d9e06662E, symObjAddr: 0x4C0, symBinAddr: 0x10001C060, symSize: 0x90 }
  - { offset: 0x24CAC, size: 0x8, addend: 0x0, symName: __ZN6quiche8recovery10congestion3bbr10checkpoint17hf74a52d04c338b18E, symObjAddr: 0x550, symBinAddr: 0x10001C0F0, symSize: 0x10 }
  - { offset: 0x24CD6, size: 0x8, addend: 0x0, symName: __ZN6quiche8recovery10congestion3bbr8rollback17h921678fd0d6c97b4E, symObjAddr: 0x560, symBinAddr: 0x10001C100, symSize: 0x10 }
  - { offset: 0x24D04, size: 0x8, addend: 0x0, symName: __ZN6quiche8recovery10congestion3bbr17has_custom_pacing17h6859ae5c0de527d0E, symObjAddr: 0x570, symBinAddr: 0x10001C110, symSize: 0x10 }
  - { offset: 0x24D22, size: 0x8, addend: 0x0, symName: __ZN6quiche8recovery10congestion3bbr9debug_fmt17hc7bd9b8c709aee24E, symObjAddr: 0x580, symBinAddr: 0x10001C120, symSize: 0x310 }
  - { offset: 0x24DC0, size: 0x8, addend: 0x0, symName: '__ZN87_$LT$quiche..recovery..congestion..bbr..BBRStateMachine$u20$as$u20$core..fmt..Debug$GT$3fmt17h59eba1751645bc16E', symObjAddr: 0x890, symBinAddr: 0x10001C430, symSize: 0xB0 }
  - { offset: 0x24E00, size: 0x8, addend: 0x0, symName: '__ZN91_$LT$quiche..recovery..congestion..bbr..BBRStateMachine$u20$as$u20$core..cmp..PartialEq$GT$2eq17hd819f0f4e6d8e8a3E', symObjAddr: 0x940, symBinAddr: 0x10001C4E0, symSize: 0x24 }
  - { offset: 0x26E41, size: 0x8, addend: 0x0, symName: __ZN6quiche8recovery10congestion3bbr5State3new17h854f3cf788d1ab34E, symObjAddr: 0xA0, symBinAddr: 0x10001BC40, symSize: 0x190 }
  - { offset: 0x26FD7, size: 0x8, addend: 0x0, symName: __ZN3std2io17default_write_fmt17h0484e0017d51381cE, symObjAddr: 0x0, symBinAddr: 0x10001C510, symSize: 0x120 }
  - { offset: 0x27067, size: 0x8, addend: 0x0, symName: '__ZN81_$LT$std..io..default_write_fmt..Adapter$LT$T$GT$$u20$as$u20$core..fmt..Write$GT$9write_str17h3a1e757e2840e655E', symObjAddr: 0x640, symBinAddr: 0x10001CB50, symSize: 0xA0 }
  - { offset: 0x270C3, size: 0x8, addend: 0x0, symName: '__ZN81_$LT$std..io..default_write_fmt..Adapter$LT$T$GT$$u20$as$u20$core..fmt..Write$GT$9write_str17hdc8325cc3512391fE', symObjAddr: 0x6E0, symBinAddr: 0x10001CBF0, symSize: 0x9A }
  - { offset: 0x273B5, size: 0x8, addend: 0x0, symName: __ZN3std2io17default_write_fmt17h0484e0017d51381cE, symObjAddr: 0x0, symBinAddr: 0x10001C510, symSize: 0x120 }
  - { offset: 0x27465, size: 0x8, addend: 0x0, symName: __ZN3std2io17default_write_fmt17h5870b93582079a1dE, symObjAddr: 0x120, symBinAddr: 0x10001C630, symSize: 0x120 }
  - { offset: 0x27A00, size: 0x8, addend: 0x0, symName: __ZN4core3fmt5Write10write_char17h13e99b58af347016E, symObjAddr: 0x240, symBinAddr: 0x10001C750, symSize: 0x70 }
  - { offset: 0x27A68, size: 0x8, addend: 0x0, symName: __ZN4core3fmt5Write10write_char17h9c39d8782b734d11E, symObjAddr: 0x2B0, symBinAddr: 0x10001C7C0, symSize: 0x70 }
  - { offset: 0x27AD0, size: 0x8, addend: 0x0, symName: __ZN4core3fmt5Write9write_fmt17h9558041e9a80320fE, symObjAddr: 0x320, symBinAddr: 0x10001C830, symSize: 0x20 }
  - { offset: 0x27B14, size: 0x8, addend: 0x0, symName: __ZN4core3fmt5Write9write_fmt17hd4cd251245634f50E, symObjAddr: 0x340, symBinAddr: 0x10001C850, symSize: 0x20 }
  - { offset: 0x27B62, size: 0x8, addend: 0x0, symName: '__ZN75_$LT$$RF$mut$u20$W$u20$as$u20$core..fmt..Write..write_fmt..SpecWriteFmt$GT$14spec_write_fmt17h6dbd7ed886d5470dE', symObjAddr: 0x360, symBinAddr: 0x10001C870, symSize: 0x170 }
  - { offset: 0x27C0F, size: 0x8, addend: 0x0, symName: '__ZN75_$LT$$RF$mut$u20$W$u20$as$u20$core..fmt..Write..write_fmt..SpecWriteFmt$GT$14spec_write_fmt17h766291a7ae337a10E', symObjAddr: 0x4D0, symBinAddr: 0x10001C9E0, symSize: 0x170 }
  - { offset: 0x2827E, size: 0x8, addend: 0x0, symName: '__ZN6quiche6stream8send_buf20SendReserve$LT$F$GT$10append_buf17ha4e42a7cf3a1a0ebE', symObjAddr: 0x0, symBinAddr: 0x10001CC90, symSize: 0x230 }
  - { offset: 0x28685, size: 0x8, addend: 0x0, symName: '__ZN85_$LT$quiche..stream..send_buf..SendBuf$LT$F$GT$$u20$as$u20$core..default..Default$GT$7default17h1245085abc33e6b7E', symObjAddr: 0x1E00, symBinAddr: 0x10001EA90, symSize: 0x1C2 }
  - { offset: 0x299C1, size: 0x8, addend: 0x0, symName: '__ZN6quiche6stream8send_buf20SendReserve$LT$F$GT$10append_buf17ha4e42a7cf3a1a0ebE', symObjAddr: 0x0, symBinAddr: 0x10001CC90, symSize: 0x230 }
  - { offset: 0x29A51, size: 0x8, addend: 0x0, symName: '__ZN6quiche6stream8send_buf16SendBuf$LT$F$GT$3new17h17d038e1f8aced81E', symObjAddr: 0x230, symBinAddr: 0x10001CEC0, symSize: 0x120 }
  - { offset: 0x29A7C, size: 0x8, addend: 0x0, symName: '__ZN6quiche6stream8send_buf16SendBuf$LT$F$GT$17reserve_for_write17hc5ceab6c86607556E', symObjAddr: 0x350, symBinAddr: 0x10001CFE0, symSize: 0x340 }
  - { offset: 0x29B48, size: 0x8, addend: 0x0, symName: '__ZN6quiche6stream8send_buf16SendBuf$LT$F$GT$5write17h3a7a034cd5807b8bE', symObjAddr: 0x690, symBinAddr: 0x10001D320, symSize: 0x420 }
  - { offset: 0x29D30, size: 0x8, addend: 0x0, symName: '__ZN6quiche6stream8send_buf16SendBuf$LT$F$GT$4emit17hbbbdbeeab2761dedE', symObjAddr: 0xAB0, symBinAddr: 0x10001D740, symSize: 0x570 }
  - { offset: 0x29F0E, size: 0x8, addend: 0x0, symName: '__ZN6quiche6stream8send_buf16SendBuf$LT$F$GT$15update_max_data17h66326109bbbcc5b5E', symObjAddr: 0x1020, symBinAddr: 0x10001DCB0, symSize: 0x40 }
  - { offset: 0x29F49, size: 0x8, addend: 0x0, symName: '__ZN6quiche6stream8send_buf16SendBuf$LT$F$GT$17update_blocked_at17hc9b9574f5d29b428E', symObjAddr: 0x1060, symBinAddr: 0x10001DCF0, symSize: 0x20 }
  - { offset: 0x29F91, size: 0x8, addend: 0x0, symName: '__ZN6quiche6stream8send_buf16SendBuf$LT$F$GT$10blocked_at17h0a2bb3c9c6c41c8cE', symObjAddr: 0x1080, symBinAddr: 0x10001DD10, symSize: 0x20 }
  - { offset: 0x29FBD, size: 0x8, addend: 0x0, symName: '__ZN6quiche6stream8send_buf16SendBuf$LT$F$GT$3ack17h87ebc914ea163902E', symObjAddr: 0x10A0, symBinAddr: 0x10001DD30, symSize: 0x50 }
  - { offset: 0x2A007, size: 0x8, addend: 0x0, symName: '__ZN6quiche6stream8send_buf16SendBuf$LT$F$GT$12ack_and_drop17h0e0cc575d96a56fdE', symObjAddr: 0x10F0, symBinAddr: 0x10001DD80, symSize: 0x260 }
  - { offset: 0x2A101, size: 0x8, addend: 0x0, symName: '__ZN6quiche6stream8send_buf16SendBuf$LT$F$GT$10retransmit17h10359ef88dc0a1dcE', symObjAddr: 0x1350, symBinAddr: 0x10001DFE0, symSize: 0x590 }
  - { offset: 0x2A200, size: 0x8, addend: 0x0, symName: '__ZN6quiche6stream8send_buf16SendBuf$LT$F$GT$5reset17hc7d2419cd892aec7E', symObjAddr: 0x18E0, symBinAddr: 0x10001E570, symSize: 0xE0 }
  - { offset: 0x2A28E, size: 0x8, addend: 0x0, symName: '__ZN6quiche6stream8send_buf16SendBuf$LT$F$GT$4stop17he3bbbc223b23d387E', symObjAddr: 0x19C0, symBinAddr: 0x10001E650, symSize: 0xC0 }
  - { offset: 0x2A2F7, size: 0x8, addend: 0x0, symName: '__ZN6quiche6stream8send_buf16SendBuf$LT$F$GT$8shutdown17h2e69fa63cfd68b2cE', symObjAddr: 0x1A80, symBinAddr: 0x10001E710, symSize: 0x80 }
  - { offset: 0x2A323, size: 0x8, addend: 0x0, symName: '__ZN6quiche6stream8send_buf16SendBuf$LT$F$GT$8off_back17h8e9ddd7558b46f4fE', symObjAddr: 0x1B00, symBinAddr: 0x10001E790, symSize: 0x20 }
  - { offset: 0x2A34F, size: 0x8, addend: 0x0, symName: '__ZN6quiche6stream8send_buf16SendBuf$LT$F$GT$9off_front17h6b4cf1a25ce90006E', symObjAddr: 0x1B20, symBinAddr: 0x10001E7B0, symSize: 0xC0 }
  - { offset: 0x2A3A7, size: 0x8, addend: 0x0, symName: '__ZN6quiche6stream8send_buf16SendBuf$LT$F$GT$7max_off17h4c78814e180c6d6aE', symObjAddr: 0x1BE0, symBinAddr: 0x10001E870, symSize: 0x20 }
  - { offset: 0x2A3D3, size: 0x8, addend: 0x0, symName: '__ZN6quiche6stream8send_buf16SendBuf$LT$F$GT$6is_fin17h47d7c945367e646fE', symObjAddr: 0x1C00, symBinAddr: 0x10001E890, symSize: 0x40 }
  - { offset: 0x2A3FF, size: 0x8, addend: 0x0, symName: '__ZN6quiche6stream8send_buf16SendBuf$LT$F$GT$11is_complete17h0cda27aa532243d6E', symObjAddr: 0x1C40, symBinAddr: 0x10001E8D0, symSize: 0x60 }
  - { offset: 0x2A449, size: 0x8, addend: 0x0, symName: '__ZN6quiche6stream8send_buf16SendBuf$LT$F$GT$10is_stopped17h3dea03c8292627f4E', symObjAddr: 0x1CA0, symBinAddr: 0x10001E930, symSize: 0x20 }
  - { offset: 0x2A475, size: 0x8, addend: 0x0, symName: '__ZN6quiche6stream8send_buf16SendBuf$LT$F$GT$11is_shutdown17hbd9e8cbb5a5dd04aE', symObjAddr: 0x1CC0, symBinAddr: 0x10001E950, symSize: 0x20 }
  - { offset: 0x2A4A1, size: 0x8, addend: 0x0, symName: '__ZN6quiche6stream8send_buf16SendBuf$LT$F$GT$8is_empty17h718628feca0acc16E', symObjAddr: 0x1CE0, symBinAddr: 0x10001E970, symSize: 0x20 }
  - { offset: 0x2A4CD, size: 0x8, addend: 0x0, symName: '__ZN6quiche6stream8send_buf16SendBuf$LT$F$GT$7ack_off17hb368813a87996ce7E', symObjAddr: 0x1D00, symBinAddr: 0x10001E990, symSize: 0x60 }
  - { offset: 0x2A517, size: 0x8, addend: 0x0, symName: '__ZN6quiche6stream8send_buf16SendBuf$LT$F$GT$3cap17hb7876053a691deb7E', symObjAddr: 0x1D60, symBinAddr: 0x10001E9F0, symSize: 0xA0 }
  - { offset: 0x2A5C0, size: 0x8, addend: 0x0, symName: '__ZN42_$LT$$RF$T$u20$as$u20$core..fmt..Debug$GT$3fmt17h46a3236d30d2885aE', symObjAddr: 0x0, symBinAddr: 0x10001EC60, symSize: 0x20 }
  - { offset: 0x2ABDE, size: 0x8, addend: 0x0, symName: '__ZN42_$LT$$RF$T$u20$as$u20$core..fmt..Debug$GT$3fmt17h46a3236d30d2885aE', symObjAddr: 0x0, symBinAddr: 0x10001EC60, symSize: 0x20 }
  - { offset: 0x2AC81, size: 0x8, addend: 0x0, symName: __ZN4core10intrinsics9cold_path17h3dd56d3902ab8138E, symObjAddr: 0x20, symBinAddr: 0x1003AF8E0, symSize: 0x10 }
  - { offset: 0x2ACA6, size: 0x8, addend: 0x0, symName: '__ZN67_$LT$core..array..TryFromSliceError$u20$as$u20$core..fmt..Debug$GT$3fmt17he7bdf882974982bbE', symObjAddr: 0x30, symBinAddr: 0x10001EC80, symSize: 0x43 }
  - { offset: 0x2B464, size: 0x8, addend: 0x0, symName: '__ZN4core3ops8function5impls79_$LT$impl$u20$core..ops..function..FnMut$LT$A$GT$$u20$for$u20$$RF$mut$u20$F$GT$8call_mut17h6b61c0350fa4b1e0E', symObjAddr: 0x0, symBinAddr: 0x10001ECD0, symSize: 0x30 }
  - { offset: 0x2B49E, size: 0x8, addend: 0x0, symName: '__ZN6quiche6packet94_$LT$impl$u20$core..ops..index..Index$LT$quiche..packet..Epoch$GT$$u20$for$u20$$u5b$T$u5d$$GT$5index17hf7e869ad8823292fE', symObjAddr: 0x260, symBinAddr: 0x10001EF30, symSize: 0x50 }
  - { offset: 0x2B50C, size: 0x8, addend: 0x0, symName: '__ZN6quiche6packet97_$LT$impl$u20$core..ops..index..IndexMut$LT$quiche..packet..Epoch$GT$$u20$for$u20$$u5b$T$u5d$$GT$9index_mut17haa9277119ddf70efE', symObjAddr: 0x2B0, symBinAddr: 0x10001EF80, symSize: 0x50 }
  - { offset: 0x2BAD0, size: 0x8, addend: 0x0, symName: '__ZN6quiche8recovery10congestion8recovery13RecoveryEpoch31detect_and_remove_acked_packets28_$u7b$$u7b$closure$u7d$$u7d$17h2f6f8141313c0732E', symObjAddr: 0x300, symBinAddr: 0x10001EFD0, symSize: 0x30 }
  - { offset: 0x2BB0C, size: 0x8, addend: 0x0, symName: '__ZN6quiche8recovery10congestion8recovery13RecoveryEpoch31detect_and_remove_acked_packets28_$u7b$$u7b$closure$u7d$$u7d$17hd40bf9d4bf69752eE', symObjAddr: 0x330, symBinAddr: 0x10001F000, symSize: 0x30 }
  - { offset: 0x2BB48, size: 0x8, addend: 0x0, symName: '__ZN6quiche8recovery10congestion8recovery13RecoveryEpoch31detect_and_remove_acked_packets28_$u7b$$u7b$closure$u7d$$u7d$17h6a96993ba79e429dE', symObjAddr: 0x360, symBinAddr: 0x10001F030, symSize: 0x20 }
  - { offset: 0x2BB7E, size: 0x8, addend: 0x0, symName: '__ZN6quiche8recovery10congestion8recovery13RecoveryEpoch31detect_and_remove_acked_packets28_$u7b$$u7b$closure$u7d$$u7d$17hcefbea81437416f9E', symObjAddr: 0x380, symBinAddr: 0x10001F050, symSize: 0x10 }
  - { offset: 0x2BBC8, size: 0x8, addend: 0x0, symName: '__ZN6quiche8recovery10congestion8recovery13RecoveryEpoch19detect_lost_packets28_$u7b$$u7b$closure$u7d$$u7d$17h4ed3317520fa3096E', symObjAddr: 0x390, symBinAddr: 0x10001F060, symSize: 0x20 }
  - { offset: 0x2BC05, size: 0x8, addend: 0x0, symName: '__ZN6quiche8recovery10congestion8recovery13RecoveryEpoch19detect_lost_packets28_$u7b$$u7b$closure$u7d$$u7d$17hcf997fd5a7c7dd4dE', symObjAddr: 0x3B0, symBinAddr: 0x10001F080, symSize: 0x50 }
  - { offset: 0x2BC4E, size: 0x8, addend: 0x0, symName: '__ZN6quiche8recovery10congestion8recovery14LegacyRecovery18pto_time_and_space28_$u7b$$u7b$closure$u7d$$u7d$17h7d6a6b94b7f7aa10E', symObjAddr: 0x400, symBinAddr: 0x10001F0D0, symSize: 0x40 }
  - { offset: 0x2BC99, size: 0x8, addend: 0x0, symName: '__ZN104_$LT$quiche..recovery..congestion..recovery..LegacyRecovery$u20$as$u20$quiche..recovery..RecoveryOps$GT$25on_loss_detection_timeout28_$u7b$$u7b$closure$u7d$$u7d$17hd71c5e0d02b68990E', symObjAddr: 0x440, symBinAddr: 0x10001F110, symSize: 0x60 }
  - { offset: 0x2BCDF, size: 0x8, addend: 0x0, symName: '__ZN104_$LT$quiche..recovery..congestion..recovery..LegacyRecovery$u20$as$u20$quiche..recovery..RecoveryOps$GT$26on_pkt_num_space_discarded28_$u7b$$u7b$closure$u7d$$u7d$17ha5d9a2e0546dd310E', symObjAddr: 0x4A0, symBinAddr: 0x10001F170, symSize: 0x60 }
  - { offset: 0x2BD18, size: 0x8, addend: 0x0, symName: '__ZN104_$LT$quiche..recovery..congestion..recovery..LegacyRecovery$u20$as$u20$quiche..recovery..RecoveryOps$GT$26on_pkt_num_space_discarded28_$u7b$$u7b$closure$u7d$$u7d$17h14f05104ef6e21baE', symObjAddr: 0x500, symBinAddr: 0x10001F1D0, symSize: 0x40 }
  - { offset: 0x2BD74, size: 0x8, addend: 0x0, symName: '__ZN104_$LT$quiche..recovery..congestion..recovery..LegacyRecovery$u20$as$u20$quiche..recovery..RecoveryOps$GT$14cwnd_available28_$u7b$$u7b$closure$u7d$$u7d$17h9b91018aad101ef0E', symObjAddr: 0x540, symBinAddr: 0x10001F210, symSize: 0x1B }
  - { offset: 0x2CC06, size: 0x8, addend: 0x0, symName: '__ZN4core3ops8function5impls79_$LT$impl$u20$core..ops..function..FnMut$LT$A$GT$$u20$for$u20$$RF$mut$u20$F$GT$8call_mut17h6b61c0350fa4b1e0E', symObjAddr: 0x0, symBinAddr: 0x10001ECD0, symSize: 0x30 }
  - { offset: 0x2CC55, size: 0x8, addend: 0x0, symName: '__ZN4core3ops8function5impls79_$LT$impl$u20$core..ops..function..FnMut$LT$A$GT$$u20$for$u20$$RF$mut$u20$F$GT$8call_mut17hc7bf40a3d262d4b4E', symObjAddr: 0x30, symBinAddr: 0x10001ED00, symSize: 0x30 }
  - { offset: 0x2CCE2, size: 0x8, addend: 0x0, symName: '__ZN4core5array75_$LT$impl$u20$core..default..Default$u20$for$u20$$u5b$T$u3b$$u20$3$u5d$$GT$7default17h32bc4d3e2e134768E', symObjAddr: 0x60, symBinAddr: 0x10001ED30, symSize: 0xF0 }
  - { offset: 0x2CD10, size: 0x8, addend: 0x0, symName: '__ZN4core5array85_$LT$impl$u20$core..ops..index..Index$LT$I$GT$$u20$for$u20$$u5b$T$u3b$$u20$N$u5d$$GT$5index17he907c4022773b523E', symObjAddr: 0x150, symBinAddr: 0x10001EE20, symSize: 0x30 }
  - { offset: 0x2CD65, size: 0x8, addend: 0x0, symName: '__ZN4core5array88_$LT$impl$u20$core..ops..index..IndexMut$LT$I$GT$$u20$for$u20$$u5b$T$u3b$$u20$N$u5d$$GT$9index_mut17hf1bba4c838d7fdb0E', symObjAddr: 0x180, symBinAddr: 0x10001EE50, symSize: 0x30 }
  - { offset: 0x2CDC0, size: 0x8, addend: 0x0, symName: '__ZN4core5slice29_$LT$impl$u20$$u5b$T$u5d$$GT$4iter17had4bce03342d6f36E', symObjAddr: 0x1B0, symBinAddr: 0x10001EE80, symSize: 0x20 }
  - { offset: 0x2CDF7, size: 0x8, addend: 0x0, symName: '__ZN4core5slice29_$LT$impl$u20$$u5b$T$u5d$$GT$4iter17hc142a8d643926adcE', symObjAddr: 0x1D0, symBinAddr: 0x10001EEA0, symSize: 0x20 }
  - { offset: 0x2CE2E, size: 0x8, addend: 0x0, symName: '__ZN4core5slice29_$LT$impl$u20$$u5b$T$u5d$$GT$4last17hcaedc14c5c06a73fE', symObjAddr: 0x1F0, symBinAddr: 0x10001EEC0, symSize: 0x50 }
  - { offset: 0x2CF7D, size: 0x8, addend: 0x0, symName: '__ZN50_$LT$$RF$mut$u20$T$u20$as$u20$core..fmt..Debug$GT$3fmt17h2b32bb65e1d00e12E', symObjAddr: 0x240, symBinAddr: 0x10001EF10, symSize: 0x20 }
  - { offset: 0x2E1C4, size: 0x8, addend: 0x0, symName: '__ZN103_$LT$alloc..vec..into_iter..IntoIter$LT$T$C$A$GT$$u20$as$u20$core..iter..traits..iterator..Iterator$GT$4next17h2aa12687123b203dE', symObjAddr: 0x0, symBinAddr: 0x10001F230, symSize: 0x100 }
  - { offset: 0x2F39B, size: 0x8, addend: 0x0, symName: __ZN4core4iter6traits10exact_size17ExactSizeIterator3len17h1c2167638658651cE, symObjAddr: 0x6B0, symBinAddr: 0x10001F8E0, symSize: 0xE0 }
  - { offset: 0x2F497, size: 0x8, addend: 0x0, symName: __ZN4core4iter6traits10exact_size17ExactSizeIterator3len17h1c96a6aa3c701f57E, symObjAddr: 0x790, symBinAddr: 0x10001F9C0, symSize: 0xE0 }
  - { offset: 0x2F593, size: 0x8, addend: 0x0, symName: __ZN4core4iter6traits10exact_size17ExactSizeIterator3len17h4fda80a7a069d6ecE, symObjAddr: 0x870, symBinAddr: 0x10001FAA0, symSize: 0xE0 }
  - { offset: 0x2F68F, size: 0x8, addend: 0x0, symName: __ZN4core4iter6traits10exact_size17ExactSizeIterator3len17hbee785a6329227abE, symObjAddr: 0x950, symBinAddr: 0x10001FB80, symSize: 0xE0 }
  - { offset: 0x2F78B, size: 0x8, addend: 0x0, symName: __ZN4core4iter6traits10exact_size17ExactSizeIterator3len17heb7240bf5c6295c5E, symObjAddr: 0xA30, symBinAddr: 0x10001FC60, symSize: 0xDD }
  - { offset: 0x2F96B, size: 0x8, addend: 0x0, symName: '__ZN103_$LT$alloc..vec..into_iter..IntoIter$LT$T$C$A$GT$$u20$as$u20$core..iter..traits..iterator..Iterator$GT$4next17h2aa12687123b203dE', symObjAddr: 0x0, symBinAddr: 0x10001F230, symSize: 0x100 }
  - { offset: 0x2FAC9, size: 0x8, addend: 0x0, symName: '__ZN103_$LT$alloc..vec..into_iter..IntoIter$LT$T$C$A$GT$$u20$as$u20$core..iter..traits..iterator..Iterator$GT$4next17h2cac23892f0ea97dE', symObjAddr: 0x100, symBinAddr: 0x10001F330, symSize: 0x100 }
  - { offset: 0x2FC27, size: 0x8, addend: 0x0, symName: '__ZN103_$LT$alloc..vec..into_iter..IntoIter$LT$T$C$A$GT$$u20$as$u20$core..iter..traits..iterator..Iterator$GT$4next17h3e54324ab022d1e0E', symObjAddr: 0x200, symBinAddr: 0x10001F430, symSize: 0xC0 }
  - { offset: 0x2FD85, size: 0x8, addend: 0x0, symName: '__ZN103_$LT$alloc..vec..into_iter..IntoIter$LT$T$C$A$GT$$u20$as$u20$core..iter..traits..iterator..Iterator$GT$4next17hd05650a4cce2bf86E', symObjAddr: 0x2C0, symBinAddr: 0x10001F4F0, symSize: 0xC0 }
  - { offset: 0x2FEE3, size: 0x8, addend: 0x0, symName: '__ZN103_$LT$alloc..vec..into_iter..IntoIter$LT$T$C$A$GT$$u20$as$u20$core..iter..traits..iterator..Iterator$GT$4next17hf62de86c9dc4fecaE', symObjAddr: 0x380, symBinAddr: 0x10001F5B0, symSize: 0x100 }
  - { offset: 0x30041, size: 0x8, addend: 0x0, symName: '__ZN103_$LT$alloc..vec..into_iter..IntoIter$LT$T$C$A$GT$$u20$as$u20$core..iter..traits..iterator..Iterator$GT$9size_hint17h075e9c9b5a13a3d4E', symObjAddr: 0x480, symBinAddr: 0x10001F6B0, symSize: 0x70 }
  - { offset: 0x3009C, size: 0x8, addend: 0x0, symName: '__ZN103_$LT$alloc..vec..into_iter..IntoIter$LT$T$C$A$GT$$u20$as$u20$core..iter..traits..iterator..Iterator$GT$9size_hint17h1241e4d628e846e2E', symObjAddr: 0x4F0, symBinAddr: 0x10001F720, symSize: 0x70 }
  - { offset: 0x300F7, size: 0x8, addend: 0x0, symName: '__ZN103_$LT$alloc..vec..into_iter..IntoIter$LT$T$C$A$GT$$u20$as$u20$core..iter..traits..iterator..Iterator$GT$9size_hint17h66091cbefe97851dE', symObjAddr: 0x560, symBinAddr: 0x10001F790, symSize: 0x70 }
  - { offset: 0x30152, size: 0x8, addend: 0x0, symName: '__ZN103_$LT$alloc..vec..into_iter..IntoIter$LT$T$C$A$GT$$u20$as$u20$core..iter..traits..iterator..Iterator$GT$9size_hint17h6ffec8593ac2fe09E', symObjAddr: 0x5D0, symBinAddr: 0x10001F800, symSize: 0x70 }
  - { offset: 0x301AD, size: 0x8, addend: 0x0, symName: '__ZN103_$LT$alloc..vec..into_iter..IntoIter$LT$T$C$A$GT$$u20$as$u20$core..iter..traits..iterator..Iterator$GT$9size_hint17hab290374161530e2E', symObjAddr: 0x640, symBinAddr: 0x10001F870, symSize: 0x70 }
  - { offset: 0x310EC, size: 0x8, addend: 0x0, symName: '__ZN3std4hash6random11RandomState3new28_$u7b$$u7b$closure$u7d$$u7d$17h71425d3323dae7dfE', symObjAddr: 0x0, symBinAddr: 0x10001FD40, symSize: 0x20 }
  - { offset: 0x31209, size: 0x8, addend: 0x0, symName: __ZN4core4hash11BuildHasher8hash_one17ha1d6645c10c90b95E, symObjAddr: 0x50, symBinAddr: 0x10001FD90, symSize: 0x80 }
  - { offset: 0x31276, size: 0x8, addend: 0x0, symName: __ZN4core4hash6Hasher9write_u6417hf1f9c37d14fb2f28E, symObjAddr: 0xD0, symBinAddr: 0x10001FE10, symSize: 0x28 }
  - { offset: 0x3151B, size: 0x8, addend: 0x0, symName: '__ZN3std4hash6random11RandomState3new28_$u7b$$u7b$closure$u7d$$u7d$17h71425d3323dae7dfE', symObjAddr: 0x0, symBinAddr: 0x10001FD40, symSize: 0x20 }
  - { offset: 0x315DC, size: 0x8, addend: 0x0, symName: '__ZN3std4hash6random11RandomState3new4KEYS29_$u7b$$u7b$constant$u7d$$u7d$28_$u7b$$u7b$closure$u7d$$u7d$17he41f5abbdd591cadE', symObjAddr: 0x20, symBinAddr: 0x10001FD60, symSize: 0x30 }
  - { offset: 0x316EB, size: 0x8, addend: 0x0, symName: __ZN4core3cmp9PartialEq2ne17h3a2386725f50882dE, symObjAddr: 0x0, symBinAddr: 0x10001FE40, symSize: 0x20 }
  - { offset: 0x351BA, size: 0x8, addend: 0x0, symName: __ZN4core3cmp9PartialEq2ne17h3a2386725f50882dE, symObjAddr: 0x0, symBinAddr: 0x10001FE40, symSize: 0x20 }
  - { offset: 0x35210, size: 0x8, addend: 0x0, symName: __ZN4core3mem12discriminant17hcb6f5822dab80e0aE, symObjAddr: 0x20, symBinAddr: 0x10001FE60, symSize: 0x20 }
  - { offset: 0x35247, size: 0x8, addend: 0x0, symName: __ZN4core3mem4drop17h13fc2dd31ee4c83dE, symObjAddr: 0x40, symBinAddr: 0x10001FE80, symSize: 0x20 }
  - { offset: 0x3527A, size: 0x8, addend: 0x0, symName: __ZN4core3mem4drop17h46b6a65cafb99991E, symObjAddr: 0x60, symBinAddr: 0x10001FEA0, symSize: 0x10 }
  - { offset: 0x352AE, size: 0x8, addend: 0x0, symName: __ZN4core3mem4drop17h487110631c22109fE, symObjAddr: 0x70, symBinAddr: 0x10001FEB0, symSize: 0x20 }
  - { offset: 0x352E1, size: 0x8, addend: 0x0, symName: __ZN4core3mem4drop17h4a656afba2722ee0E, symObjAddr: 0x90, symBinAddr: 0x10001FED0, symSize: 0x20 }
  - { offset: 0x35314, size: 0x8, addend: 0x0, symName: __ZN4core3mem4drop17h5027e37485ef6350E, symObjAddr: 0xB0, symBinAddr: 0x10001FEF0, symSize: 0x20 }
  - { offset: 0x35347, size: 0x8, addend: 0x0, symName: __ZN4core3mem4drop17h509c297a197ce248E, symObjAddr: 0xD0, symBinAddr: 0x10001FF10, symSize: 0x10 }
  - { offset: 0x3537B, size: 0x8, addend: 0x0, symName: __ZN4core3mem4drop17h8814b1373e2cf95fE, symObjAddr: 0xE0, symBinAddr: 0x10001FF20, symSize: 0x20 }
  - { offset: 0x353AE, size: 0x8, addend: 0x0, symName: __ZN4core3mem4drop17h8b2c10c4b0408d58E, symObjAddr: 0x100, symBinAddr: 0x10001FF40, symSize: 0x10 }
  - { offset: 0x353E2, size: 0x8, addend: 0x0, symName: __ZN4core3mem4drop17h92e059afad8cd2f1E, symObjAddr: 0x110, symBinAddr: 0x10001FF50, symSize: 0x20 }
  - { offset: 0x35415, size: 0x8, addend: 0x0, symName: __ZN4core3mem4drop17h94cdb3ef05e6c965E, symObjAddr: 0x130, symBinAddr: 0x10001FF70, symSize: 0x20 }
  - { offset: 0x35448, size: 0x8, addend: 0x0, symName: __ZN4core3mem4drop17h9c88c54867fbad7dE, symObjAddr: 0x150, symBinAddr: 0x10001FF90, symSize: 0x20 }
  - { offset: 0x3547B, size: 0x8, addend: 0x0, symName: __ZN4core3mem4drop17hafa9d01539769fa0E, symObjAddr: 0x170, symBinAddr: 0x10001FFB0, symSize: 0x10 }
  - { offset: 0x354AF, size: 0x8, addend: 0x0, symName: __ZN4core3mem4drop17hb514e0120049dc2bE, symObjAddr: 0x180, symBinAddr: 0x10001FFC0, symSize: 0x20 }
  - { offset: 0x354E2, size: 0x8, addend: 0x0, symName: __ZN4core3mem4drop17he86849eb8b6cae96E, symObjAddr: 0x1A0, symBinAddr: 0x10001FFE0, symSize: 0x10 }
  - { offset: 0x35516, size: 0x8, addend: 0x0, symName: __ZN4core3mem4drop17hf46e7e9e2b59a7c3E, symObjAddr: 0x1B0, symBinAddr: 0x10001FFF0, symSize: 0x10 }
  - { offset: 0x3595E, size: 0x8, addend: 0x0, symName: __ZN4core3mem4take17h1dc38bf7fa0dc329E, symObjAddr: 0x1C0, symBinAddr: 0x100020000, symSize: 0x60 }
  - { offset: 0x359EE, size: 0x8, addend: 0x0, symName: __ZN4core3mem4take17h20a7c90bd8e271d4E, symObjAddr: 0x220, symBinAddr: 0x100020060, symSize: 0x50 }
  - { offset: 0x35A7F, size: 0x8, addend: 0x0, symName: __ZN4core3mem4take17h48b400390f377dcfE, symObjAddr: 0x270, symBinAddr: 0x1000200B0, symSize: 0x70 }
  - { offset: 0x35B0F, size: 0x8, addend: 0x0, symName: __ZN4core3mem4take17h7d60f34ff03968e4E, symObjAddr: 0x2E0, symBinAddr: 0x100020120, symSize: 0x60 }
  - { offset: 0x35B9F, size: 0x8, addend: 0x0, symName: __ZN4core3mem4take17hb171e9bd00722eb1E, symObjAddr: 0x340, symBinAddr: 0x100020180, symSize: 0x70 }
  - { offset: 0x35C30, size: 0x8, addend: 0x0, symName: __ZN4core3mem4take17hbe5e458b6e59e9e8E, symObjAddr: 0x3B0, symBinAddr: 0x1000201F0, symSize: 0x70 }
  - { offset: 0x35C8E, size: 0x8, addend: 0x0, symName: __ZN4core3mem6forget17h28248ddb1454b0d7E, symObjAddr: 0x420, symBinAddr: 0x100020260, symSize: 0x10 }
  - { offset: 0x35CBF, size: 0x8, addend: 0x0, symName: __ZN4core3mem6forget17h629c910ca4603025E, symObjAddr: 0x430, symBinAddr: 0x100020270, symSize: 0x20 }
  - { offset: 0x35CF0, size: 0x8, addend: 0x0, symName: __ZN4core3mem7replace17h069a6bc9f5f40f0bE, symObjAddr: 0x450, symBinAddr: 0x100020290, symSize: 0x20 }
  - { offset: 0x35D36, size: 0x8, addend: 0x0, symName: __ZN4core3mem7replace17hdf01a548675ae39aE, symObjAddr: 0x470, symBinAddr: 0x1000202B0, symSize: 0x50 }
  - { offset: 0x35D7D, size: 0x8, addend: 0x0, symName: __ZN4core3mem7replace17heb85f21d42baa8bbE, symObjAddr: 0x4C0, symBinAddr: 0x100020300, symSize: 0x50 }
  - { offset: 0x35DC9, size: 0x8, addend: 0x0, symName: '__ZN73_$LT$core..mem..Discriminant$LT$T$GT$$u20$as$u20$core..cmp..PartialEq$GT$2eq17hd24785cfd7991717E', symObjAddr: 0x510, symBinAddr: 0x100020350, symSize: 0x1D }
  - { offset: 0x39350, size: 0x8, addend: 0x0, symName: __ZN6quiche6ranges8RangeSet3new17h40a76cfcbd13e710E, symObjAddr: 0x0, symBinAddr: 0x100020370, symSize: 0x90 }
  - { offset: 0x39599, size: 0x8, addend: 0x0, symName: '__ZN67_$LT$quiche..ranges..RangeSet$u20$as$u20$core..default..Default$GT$7default17he978c03720bc6121E', symObjAddr: 0x1330, symBinAddr: 0x1000216A0, symSize: 0x80 }
  - { offset: 0x395BD, size: 0x8, addend: 0x0, symName: '__ZN107_$LT$quiche..ranges..RangeSet$u20$as$u20$core..cmp..PartialEq$LT$core..ops..range..Range$LT$u64$GT$$GT$$GT$2eq17h779fbb743ee9c3e0E', symObjAddr: 0x13B0, symBinAddr: 0x100021720, symSize: 0xC0 }
  - { offset: 0x3963E, size: 0x8, addend: 0x0, symName: '__ZN61_$LT$quiche..ranges..RangeSet$u20$as$u20$core..fmt..Debug$GT$3fmt17h165a19252b42b2f8E', symObjAddr: 0x1470, symBinAddr: 0x1000217E0, symSize: 0x100 }
  - { offset: 0x396B1, size: 0x8, addend: 0x0, symName: __ZN6quiche6ranges14range_overlaps17h400d3cd074f5165eE, symObjAddr: 0x1570, symBinAddr: 0x1000218E0, symSize: 0x70 }
  - { offset: 0x396F3, size: 0x8, addend: 0x0, symName: '__ZN63_$LT$quiche..ranges..RangeSet$u20$as$u20$core..clone..Clone$GT$5clone17h7c4e3cfe89d7f0a6E', symObjAddr: 0x15E0, symBinAddr: 0x100021950, symSize: 0xD0 }
  - { offset: 0x3975F, size: 0x8, addend: 0x0, symName: '__ZN69_$LT$quiche..ranges..InlineRangeSet$u20$as$u20$core..clone..Clone$GT$5clone17h0db7bee833d9838dE', symObjAddr: 0x16B0, symBinAddr: 0x100021A20, symSize: 0x60 }
  - { offset: 0x39791, size: 0x8, addend: 0x0, symName: '__ZN68_$LT$quiche..ranges..BTreeRangeSet$u20$as$u20$core..clone..Clone$GT$5clone17hd31405cbe78f6d98E', symObjAddr: 0x1710, symBinAddr: 0x100021A80, symSize: 0x52 }
  - { offset: 0x3A7A0, size: 0x8, addend: 0x0, symName: __ZN6quiche6ranges8RangeSet3new17h40a76cfcbd13e710E, symObjAddr: 0x0, symBinAddr: 0x100020370, symSize: 0x90 }
  - { offset: 0x3A7CF, size: 0x8, addend: 0x0, symName: __ZN6quiche6ranges8RangeSet3len17h22cd2e395f05ecbfE, symObjAddr: 0x90, symBinAddr: 0x100020400, symSize: 0x50 }
  - { offset: 0x3A8CE, size: 0x8, addend: 0x0, symName: __ZN6quiche6ranges8RangeSet6insert17h39fb0eb2b73c01b5E, symObjAddr: 0xE0, symBinAddr: 0x100020450, symSize: 0x340 }
  - { offset: 0x3AB1F, size: 0x8, addend: 0x0, symName: __ZN6quiche6ranges8RangeSet4iter17h31944a4c5c4a03b7E, symObjAddr: 0x420, symBinAddr: 0x100020790, symSize: 0xD0 }
  - { offset: 0x3AB7B, size: 0x8, addend: 0x0, symName: __ZN6quiche6ranges8RangeSet7flatten17h86654ac2e0750809E, symObjAddr: 0x4F0, symBinAddr: 0x100020860, symSize: 0xE0 }
  - { offset: 0x3ABD7, size: 0x8, addend: 0x0, symName: __ZN6quiche6ranges8RangeSet5first17h56b7d9415ef08cfcE, symObjAddr: 0x5D0, symBinAddr: 0x100020940, symSize: 0x80 }
  - { offset: 0x3AC33, size: 0x8, addend: 0x0, symName: __ZN6quiche6ranges8RangeSet4last17h4f17f2a297fdd864E, symObjAddr: 0x650, symBinAddr: 0x1000209C0, symSize: 0x80 }
  - { offset: 0x3AC8F, size: 0x8, addend: 0x0, symName: __ZN6quiche6ranges8RangeSet12remove_until17h32ca27074fdb1030E, symObjAddr: 0x6D0, symBinAddr: 0x100020A40, symSize: 0x320 }
  - { offset: 0x3AD86, size: 0x8, addend: 0x0, symName: __ZN6quiche6ranges8RangeSet9push_item17h9564cb905dbb8e62E, symObjAddr: 0x9F0, symBinAddr: 0x100020D60, symSize: 0x50 }
  - { offset: 0x3ADB6, size: 0x8, addend: 0x0, symName: __ZN6quiche6ranges14InlineRangeSet6insert17he525902c5e0d2c03E, symObjAddr: 0xA40, symBinAddr: 0x100020DB0, symSize: 0x300 }
  - { offset: 0x3AE95, size: 0x8, addend: 0x0, symName: __ZN6quiche6ranges14InlineRangeSet12remove_until17h3072fe6749718c72E, symObjAddr: 0xD40, symBinAddr: 0x1000210B0, symSize: 0xF0 }
  - { offset: 0x3AEE9, size: 0x8, addend: 0x0, symName: __ZN6quiche6ranges13BTreeRangeSet6insert17hf557616ca95f4f66E, symObjAddr: 0xE30, symBinAddr: 0x1000211A0, symSize: 0x1C0 }
  - { offset: 0x3AF77, size: 0x8, addend: 0x0, symName: __ZN6quiche6ranges13BTreeRangeSet12remove_until17h0e36e30dc75472beE, symObjAddr: 0xFF0, symBinAddr: 0x100021360, symSize: 0x200 }
  - { offset: 0x3B011, size: 0x8, addend: 0x0, symName: __ZN6quiche6ranges13BTreeRangeSet7prev_to17h2fea76ab22f5e094E, symObjAddr: 0x11F0, symBinAddr: 0x100021560, symSize: 0xA0 }
  - { offset: 0x3B043, size: 0x8, addend: 0x0, symName: __ZN6quiche6ranges13BTreeRangeSet7next_to17hd08f25a350e489f3E, symObjAddr: 0x1290, symBinAddr: 0x100021600, symSize: 0xA0 }
  - { offset: 0x3B1D4, size: 0x8, addend: 0x0, symName: '__ZN4core5slice29_$LT$impl$u20$$u5b$T$u5d$$GT$12chunks_exact17h172ed3c2edd8d6f6E', symObjAddr: 0x0, symBinAddr: 0x100021AE0, symSize: 0x160 }
  - { offset: 0x3BDF2, size: 0x8, addend: 0x0, symName: '__ZN4core5slice29_$LT$impl$u20$$u5b$T$u5d$$GT$12chunks_exact17h172ed3c2edd8d6f6E', symObjAddr: 0x0, symBinAddr: 0x100021AE0, symSize: 0x160 }
  - { offset: 0x3BEBD, size: 0x8, addend: 0x0, symName: '__ZN4core5slice29_$LT$impl$u20$$u5b$T$u5d$$GT$15partition_point28_$u7b$$u7b$closure$u7d$$u7d$17he9a6bc18b60345b7E', symObjAddr: 0x160, symBinAddr: 0x100021C40, symSize: 0x30 }
  - { offset: 0x3BF37, size: 0x8, addend: 0x0, symName: '__ZN4core5slice29_$LT$impl$u20$$u5b$T$u5d$$GT$18split_at_unchecked17h23d98ea3fbd09bd0E', symObjAddr: 0x190, symBinAddr: 0x100021C70, symSize: 0xF0 }
  - { offset: 0x3C0B8, size: 0x8, addend: 0x0, symName: '__ZN4core5slice29_$LT$impl$u20$$u5b$T$u5d$$GT$18split_at_unchecked17hda059b1b4140de7aE', symObjAddr: 0x280, symBinAddr: 0x100021D60, symSize: 0xF0 }
  - { offset: 0x3C239, size: 0x8, addend: 0x0, symName: '__ZN4core5slice29_$LT$impl$u20$$u5b$T$u5d$$GT$22split_at_mut_unchecked17h6be93e00f792e3fcE', symObjAddr: 0x370, symBinAddr: 0x100021E50, symSize: 0x120 }
  - { offset: 0x3C38D, size: 0x8, addend: 0x0, symName: '__ZN4core5slice29_$LT$impl$u20$$u5b$T$u5d$$GT$3get17h30d14e2c1ab10c4aE', symObjAddr: 0x490, symBinAddr: 0x100021F70, symSize: 0x30 }
  - { offset: 0x3C3DC, size: 0x8, addend: 0x0, symName: '__ZN4core5slice29_$LT$impl$u20$$u5b$T$u5d$$GT$3get17h6114498e5a9c5642E', symObjAddr: 0x4C0, symBinAddr: 0x100021FA0, symSize: 0x30 }
  - { offset: 0x3C42B, size: 0x8, addend: 0x0, symName: '__ZN4core5slice29_$LT$impl$u20$$u5b$T$u5d$$GT$4fill17h0565fc7b00d150b2E', symObjAddr: 0x4F0, symBinAddr: 0x100021FD0, symSize: 0x30 }
  - { offset: 0x3C46D, size: 0x8, addend: 0x0, symName: '__ZN4core5slice29_$LT$impl$u20$$u5b$T$u5d$$GT$4iter17h089ebb230b074656E', symObjAddr: 0x520, symBinAddr: 0x100022000, symSize: 0x20 }
  - { offset: 0x3C4A4, size: 0x8, addend: 0x0, symName: '__ZN4core5slice29_$LT$impl$u20$$u5b$T$u5d$$GT$4iter17h2766f7ce54f3130eE', symObjAddr: 0x540, symBinAddr: 0x100022020, symSize: 0x20 }
  - { offset: 0x3C4DB, size: 0x8, addend: 0x0, symName: '__ZN4core5slice29_$LT$impl$u20$$u5b$T$u5d$$GT$4iter17ha3a0f3a44a49c689E', symObjAddr: 0x560, symBinAddr: 0x100022040, symSize: 0x20 }
  - { offset: 0x3C512, size: 0x8, addend: 0x0, symName: '__ZN4core5slice29_$LT$impl$u20$$u5b$T$u5d$$GT$4iter17had329091d894958bE', symObjAddr: 0x580, symBinAddr: 0x100022060, symSize: 0x20 }
  - { offset: 0x3C549, size: 0x8, addend: 0x0, symName: '__ZN4core5slice29_$LT$impl$u20$$u5b$T$u5d$$GT$4iter17hd1a17a10226c0837E', symObjAddr: 0x5A0, symBinAddr: 0x100022080, symSize: 0x20 }
  - { offset: 0x3C580, size: 0x8, addend: 0x0, symName: '__ZN4core5slice29_$LT$impl$u20$$u5b$T$u5d$$GT$4iter17hdce7bb14a689d2bbE', symObjAddr: 0x5C0, symBinAddr: 0x1000220A0, symSize: 0x20 }
  - { offset: 0x3C5B7, size: 0x8, addend: 0x0, symName: '__ZN4core5slice29_$LT$impl$u20$$u5b$T$u5d$$GT$4last17h3e6b3fcfe2d0e79cE', symObjAddr: 0x5E0, symBinAddr: 0x1000220C0, symSize: 0x50 }
  - { offset: 0x3C604, size: 0x8, addend: 0x0, symName: '__ZN4core5slice29_$LT$impl$u20$$u5b$T$u5d$$GT$5first17h495a02e9e9dd3816E', symObjAddr: 0x630, symBinAddr: 0x100022110, symSize: 0x40 }
  - { offset: 0x3C64E, size: 0x8, addend: 0x0, symName: '__ZN4core5slice29_$LT$impl$u20$$u5b$T$u5d$$GT$5first17h84718cd976a5b91aE', symObjAddr: 0x670, symBinAddr: 0x100022150, symSize: 0x40 }
  - { offset: 0x3C698, size: 0x8, addend: 0x0, symName: '__ZN4core5slice29_$LT$impl$u20$$u5b$T$u5d$$GT$6chunks17h2f48ab5810d8d003E', symObjAddr: 0x6B0, symBinAddr: 0x100022190, symSize: 0xB0 }
  - { offset: 0x3C71A, size: 0x8, addend: 0x0, symName: '__ZN4core5slice29_$LT$impl$u20$$u5b$T$u5d$$GT$7get_mut17he5ed66d16faa3e56E', symObjAddr: 0x760, symBinAddr: 0x100022240, symSize: 0x30 }
  - { offset: 0x3C7B7, size: 0x8, addend: 0x0, symName: '__ZN4core5slice29_$LT$impl$u20$$u5b$T$u5d$$GT$7reverse17h794d776493fa0265E', symObjAddr: 0x790, symBinAddr: 0x100022270, symSize: 0x100 }
  - { offset: 0x3C9F5, size: 0x8, addend: 0x0, symName: '__ZN4core5slice29_$LT$impl$u20$$u5b$T$u5d$$GT$7reverse7revswap17h43abf8aaf8817c3dE', symObjAddr: 0x890, symBinAddr: 0x100022370, symSize: 0x310 }
  - { offset: 0x3CB64, size: 0x8, addend: 0x0, symName: '__ZN4core5slice29_$LT$impl$u20$$u5b$T$u5d$$GT$8contains17h2de9044b1ee633f1E', symObjAddr: 0xBA0, symBinAddr: 0x100022680, symSize: 0x30 }
  - { offset: 0x3CBAA, size: 0x8, addend: 0x0, symName: '__ZN4core5slice29_$LT$impl$u20$$u5b$T$u5d$$GT$8is_empty17hc8e91c0e4c7e5337E', symObjAddr: 0xBD0, symBinAddr: 0x1000226B0, symSize: 0x20 }
  - { offset: 0x3CBDF, size: 0x8, addend: 0x0, symName: '__ZN4core5slice29_$LT$impl$u20$$u5b$T$u5d$$GT$8iter_mut17hef481b6169f61f0aE', symObjAddr: 0xBF0, symBinAddr: 0x1000226D0, symSize: 0x20 }
  - { offset: 0x3CC16, size: 0x8, addend: 0x0, symName: '__ZN4core5slice29_$LT$impl$u20$$u5b$T$u5d$$GT$9first_mut17h3163b20edceab288E', symObjAddr: 0xC10, symBinAddr: 0x1000226F0, symSize: 0x32 }
  - { offset: 0x3D504, size: 0x8, addend: 0x0, symName: '__ZN42_$LT$$RF$T$u20$as$u20$core..fmt..Debug$GT$3fmt17h1df7b15aee37a312E', symObjAddr: 0x0, symBinAddr: 0x100022730, symSize: 0x20 }
  - { offset: 0x3D580, size: 0x8, addend: 0x0, symName: __ZN4core3cmp10PartialOrd2ge17h3fa74a40c14f5149E, symObjAddr: 0xC0, symBinAddr: 0x1000227F0, symSize: 0x50 }
  - { offset: 0x3D63E, size: 0x8, addend: 0x0, symName: __ZN4core3cmp10PartialOrd2gt17h0247bc6165806421E, symObjAddr: 0x110, symBinAddr: 0x100022840, symSize: 0x50 }
  - { offset: 0x3D6FC, size: 0x8, addend: 0x0, symName: __ZN4core3cmp10PartialOrd2lt17hb180dcbf32965655E, symObjAddr: 0x160, symBinAddr: 0x100022890, symSize: 0x50 }
  - { offset: 0x3D7C0, size: 0x8, addend: 0x0, symName: __ZN4core3cmp3Ord3max17h4147522045654832E, symObjAddr: 0x1B0, symBinAddr: 0x1000228E0, symSize: 0x80 }
  - { offset: 0x3D806, size: 0x8, addend: 0x0, symName: __ZN4core3cmp3Ord3min17hda47617fd3b62299E, symObjAddr: 0x230, symBinAddr: 0x100022960, symSize: 0x80 }
  - { offset: 0x3D858, size: 0x8, addend: 0x0, symName: '__ZN42_$LT$$RF$T$u20$as$u20$core..fmt..Debug$GT$3fmt17h1df7b15aee37a312E', symObjAddr: 0x0, symBinAddr: 0x100022730, symSize: 0x20 }
  - { offset: 0x3D89E, size: 0x8, addend: 0x0, symName: '__ZN42_$LT$$RF$T$u20$as$u20$core..fmt..Debug$GT$3fmt17h76e9acfc418e8727E', symObjAddr: 0x20, symBinAddr: 0x100022750, symSize: 0x20 }
  - { offset: 0x3D91D, size: 0x8, addend: 0x0, symName: '__ZN48_$LT$$u5b$T$u5d$$u20$as$u20$core..fmt..Debug$GT$3fmt17h22bb1c63ba50b736E', symObjAddr: 0x40, symBinAddr: 0x100022770, symSize: 0x80 }
  - { offset: 0x3DE0C, size: 0x8, addend: 0x0, symName: '__ZN4core5array69_$LT$impl$u20$core..fmt..Debug$u20$for$u20$$u5b$T$u3b$$u20$N$u5d$$GT$3fmt17h5eca2167715cc268E', symObjAddr: 0x2B0, symBinAddr: 0x1000229E0, symSize: 0x50 }
  - { offset: 0x3DF5C, size: 0x8, addend: 0x0, symName: '__ZN80_$LT$quiche..recovery..bandwidth..Bandwidth$u20$as$u20$core..ops..arith..Sub$GT$3sub28_$u7b$$u7b$closure$u7d$$u7d$17ha826a34f05396a04E', symObjAddr: 0x300, symBinAddr: 0x100022A30, symSize: 0xD }
  - { offset: 0x3E2BF, size: 0x8, addend: 0x0, symName: '__ZN4core5slice29_$LT$impl$u20$$u5b$T$u5d$$GT$8iter_mut17h39c18e8050d5d7baE', symObjAddr: 0x0, symBinAddr: 0x100022A40, symSize: 0x20 }
  - { offset: 0x3E2DB, size: 0x8, addend: 0x0, symName: '__ZN4core5slice29_$LT$impl$u20$$u5b$T$u5d$$GT$8iter_mut17h39c18e8050d5d7baE', symObjAddr: 0x0, symBinAddr: 0x100022A40, symSize: 0x20 }
  - { offset: 0x3E312, size: 0x8, addend: 0x0, symName: '__ZN4core5slice29_$LT$impl$u20$$u5b$T$u5d$$GT$8iter_mut17h49eb6dcd4b824e5bE', symObjAddr: 0x20, symBinAddr: 0x100022A60, symSize: 0x20 }
  - { offset: 0x3E349, size: 0x8, addend: 0x0, symName: '__ZN4core5slice29_$LT$impl$u20$$u5b$T$u5d$$GT$8iter_mut17hacca49c8043d31fdE', symObjAddr: 0x40, symBinAddr: 0x100022A80, symSize: 0x20 }
  - { offset: 0x3E590, size: 0x8, addend: 0x0, symName: '__ZN75_$LT$quiche..minmax..Minmax$LT$T$GT$$u20$as$u20$core..ops..deref..Deref$GT$5deref17h636660c139121322E', symObjAddr: 0x60, symBinAddr: 0x100022AA0, symSize: 0x20 }
  - { offset: 0x3E918, size: 0x8, addend: 0x0, symName: '__ZN6quiche6minmax15Minmax$LT$T$GT$3new17h08a49e5beccab518E', symObjAddr: 0x80, symBinAddr: 0x100022AC0, symSize: 0xA0 }
  - { offset: 0x3E950, size: 0x8, addend: 0x0, symName: '__ZN6quiche6minmax15Minmax$LT$T$GT$3new17h90aa06fba8fbc399E', symObjAddr: 0x120, symBinAddr: 0x100022B60, symSize: 0xE0 }
  - { offset: 0x3E98F, size: 0x8, addend: 0x0, symName: '__ZN6quiche6minmax15Minmax$LT$T$GT$3new17hff3591d82f7758eeE', symObjAddr: 0x200, symBinAddr: 0x100022C40, symSize: 0xA0 }
  - { offset: 0x3E9C7, size: 0x8, addend: 0x0, symName: '__ZN6quiche6minmax15Minmax$LT$T$GT$5reset17h105917d26c9457d1E', symObjAddr: 0x2A0, symBinAddr: 0x100022CE0, symSize: 0xA0 }
  - { offset: 0x3EA73, size: 0x8, addend: 0x0, symName: '__ZN6quiche6minmax15Minmax$LT$T$GT$5reset17h6d5bec6791a07bbdE', symObjAddr: 0x340, symBinAddr: 0x100022D80, symSize: 0xB0 }
  - { offset: 0x3EB20, size: 0x8, addend: 0x0, symName: '__ZN6quiche6minmax15Minmax$LT$T$GT$5reset17heef50f8f60fbc390E', symObjAddr: 0x3F0, symBinAddr: 0x100022E30, symSize: 0xA0 }
  - { offset: 0x3EBBF, size: 0x8, addend: 0x0, symName: '__ZN6quiche6minmax15Minmax$LT$T$GT$11running_min17hba5d22b3a5b19035E', symObjAddr: 0x490, symBinAddr: 0x100022ED0, symSize: 0x2A0 }
  - { offset: 0x3EC66, size: 0x8, addend: 0x0, symName: '__ZN6quiche6minmax15Minmax$LT$T$GT$11running_max17h5227aaeed6da043bE', symObjAddr: 0x730, symBinAddr: 0x100023170, symSize: 0x250 }
  - { offset: 0x3ED75, size: 0x8, addend: 0x0, symName: '__ZN6quiche6minmax15Minmax$LT$T$GT$11running_max17heb46f793b4abcf35E', symObjAddr: 0x980, symBinAddr: 0x1000233C0, symSize: 0x250 }
  - { offset: 0x3EE77, size: 0x8, addend: 0x0, symName: '__ZN6quiche6minmax15Minmax$LT$T$GT$13subwin_update17h3fff0dd75f69ac26E', symObjAddr: 0xBD0, symBinAddr: 0x100023610, symSize: 0x340 }
  - { offset: 0x3EEFA, size: 0x8, addend: 0x0, symName: '__ZN6quiche6minmax15Minmax$LT$T$GT$13subwin_update17he6b81b1cdcfd6b1eE', symObjAddr: 0xF10, symBinAddr: 0x100023950, symSize: 0x340 }
  - { offset: 0x3EF7D, size: 0x8, addend: 0x0, symName: '__ZN6quiche6minmax15Minmax$LT$T$GT$13subwin_update17hf5e1bb1b6a36a500E', symObjAddr: 0x1250, symBinAddr: 0x100023C90, symSize: 0x3CD }
  - { offset: 0x3F122, size: 0x8, addend: 0x0, symName: '__ZN4core4hash3sip15Hasher$LT$S$GT$5reset17h80285c9bf5152e68E', symObjAddr: 0x0, symBinAddr: 0x100024060, symSize: 0x70 }
  - { offset: 0x3F204, size: 0x8, addend: 0x0, symName: '__ZN71_$LT$core..hash..sip..Hasher$LT$S$GT$$u20$as$u20$core..hash..Hasher$GT$5write17h087717dfc9228067E', symObjAddr: 0x70, symBinAddr: 0x1000240D0, symSize: 0x260 }
  - { offset: 0x3F37A, size: 0x8, addend: 0x0, symName: '__ZN71_$LT$core..hash..sip..Hasher$LT$S$GT$$u20$as$u20$core..hash..Hasher$GT$6finish17h9a627c356de223d9E', symObjAddr: 0x2D0, symBinAddr: 0x100024330, symSize: 0x8F }
  - { offset: 0x3F511, size: 0x8, addend: 0x0, symName: '__ZN4core4hash3sip15Hasher$LT$S$GT$5reset17h80285c9bf5152e68E', symObjAddr: 0x0, symBinAddr: 0x100024060, symSize: 0x70 }
  - { offset: 0x3F5AF, size: 0x8, addend: 0x0, symName: __ZN4core3ptr10swap_chunk17h0cdade377ca76f9fE, symObjAddr: 0x0, symBinAddr: 0x1000243C0, symSize: 0x30 }
  - { offset: 0x3F5C6, size: 0x8, addend: 0x0, symName: __ZN4core3ptr10swap_chunk17h0cdade377ca76f9fE, symObjAddr: 0x0, symBinAddr: 0x1000243C0, symSize: 0x30 }
  - { offset: 0x3F5FF, size: 0x8, addend: 0x0, symName: __ZN4core3ptr10swap_chunk17h18fc70fd92aa8fa5E, symObjAddr: 0x30, symBinAddr: 0x1000243F0, symSize: 0x30 }
  - { offset: 0x3F638, size: 0x8, addend: 0x0, symName: __ZN4core3ptr10swap_chunk17h21c4c25c5d9f6de9E, symObjAddr: 0x60, symBinAddr: 0x100024420, symSize: 0x30 }
  - { offset: 0x3F671, size: 0x8, addend: 0x0, symName: __ZN4core3ptr10swap_chunk17h2db553f36815d818E, symObjAddr: 0x90, symBinAddr: 0x100024450, symSize: 0x30 }
  - { offset: 0x3FBCC, size: 0x8, addend: 0x0, symName: __ZN4core3ptr19swap_nonoverlapping17h0bc75ca4e6ebb712E, symObjAddr: 0xC0, symBinAddr: 0x100024480, symSize: 0xB0 }
  - { offset: 0x3FEC8, size: 0x8, addend: 0x0, symName: __ZN4core3ptr19swap_nonoverlapping17h1905fb8b99004e75E, symObjAddr: 0x170, symBinAddr: 0x100024530, symSize: 0xB0 }
  - { offset: 0x40068, size: 0x8, addend: 0x0, symName: __ZN4core3ptr19swap_nonoverlapping17h3715378c519a4e3bE, symObjAddr: 0x220, symBinAddr: 0x1000245E0, symSize: 0xB0 }
  - { offset: 0x401D8, size: 0x8, addend: 0x0, symName: __ZN4core3ptr19swap_nonoverlapping17h387bfdaae0a5a7d6E, symObjAddr: 0x2D0, symBinAddr: 0x100024690, symSize: 0xB0 }
  - { offset: 0x40348, size: 0x8, addend: 0x0, symName: __ZN4core3ptr19swap_nonoverlapping17h4bfb82d3e444af2fE, symObjAddr: 0x380, symBinAddr: 0x100024740, symSize: 0xB0 }
  - { offset: 0x404B8, size: 0x8, addend: 0x0, symName: __ZN4core3ptr19swap_nonoverlapping17h6eed27d1c7c3277aE, symObjAddr: 0x430, symBinAddr: 0x1000247F0, symSize: 0xB0 }
  - { offset: 0x40628, size: 0x8, addend: 0x0, symName: __ZN4core3ptr19swap_nonoverlapping17h8dfccc7929454308E, symObjAddr: 0x4E0, symBinAddr: 0x1000248A0, symSize: 0xB0 }
  - { offset: 0x40798, size: 0x8, addend: 0x0, symName: __ZN4core3ptr19swap_nonoverlapping17h977263aff09bfdcfE, symObjAddr: 0x590, symBinAddr: 0x100024950, symSize: 0xB0 }
  - { offset: 0x40908, size: 0x8, addend: 0x0, symName: __ZN4core3ptr19swap_nonoverlapping17hfb03102a45e5ad70E, symObjAddr: 0x640, symBinAddr: 0x100024A00, symSize: 0xB0 }
  - { offset: 0x40A89, size: 0x8, addend: 0x0, symName: __ZN4core3ptr25swap_nonoverlapping_bytes26swap_nonoverlapping_chunks17h452a03c0167a1189E, symObjAddr: 0x6F0, symBinAddr: 0x100024AB0, symSize: 0x110 }
  - { offset: 0x40C2B, size: 0x8, addend: 0x0, symName: __ZN4core3ptr4read17h20994a5ada7165aaE, symObjAddr: 0x800, symBinAddr: 0x100024BC0, symSize: 0x10 }
  - { offset: 0x40C62, size: 0x8, addend: 0x0, symName: __ZN4core3ptr4read17h2c5ba5e81dd79c01E, symObjAddr: 0x810, symBinAddr: 0x100024BD0, symSize: 0x30 }
  - { offset: 0x40C99, size: 0x8, addend: 0x0, symName: __ZN4core3ptr4read17h36343a0dfa9ce21fE, symObjAddr: 0x840, symBinAddr: 0x100024C00, symSize: 0x10 }
  - { offset: 0x40CD0, size: 0x8, addend: 0x0, symName: __ZN4core3ptr4read17h38d986d04921b2f8E, symObjAddr: 0x850, symBinAddr: 0x100024C10, symSize: 0x20 }
  - { offset: 0x40D07, size: 0x8, addend: 0x0, symName: __ZN4core3ptr4read17h85e552d5a534a82aE, symObjAddr: 0x870, symBinAddr: 0x100024C30, symSize: 0x20 }
  - { offset: 0x40D3E, size: 0x8, addend: 0x0, symName: __ZN4core3ptr4read17h9381151cde07b347E, symObjAddr: 0x890, symBinAddr: 0x100024C50, symSize: 0x30 }
  - { offset: 0x40DED, size: 0x8, addend: 0x0, symName: __ZN4core3ptr4swap17h641955a965666f8bE, symObjAddr: 0x8C0, symBinAddr: 0x100024C80, symSize: 0x150 }
  - { offset: 0x40F79, size: 0x8, addend: 0x0, symName: __ZN4core3ptr4swap17he7a0dd2fe302cf80E, symObjAddr: 0xA10, symBinAddr: 0x100024DD0, symSize: 0x180 }
  - { offset: 0x4108D, size: 0x8, addend: 0x0, symName: __ZN4core3ptr5write17h11e126320395b79aE, symObjAddr: 0xB90, symBinAddr: 0x100024F50, symSize: 0x20 }
  - { offset: 0x410D0, size: 0x8, addend: 0x0, symName: __ZN4core3ptr5write17h254c1f8e5f65335dE, symObjAddr: 0xBB0, symBinAddr: 0x100024F70, symSize: 0x20 }
  - { offset: 0x41112, size: 0x8, addend: 0x0, symName: __ZN4core3ptr5write17h90f11420b6ed71c5E, symObjAddr: 0xBD0, symBinAddr: 0x100024F90, symSize: 0x20 }
  - { offset: 0x41154, size: 0x8, addend: 0x0, symName: __ZN4core3ptr5write17hb46106c74c587fbeE, symObjAddr: 0xBF0, symBinAddr: 0x100024FB0, symSize: 0x30 }
  - { offset: 0x41196, size: 0x8, addend: 0x0, symName: __ZN4core3ptr5write17hf8f60618126426e8E, symObjAddr: 0xC20, symBinAddr: 0x100024FE0, symSize: 0x19 }
  - { offset: 0x435C3, size: 0x8, addend: 0x0, symName: '__ZN42_$LT$$RF$T$u20$as$u20$core..fmt..Debug$GT$3fmt17h9f94cfb309ccf13aE', symObjAddr: 0x0, symBinAddr: 0x100025000, symSize: 0x20 }
  - { offset: 0x43617, size: 0x8, addend: 0x0, symName: '__ZN6quiche8recovery11gcongestion4bbr213network_model17BBRv2NetworkModel18adapt_lower_bounds28_$u7b$$u7b$closure$u7d$$u7d$17hedbdda649394f995E', symObjAddr: 0x20, symBinAddr: 0x100025020, symSize: 0x50 }
  - { offset: 0x43656, size: 0x8, addend: 0x0, symName: '__ZN6quiche8recovery11gcongestion4bbr213network_model17BBRv2NetworkModel18adapt_lower_bounds28_$u7b$$u7b$closure$u7d$$u7d$17h6a8a698f362d5599E', symObjAddr: 0x70, symBinAddr: 0x100025070, symSize: 0x80 }
  - { offset: 0x436A8, size: 0x8, addend: 0x0, symName: '__ZN6quiche8recovery11gcongestion4bbr213network_model17BBRv2NetworkModel18adapt_lower_bounds28_$u7b$$u7b$closure$u7d$$u7d$17ha2d0efb67cdbe6e4E', symObjAddr: 0xF0, symBinAddr: 0x1000250F0, symSize: 0x80 }
  - { offset: 0x436E7, size: 0x8, addend: 0x0, symName: '__ZN6quiche8recovery11gcongestion4bbr213network_model17BBRv2NetworkModel18adapt_lower_bounds28_$u7b$$u7b$closure$u7d$$u7d$17h32b0e429086deb72E', symObjAddr: 0x170, symBinAddr: 0x100025170, symSize: 0x3A }
  - { offset: 0x43E96, size: 0x8, addend: 0x0, symName: '__ZN42_$LT$$RF$T$u20$as$u20$core..fmt..Debug$GT$3fmt17h9f94cfb309ccf13aE', symObjAddr: 0x0, symBinAddr: 0x100025000, symSize: 0x20 }
  - { offset: 0x44640, size: 0x8, addend: 0x0, symName: '__ZN5alloc11collections5btree3fix176_$LT$impl$u20$alloc..collections..btree..node..NodeRef$LT$alloc..collections..btree..node..marker..Mut$C$K$C$V$C$alloc..collections..btree..node..marker..LeafOrInternal$GT$$GT$23fix_node_through_parent17h0270f0a5a128d61fE', symObjAddr: 0x0, symBinAddr: 0x1000251B0, symSize: 0x460 }
  - { offset: 0x5B11C, size: 0x8, addend: 0x0, symName: '__ZN5alloc11collections5btree4node127NodeRef$LT$alloc..collections..btree..node..marker..Owned$C$K$C$V$C$alloc..collections..btree..node..marker..LeafOrInternal$GT$19push_internal_level28_$u7b$$u7b$closure$u7d$$u7d$17h04e2b4126db56d4dE', symObjAddr: 0x4510, symBinAddr: 0x1000296C0, symSize: 0x30 }
  - { offset: 0x5B175, size: 0x8, addend: 0x0, symName: '__ZN5alloc11collections5btree4node127NodeRef$LT$alloc..collections..btree..node..marker..Owned$C$K$C$V$C$alloc..collections..btree..node..marker..LeafOrInternal$GT$19push_internal_level28_$u7b$$u7b$closure$u7d$$u7d$17ha599cb40ddd0ca03E', symObjAddr: 0x4540, symBinAddr: 0x1000296F0, symSize: 0x30 }
  - { offset: 0x5B1CE, size: 0x8, addend: 0x0, symName: '__ZN5alloc11collections5btree4node127NodeRef$LT$alloc..collections..btree..node..marker..Owned$C$K$C$V$C$alloc..collections..btree..node..marker..LeafOrInternal$GT$19push_internal_level28_$u7b$$u7b$closure$u7d$$u7d$17hcd08091441b6caacE', symObjAddr: 0x4570, symBinAddr: 0x100029720, symSize: 0x30 }
  - { offset: 0x5B23C, size: 0x8, addend: 0x0, symName: __ZN5alloc11collections5btree4node12slice_insert17h10fe3f6f99e1d1bdE, symObjAddr: 0x45A0, symBinAddr: 0x100029750, symSize: 0x130 }
  - { offset: 0x5B3C0, size: 0x8, addend: 0x0, symName: __ZN5alloc11collections5btree4node12slice_insert17h1f064b2f8fa60078E, symObjAddr: 0x46D0, symBinAddr: 0x100029880, symSize: 0x130 }
  - { offset: 0x5B544, size: 0x8, addend: 0x0, symName: __ZN5alloc11collections5btree4node12slice_insert17h2b9d1fc8bca8b48aE, symObjAddr: 0x4800, symBinAddr: 0x1000299B0, symSize: 0x180 }
  - { offset: 0x5B6CB, size: 0x8, addend: 0x0, symName: __ZN5alloc11collections5btree4node12slice_insert17h5d13ba04d85036f0E, symObjAddr: 0x4980, symBinAddr: 0x100029B30, symSize: 0x130 }
  - { offset: 0x5B84F, size: 0x8, addend: 0x0, symName: __ZN5alloc11collections5btree4node12slice_insert17hb5cc0252d1fbbf26E, symObjAddr: 0x4AB0, symBinAddr: 0x100029C60, symSize: 0x180 }
  - { offset: 0x5B9D6, size: 0x8, addend: 0x0, symName: __ZN5alloc11collections5btree4node12slice_insert17hea1dc11abc3f7ca4E, symObjAddr: 0x4C30, symBinAddr: 0x100029DE0, symSize: 0x130 }
  - { offset: 0x5BB5A, size: 0x8, addend: 0x0, symName: __ZN5alloc11collections5btree4node12slice_remove17h0fd0bb97cd178606E, symObjAddr: 0x4D60, symBinAddr: 0x100029F10, symSize: 0xF0 }
  - { offset: 0x5BD09, size: 0x8, addend: 0x0, symName: __ZN5alloc11collections5btree4node12slice_remove17h1346a921d2eb2c5aE, symObjAddr: 0x4E50, symBinAddr: 0x10002A000, symSize: 0xD0 }
  - { offset: 0x5BEBD, size: 0x8, addend: 0x0, symName: __ZN5alloc11collections5btree4node12slice_remove17h173722f93b5c598bE, symObjAddr: 0x4F20, symBinAddr: 0x10002A0D0, symSize: 0xD0 }
  - { offset: 0x5C071, size: 0x8, addend: 0x0, symName: __ZN5alloc11collections5btree4node12slice_remove17h46d7b9a4dd8292a9E, symObjAddr: 0x4FF0, symBinAddr: 0x10002A1A0, symSize: 0xF0 }
  - { offset: 0x5C220, size: 0x8, addend: 0x0, symName: __ZN5alloc11collections5btree4node12slice_remove17h5b7c42cc3fd653aaE, symObjAddr: 0x50E0, symBinAddr: 0x10002A290, symSize: 0xD0 }
  - { offset: 0x5C3D4, size: 0x8, addend: 0x0, symName: __ZN5alloc11collections5btree4node12slice_remove17h6094f08f4c46b81fE, symObjAddr: 0x51B0, symBinAddr: 0x10002A360, symSize: 0xD0 }
  - { offset: 0x5C588, size: 0x8, addend: 0x0, symName: __ZN5alloc11collections5btree4node12slice_remove17hea030fafb4cae622E, symObjAddr: 0x5280, symBinAddr: 0x10002A430, symSize: 0xD0 }
  - { offset: 0x5C73C, size: 0x8, addend: 0x0, symName: __ZN5alloc11collections5btree4node13move_to_slice17h0c135c4d810e87d9E, symObjAddr: 0x5350, symBinAddr: 0x10002A500, symSize: 0x90 }
  - { offset: 0x5C7E8, size: 0x8, addend: 0x0, symName: __ZN5alloc11collections5btree4node13move_to_slice17h464a48d8635bffaeE, symObjAddr: 0x53E0, symBinAddr: 0x10002A590, symSize: 0x90 }
  - { offset: 0x5C894, size: 0x8, addend: 0x0, symName: __ZN5alloc11collections5btree4node13move_to_slice17hc2cb7448038062b3E, symObjAddr: 0x5470, symBinAddr: 0x10002A620, symSize: 0x90 }
  - { offset: 0x5C940, size: 0x8, addend: 0x0, symName: __ZN5alloc11collections5btree4node13move_to_slice17hcae08a3d6e94b860E, symObjAddr: 0x5500, symBinAddr: 0x10002A6B0, symSize: 0xA0 }
  - { offset: 0x5C9EC, size: 0x8, addend: 0x0, symName: __ZN5alloc11collections5btree4node13move_to_slice17hd44008f155ff19cdE, symObjAddr: 0x55A0, symBinAddr: 0x10002A750, symSize: 0x90 }
  - { offset: 0x5CA98, size: 0x8, addend: 0x0, symName: __ZN5alloc11collections5btree4node13move_to_slice17hef86107f7e9b78ccE, symObjAddr: 0x5630, symBinAddr: 0x10002A7E0, symSize: 0xA0 }
  - { offset: 0x5FB9B, size: 0x8, addend: 0x0, symName: '__ZN5alloc11collections5btree4node29BalancingContext$LT$K$C$V$GT$20merge_tracking_child28_$u7b$$u7b$closure$u7d$$u7d$17h25f7afe2ec07bb2aE', symObjAddr: 0x14790, symBinAddr: 0x100039940, symSize: 0x30 }
  - { offset: 0x5FBFE, size: 0x8, addend: 0x0, symName: '__ZN5alloc11collections5btree4node29BalancingContext$LT$K$C$V$GT$20merge_tracking_child28_$u7b$$u7b$closure$u7d$$u7d$17ha132f55599c4f9e7E', symObjAddr: 0x147C0, symBinAddr: 0x100039970, symSize: 0x30 }
  - { offset: 0x5FC61, size: 0x8, addend: 0x0, symName: '__ZN5alloc11collections5btree4node29BalancingContext$LT$K$C$V$GT$20merge_tracking_child28_$u7b$$u7b$closure$u7d$$u7d$17he02f5dbda465948cE', symObjAddr: 0x147F0, symBinAddr: 0x1000399A0, symSize: 0x30 }
  - { offset: 0x5FCDF, size: 0x8, addend: 0x0, symName: '__ZN5alloc11collections5btree4node29BalancingContext$LT$K$C$V$GT$21merge_tracking_parent28_$u7b$$u7b$closure$u7d$$u7d$17h4c0c7d5d6a3387aaE', symObjAddr: 0x14820, symBinAddr: 0x1000399D0, symSize: 0x30 }
  - { offset: 0x5FD42, size: 0x8, addend: 0x0, symName: '__ZN5alloc11collections5btree4node29BalancingContext$LT$K$C$V$GT$21merge_tracking_parent28_$u7b$$u7b$closure$u7d$$u7d$17h5db8931ec9b17fc8E', symObjAddr: 0x14850, symBinAddr: 0x100039A00, symSize: 0x30 }
  - { offset: 0x5FDA5, size: 0x8, addend: 0x0, symName: '__ZN5alloc11collections5btree4node29BalancingContext$LT$K$C$V$GT$21merge_tracking_parent28_$u7b$$u7b$closure$u7d$$u7d$17ha82d6cd94491ac90E', symObjAddr: 0x14880, symBinAddr: 0x100039A30, symSize: 0x30 }
  - { offset: 0x606D2, size: 0x8, addend: 0x0, symName: __ZN5alloc11collections5btree4node9slice_shl17h198f370957f98ba7E, symObjAddr: 0x1B910, symBinAddr: 0x100040AC0, symSize: 0x90 }
  - { offset: 0x607A4, size: 0x8, addend: 0x0, symName: __ZN5alloc11collections5btree4node9slice_shl17h8bfcd2612b335aebE, symObjAddr: 0x1B9A0, symBinAddr: 0x100040B50, symSize: 0x90 }
  - { offset: 0x60876, size: 0x8, addend: 0x0, symName: __ZN5alloc11collections5btree4node9slice_shl17ha0da69459c6e1de2E, symObjAddr: 0x1BA30, symBinAddr: 0x100040BE0, symSize: 0x90 }
  - { offset: 0x60948, size: 0x8, addend: 0x0, symName: __ZN5alloc11collections5btree4node9slice_shl17hd97f9484aa31d443E, symObjAddr: 0x1BAC0, symBinAddr: 0x100040C70, symSize: 0x90 }
  - { offset: 0x60A1A, size: 0x8, addend: 0x0, symName: __ZN5alloc11collections5btree4node9slice_shl17heae48061297ed1baE, symObjAddr: 0x1BB50, symBinAddr: 0x100040D00, symSize: 0x90 }
  - { offset: 0x60AEC, size: 0x8, addend: 0x0, symName: __ZN5alloc11collections5btree4node9slice_shl17hf06459fce2a8b7f8E, symObjAddr: 0x1BBE0, symBinAddr: 0x100040D90, symSize: 0x90 }
  - { offset: 0x60BBE, size: 0x8, addend: 0x0, symName: __ZN5alloc11collections5btree4node9slice_shl17hf61065e18f67f231E, symObjAddr: 0x1BC70, symBinAddr: 0x100040E20, symSize: 0x90 }
  - { offset: 0x60C90, size: 0x8, addend: 0x0, symName: __ZN5alloc11collections5btree4node9slice_shr17h26d55ccf9627c8d5E, symObjAddr: 0x1BD00, symBinAddr: 0x100040EB0, symSize: 0x90 }
  - { offset: 0x60D62, size: 0x8, addend: 0x0, symName: __ZN5alloc11collections5btree4node9slice_shr17h38ca8c08bdc03f32E, symObjAddr: 0x1BD90, symBinAddr: 0x100040F40, symSize: 0x90 }
  - { offset: 0x60E34, size: 0x8, addend: 0x0, symName: __ZN5alloc11collections5btree4node9slice_shr17h5ca075e1a635893fE, symObjAddr: 0x1BE20, symBinAddr: 0x100040FD0, symSize: 0x90 }
  - { offset: 0x60F06, size: 0x8, addend: 0x0, symName: __ZN5alloc11collections5btree4node9slice_shr17h691da3d4151766dcE, symObjAddr: 0x1BEB0, symBinAddr: 0x100041060, symSize: 0x90 }
  - { offset: 0x60FD8, size: 0x8, addend: 0x0, symName: __ZN5alloc11collections5btree4node9slice_shr17hb488bef3d279e441E, symObjAddr: 0x1BF40, symBinAddr: 0x1000410F0, symSize: 0x90 }
  - { offset: 0x610AA, size: 0x8, addend: 0x0, symName: __ZN5alloc11collections5btree4node9slice_shr17he997c577f5e6f765E, symObjAddr: 0x1BFD0, symBinAddr: 0x100041180, symSize: 0x90 }
  - { offset: 0x6117C, size: 0x8, addend: 0x0, symName: __ZN5alloc11collections5btree4node9slice_shr17hffacff5ad06976e4E, symObjAddr: 0x1C060, symBinAddr: 0x100041210, symSize: 0x90 }
  - { offset: 0x641DF, size: 0x8, addend: 0x0, symName: '__ZN5alloc11collections5btree3fix176_$LT$impl$u20$alloc..collections..btree..node..NodeRef$LT$alloc..collections..btree..node..marker..Mut$C$K$C$V$C$alloc..collections..btree..node..marker..LeafOrInternal$GT$$GT$23fix_node_through_parent17h0270f0a5a128d61fE', symObjAddr: 0x0, symBinAddr: 0x1000251B0, symSize: 0x460 }
  - { offset: 0x645AC, size: 0x8, addend: 0x0, symName: '__ZN5alloc11collections5btree3fix176_$LT$impl$u20$alloc..collections..btree..node..NodeRef$LT$alloc..collections..btree..node..marker..Mut$C$K$C$V$C$alloc..collections..btree..node..marker..LeafOrInternal$GT$$GT$23fix_node_through_parent17hd2b74cf081bd2662E', symObjAddr: 0x460, symBinAddr: 0x100025610, symSize: 0x460 }
  - { offset: 0x649D2, size: 0x8, addend: 0x0, symName: '__ZN5alloc11collections5btree3fix176_$LT$impl$u20$alloc..collections..btree..node..NodeRef$LT$alloc..collections..btree..node..marker..Mut$C$K$C$V$C$alloc..collections..btree..node..marker..LeafOrInternal$GT$$GT$23fix_node_through_parent17hdb708aed0fbd0161E', symObjAddr: 0x8C0, symBinAddr: 0x100025A70, symSize: 0x460 }
  - { offset: 0x64C84, size: 0x8, addend: 0x0, symName: '__ZN5alloc11collections5btree3fix176_$LT$impl$u20$alloc..collections..btree..node..NodeRef$LT$alloc..collections..btree..node..marker..Mut$C$K$C$V$C$alloc..collections..btree..node..marker..LeafOrInternal$GT$$GT$31fix_node_and_affected_ancestors17h9d6dfeffdc528219E', symObjAddr: 0xD20, symBinAddr: 0x100025ED0, symSize: 0xB0 }
  - { offset: 0x64CF3, size: 0x8, addend: 0x0, symName: '__ZN5alloc11collections5btree3fix176_$LT$impl$u20$alloc..collections..btree..node..NodeRef$LT$alloc..collections..btree..node..marker..Mut$C$K$C$V$C$alloc..collections..btree..node..marker..LeafOrInternal$GT$$GT$31fix_node_and_affected_ancestors17hacceb6258496d7b4E', symObjAddr: 0xDD0, symBinAddr: 0x100025F80, symSize: 0xB0 }
  - { offset: 0x64D62, size: 0x8, addend: 0x0, symName: '__ZN5alloc11collections5btree3fix176_$LT$impl$u20$alloc..collections..btree..node..NodeRef$LT$alloc..collections..btree..node..marker..Mut$C$K$C$V$C$alloc..collections..btree..node..marker..LeafOrInternal$GT$$GT$31fix_node_and_affected_ancestors17hf30b569fa990b733E', symObjAddr: 0xE80, symBinAddr: 0x100026030, symSize: 0xB0 }
  - { offset: 0x64FF7, size: 0x8, addend: 0x0, symName: '__ZN5alloc11collections5btree3fix178_$LT$impl$u20$alloc..collections..btree..node..NodeRef$LT$alloc..collections..btree..node..marker..Owned$C$K$C$V$C$alloc..collections..btree..node..marker..LeafOrInternal$GT$$GT$29fix_right_border_of_plentiful17heef57a844858dde0E', symObjAddr: 0xF30, symBinAddr: 0x1000260E0, symSize: 0x1F0 }
  - { offset: 0x6543B, size: 0x8, addend: 0x0, symName: '__ZN5alloc11collections5btree4node115NodeRef$LT$alloc..collections..btree..node..marker..Mut$C$K$C$V$C$alloc..collections..btree..node..marker..Leaf$GT$16push_with_handle17h59a6a45280e22699E', symObjAddr: 0x1120, symBinAddr: 0x1000262D0, symSize: 0x220 }
  - { offset: 0x65A24, size: 0x8, addend: 0x0, symName: '__ZN5alloc11collections5btree4node115NodeRef$LT$alloc..collections..btree..node..marker..Mut$C$K$C$V$C$alloc..collections..btree..node..marker..Leaf$GT$16push_with_handle17ha15364019e6ca31fE', symObjAddr: 0x1340, symBinAddr: 0x1000264F0, symSize: 0x270 }
  - { offset: 0x6609C, size: 0x8, addend: 0x0, symName: '__ZN5alloc11collections5btree4node115NodeRef$LT$alloc..collections..btree..node..marker..Mut$C$K$C$V$C$alloc..collections..btree..node..marker..Leaf$GT$16push_with_handle17hc43a8143f89ef6f6E', symObjAddr: 0x15B0, symBinAddr: 0x100026760, symSize: 0x260 }
  - { offset: 0x6644C, size: 0x8, addend: 0x0, symName: '__ZN5alloc11collections5btree4node117NodeRef$LT$alloc..collections..btree..node..marker..Owned$C$K$C$V$C$alloc..collections..btree..node..marker..Leaf$GT$8new_leaf17h3fc96225aea97897E', symObjAddr: 0x1810, symBinAddr: 0x1000269C0, symSize: 0x30 }
  - { offset: 0x6651B, size: 0x8, addend: 0x0, symName: '__ZN5alloc11collections5btree4node117NodeRef$LT$alloc..collections..btree..node..marker..Owned$C$K$C$V$C$alloc..collections..btree..node..marker..Leaf$GT$8new_leaf17h818cfe686546cb4dE', symObjAddr: 0x1840, symBinAddr: 0x1000269F0, symSize: 0x30 }
  - { offset: 0x665EA, size: 0x8, addend: 0x0, symName: '__ZN5alloc11collections5btree4node117NodeRef$LT$alloc..collections..btree..node..marker..Owned$C$K$C$V$C$alloc..collections..btree..node..marker..Leaf$GT$8new_leaf17hcfd51ce6a4229292E', symObjAddr: 0x1870, symBinAddr: 0x100026A20, symSize: 0x30 }
  - { offset: 0x666FD, size: 0x8, addend: 0x0, symName: '__ZN5alloc11collections5btree4node119NodeRef$LT$alloc..collections..btree..node..marker..Mut$C$K$C$V$C$alloc..collections..btree..node..marker..Internal$GT$30correct_childrens_parent_links17h00822fb7a08ea9cdE', symObjAddr: 0x18A0, symBinAddr: 0x100026A50, symSize: 0xC0 }
  - { offset: 0x66842, size: 0x8, addend: 0x0, symName: '__ZN5alloc11collections5btree4node119NodeRef$LT$alloc..collections..btree..node..marker..Mut$C$K$C$V$C$alloc..collections..btree..node..marker..Internal$GT$30correct_childrens_parent_links17h604e2537861eb5ddE', symObjAddr: 0x1960, symBinAddr: 0x100026B10, symSize: 0xC0 }
  - { offset: 0x66987, size: 0x8, addend: 0x0, symName: '__ZN5alloc11collections5btree4node119NodeRef$LT$alloc..collections..btree..node..marker..Mut$C$K$C$V$C$alloc..collections..btree..node..marker..Internal$GT$30correct_childrens_parent_links17h6f8519210586b11fE', symObjAddr: 0x1A20, symBinAddr: 0x100026BD0, symSize: 0xC0 }
  - { offset: 0x66ABF, size: 0x8, addend: 0x0, symName: '__ZN5alloc11collections5btree4node119NodeRef$LT$alloc..collections..btree..node..marker..Mut$C$K$C$V$C$alloc..collections..btree..node..marker..Internal$GT$30correct_childrens_parent_links17h956b5c4e9e9134e9E', symObjAddr: 0x1AE0, symBinAddr: 0x100026C90, symSize: 0xC0 }
  - { offset: 0x66BF6, size: 0x8, addend: 0x0, symName: '__ZN5alloc11collections5btree4node119NodeRef$LT$alloc..collections..btree..node..marker..Mut$C$K$C$V$C$alloc..collections..btree..node..marker..Internal$GT$30correct_childrens_parent_links17hb9897db5378d6ea3E', symObjAddr: 0x1BA0, symBinAddr: 0x100026D50, symSize: 0xC0 }
  - { offset: 0x66D2D, size: 0x8, addend: 0x0, symName: '__ZN5alloc11collections5btree4node119NodeRef$LT$alloc..collections..btree..node..marker..Mut$C$K$C$V$C$alloc..collections..btree..node..marker..Internal$GT$30correct_childrens_parent_links17hd1fc2be37e338affE', symObjAddr: 0x1C60, symBinAddr: 0x100026E10, symSize: 0xC0 }
  - { offset: 0x671A1, size: 0x8, addend: 0x0, symName: '__ZN5alloc11collections5btree4node119NodeRef$LT$alloc..collections..btree..node..marker..Mut$C$K$C$V$C$alloc..collections..btree..node..marker..Internal$GT$4push17h08343cc93b4cd34bE', symObjAddr: 0x1D20, symBinAddr: 0x100026ED0, symSize: 0x3A0 }
  - { offset: 0x67A0F, size: 0x8, addend: 0x0, symName: '__ZN5alloc11collections5btree4node119NodeRef$LT$alloc..collections..btree..node..marker..Mut$C$K$C$V$C$alloc..collections..btree..node..marker..Internal$GT$4push17h4a5ad8521f421653E', symObjAddr: 0x20C0, symBinAddr: 0x100027270, symSize: 0x390 }
  - { offset: 0x6821B, size: 0x8, addend: 0x0, symName: '__ZN5alloc11collections5btree4node119NodeRef$LT$alloc..collections..btree..node..marker..Mut$C$K$C$V$C$alloc..collections..btree..node..marker..Internal$GT$4push17h99e2716cca742c4dE', symObjAddr: 0x2450, symBinAddr: 0x100027600, symSize: 0x350 }
  - { offset: 0x68727, size: 0x8, addend: 0x0, symName: '__ZN5alloc11collections5btree4node121NodeRef$LT$alloc..collections..btree..node..marker..Owned$C$K$C$V$C$alloc..collections..btree..node..marker..Internal$GT$12new_internal17h6dde4d0737a3357fE', symObjAddr: 0x27A0, symBinAddr: 0x100027950, symSize: 0x90 }
  - { offset: 0x68817, size: 0x8, addend: 0x0, symName: '__ZN5alloc11collections5btree4node121NodeRef$LT$alloc..collections..btree..node..marker..Owned$C$K$C$V$C$alloc..collections..btree..node..marker..Internal$GT$12new_internal17hde9cba440ec2ae73E', symObjAddr: 0x2830, symBinAddr: 0x1000279E0, symSize: 0x90 }
  - { offset: 0x68907, size: 0x8, addend: 0x0, symName: '__ZN5alloc11collections5btree4node121NodeRef$LT$alloc..collections..btree..node..marker..Owned$C$K$C$V$C$alloc..collections..btree..node..marker..Internal$GT$12new_internal17hf47cfc644e216f63E', symObjAddr: 0x28C0, symBinAddr: 0x100027A70, symSize: 0x90 }
  - { offset: 0x68B07, size: 0x8, addend: 0x0, symName: '__ZN5alloc11collections5btree4node121NodeRef$LT$alloc..collections..btree..node..marker..Owned$C$K$C$V$C$alloc..collections..btree..node..marker..Internal$GT$17from_new_internal17h69a64e1f66d54d64E', symObjAddr: 0x2950, symBinAddr: 0x100027B00, symSize: 0xF0 }
  - { offset: 0x68E18, size: 0x8, addend: 0x0, symName: '__ZN5alloc11collections5btree4node121NodeRef$LT$alloc..collections..btree..node..marker..Owned$C$K$C$V$C$alloc..collections..btree..node..marker..Internal$GT$17from_new_internal17h8e27544e1c8c3145E', symObjAddr: 0x2A40, symBinAddr: 0x100027BF0, symSize: 0xF0 }
  - { offset: 0x69129, size: 0x8, addend: 0x0, symName: '__ZN5alloc11collections5btree4node121NodeRef$LT$alloc..collections..btree..node..marker..Owned$C$K$C$V$C$alloc..collections..btree..node..marker..Internal$GT$17from_new_internal17h8e8193ed6fcca34eE', symObjAddr: 0x2B30, symBinAddr: 0x100027CE0, symSize: 0xF0 }
  - { offset: 0x6962C, size: 0x8, addend: 0x0, symName: '__ZN5alloc11collections5btree4node125NodeRef$LT$alloc..collections..btree..node..marker..Mut$C$K$C$V$C$alloc..collections..btree..node..marker..LeafOrInternal$GT$16choose_parent_kv17h821421bb7495c907E', symObjAddr: 0x2C20, symBinAddr: 0x100027DD0, symSize: 0x5A0 }
  - { offset: 0x69AA1, size: 0x8, addend: 0x0, symName: '__ZN5alloc11collections5btree4node125NodeRef$LT$alloc..collections..btree..node..marker..Mut$C$K$C$V$C$alloc..collections..btree..node..marker..LeafOrInternal$GT$16choose_parent_kv17h918185bc207a6534E', symObjAddr: 0x31C0, symBinAddr: 0x100028370, symSize: 0x5A0 }
  - { offset: 0x69F16, size: 0x8, addend: 0x0, symName: '__ZN5alloc11collections5btree4node125NodeRef$LT$alloc..collections..btree..node..marker..Mut$C$K$C$V$C$alloc..collections..btree..node..marker..LeafOrInternal$GT$16choose_parent_kv17hde8f9cbf151364a5E', symObjAddr: 0x3760, symBinAddr: 0x100028910, symSize: 0x5A0 }
  - { offset: 0x6A2C2, size: 0x8, addend: 0x0, symName: '__ZN5alloc11collections5btree4node127NodeRef$LT$alloc..collections..btree..node..marker..Dying$C$K$C$V$C$alloc..collections..btree..node..marker..LeafOrInternal$GT$21deallocate_and_ascend17h2e69fa602dca937eE', symObjAddr: 0x3D00, symBinAddr: 0x100028EB0, symSize: 0x1A0 }
  - { offset: 0x6A537, size: 0x8, addend: 0x0, symName: '__ZN5alloc11collections5btree4node127NodeRef$LT$alloc..collections..btree..node..marker..Dying$C$K$C$V$C$alloc..collections..btree..node..marker..LeafOrInternal$GT$21deallocate_and_ascend17hd15a070315a45d63E', symObjAddr: 0x3EA0, symBinAddr: 0x100029050, symSize: 0x1A0 }
  - { offset: 0x6A7AC, size: 0x8, addend: 0x0, symName: '__ZN5alloc11collections5btree4node127NodeRef$LT$alloc..collections..btree..node..marker..Dying$C$K$C$V$C$alloc..collections..btree..node..marker..LeafOrInternal$GT$21deallocate_and_ascend17hf177888a8b0a6c9bE', symObjAddr: 0x4040, symBinAddr: 0x1000291F0, symSize: 0x1A0 }
  - { offset: 0x6AABC, size: 0x8, addend: 0x0, symName: '__ZN5alloc11collections5btree4node127NodeRef$LT$alloc..collections..btree..node..marker..Owned$C$K$C$V$C$alloc..collections..btree..node..marker..LeafOrInternal$GT$18pop_internal_level17h88552bddb9891942E', symObjAddr: 0x41E0, symBinAddr: 0x100029390, symSize: 0x110 }
  - { offset: 0x6AE31, size: 0x8, addend: 0x0, symName: '__ZN5alloc11collections5btree4node127NodeRef$LT$alloc..collections..btree..node..marker..Owned$C$K$C$V$C$alloc..collections..btree..node..marker..LeafOrInternal$GT$18pop_internal_level17hb11a6af51d3b2313E', symObjAddr: 0x42F0, symBinAddr: 0x1000294A0, symSize: 0x110 }
  - { offset: 0x6B1A6, size: 0x8, addend: 0x0, symName: '__ZN5alloc11collections5btree4node127NodeRef$LT$alloc..collections..btree..node..marker..Owned$C$K$C$V$C$alloc..collections..btree..node..marker..LeafOrInternal$GT$18pop_internal_level17hc26a9f5d7d44dd40E', symObjAddr: 0x4400, symBinAddr: 0x1000295B0, symSize: 0x110 }
  - { offset: 0x6B7FC, size: 0x8, addend: 0x0, symName: '__ZN5alloc11collections5btree4node171Handle$LT$alloc..collections..btree..node..NodeRef$LT$alloc..collections..btree..node..marker..Mut$C$K$C$V$C$NodeType$GT$$C$alloc..collections..btree..node..marker..KV$GT$10replace_kv17h2553d85fd9431e08E', symObjAddr: 0x56D0, symBinAddr: 0x10002A880, symSize: 0x80 }
  - { offset: 0x6B8FE, size: 0x8, addend: 0x0, symName: '__ZN5alloc11collections5btree4node171Handle$LT$alloc..collections..btree..node..NodeRef$LT$alloc..collections..btree..node..marker..Mut$C$K$C$V$C$NodeType$GT$$C$alloc..collections..btree..node..marker..KV$GT$10replace_kv17h53540c4769ea29fcE', symObjAddr: 0x5750, symBinAddr: 0x10002A900, symSize: 0x130 }
  - { offset: 0x6BA01, size: 0x8, addend: 0x0, symName: '__ZN5alloc11collections5btree4node171Handle$LT$alloc..collections..btree..node..NodeRef$LT$alloc..collections..btree..node..marker..Mut$C$K$C$V$C$NodeType$GT$$C$alloc..collections..btree..node..marker..KV$GT$10replace_kv17h95dcc94ce4a7c9ddE', symObjAddr: 0x5880, symBinAddr: 0x10002AA30, symSize: 0x120 }
  - { offset: 0x6BAE6, size: 0x8, addend: 0x0, symName: '__ZN5alloc11collections5btree4node171Handle$LT$alloc..collections..btree..node..NodeRef$LT$alloc..collections..btree..node..marker..Mut$C$K$C$V$C$NodeType$GT$$C$alloc..collections..btree..node..marker..KV$GT$10replace_kv17ha5b78230eff9ee0eE', symObjAddr: 0x59A0, symBinAddr: 0x10002AB50, symSize: 0x80 }
  - { offset: 0x6BBCA, size: 0x8, addend: 0x0, symName: '__ZN5alloc11collections5btree4node171Handle$LT$alloc..collections..btree..node..NodeRef$LT$alloc..collections..btree..node..marker..Mut$C$K$C$V$C$NodeType$GT$$C$alloc..collections..btree..node..marker..KV$GT$10replace_kv17hb8d81b2beb3906f9E', symObjAddr: 0x5A20, symBinAddr: 0x10002ABD0, symSize: 0x130 }
  - { offset: 0x6BCAF, size: 0x8, addend: 0x0, symName: '__ZN5alloc11collections5btree4node171Handle$LT$alloc..collections..btree..node..NodeRef$LT$alloc..collections..btree..node..marker..Mut$C$K$C$V$C$NodeType$GT$$C$alloc..collections..btree..node..marker..KV$GT$10replace_kv17hdcd74de08f30f421E', symObjAddr: 0x5B50, symBinAddr: 0x10002AD00, symSize: 0x120 }
  - { offset: 0x6BDFD, size: 0x8, addend: 0x0, symName: '__ZN5alloc11collections5btree4node171Handle$LT$alloc..collections..btree..node..NodeRef$LT$alloc..collections..btree..node..marker..Mut$C$K$C$V$C$NodeType$GT$$C$alloc..collections..btree..node..marker..KV$GT$12into_val_mut17h2e0cbd6638c4b813E', symObjAddr: 0x5C70, symBinAddr: 0x10002AE20, symSize: 0x80 }
  - { offset: 0x6BF6D, size: 0x8, addend: 0x0, symName: '__ZN5alloc11collections5btree4node171Handle$LT$alloc..collections..btree..node..NodeRef$LT$alloc..collections..btree..node..marker..Mut$C$K$C$V$C$NodeType$GT$$C$alloc..collections..btree..node..marker..KV$GT$12into_val_mut17h60f617cb040c2603E', symObjAddr: 0x5CF0, symBinAddr: 0x10002AEA0, symSize: 0x80 }
  - { offset: 0x6C0DD, size: 0x8, addend: 0x0, symName: '__ZN5alloc11collections5btree4node171Handle$LT$alloc..collections..btree..node..NodeRef$LT$alloc..collections..btree..node..marker..Mut$C$K$C$V$C$NodeType$GT$$C$alloc..collections..btree..node..marker..KV$GT$12into_val_mut17h71e3dfec0d70bfbcE', symObjAddr: 0x5D70, symBinAddr: 0x10002AF20, symSize: 0x80 }
  - { offset: 0x6C24D, size: 0x8, addend: 0x0, symName: '__ZN5alloc11collections5btree4node171Handle$LT$alloc..collections..btree..node..NodeRef$LT$alloc..collections..btree..node..marker..Mut$C$K$C$V$C$NodeType$GT$$C$alloc..collections..btree..node..marker..KV$GT$12into_val_mut17he10839d1d7eabf7fE', symObjAddr: 0x5DF0, symBinAddr: 0x10002AFA0, symSize: 0x80 }
  - { offset: 0x6C57B, size: 0x8, addend: 0x0, symName: '__ZN5alloc11collections5btree4node171Handle$LT$alloc..collections..btree..node..NodeRef$LT$alloc..collections..btree..node..marker..Mut$C$K$C$V$C$NodeType$GT$$C$alloc..collections..btree..node..marker..KV$GT$15split_leaf_data17h2bf3cfcaa052fb7dE', symObjAddr: 0x5E70, symBinAddr: 0x10002B020, symSize: 0x470 }
  - { offset: 0x6CF41, size: 0x8, addend: 0x0, symName: '__ZN5alloc11collections5btree4node171Handle$LT$alloc..collections..btree..node..NodeRef$LT$alloc..collections..btree..node..marker..Mut$C$K$C$V$C$NodeType$GT$$C$alloc..collections..btree..node..marker..KV$GT$15split_leaf_data17h4267c8db705cb922E', symObjAddr: 0x62E0, symBinAddr: 0x10002B490, symSize: 0x4E0 }
  - { offset: 0x6D8F4, size: 0x8, addend: 0x0, symName: '__ZN5alloc11collections5btree4node171Handle$LT$alloc..collections..btree..node..NodeRef$LT$alloc..collections..btree..node..marker..Mut$C$K$C$V$C$NodeType$GT$$C$alloc..collections..btree..node..marker..KV$GT$15split_leaf_data17h9a5fad6f7134775dE', symObjAddr: 0x67C0, symBinAddr: 0x10002B970, symSize: 0x470 }
  - { offset: 0x6E2C7, size: 0x8, addend: 0x0, symName: '__ZN5alloc11collections5btree4node171Handle$LT$alloc..collections..btree..node..NodeRef$LT$alloc..collections..btree..node..marker..Mut$C$K$C$V$C$NodeType$GT$$C$alloc..collections..btree..node..marker..KV$GT$15split_leaf_data17haf922b5b12953531E', symObjAddr: 0x6C30, symBinAddr: 0x10002BDE0, symSize: 0x4E0 }
  - { offset: 0x6ECA5, size: 0x8, addend: 0x0, symName: '__ZN5alloc11collections5btree4node171Handle$LT$alloc..collections..btree..node..NodeRef$LT$alloc..collections..btree..node..marker..Mut$C$K$C$V$C$NodeType$GT$$C$alloc..collections..btree..node..marker..KV$GT$15split_leaf_data17hce567cd6bb947c0bE', symObjAddr: 0x7110, symBinAddr: 0x10002C2C0, symSize: 0x4D0 }
  - { offset: 0x6F678, size: 0x8, addend: 0x0, symName: '__ZN5alloc11collections5btree4node171Handle$LT$alloc..collections..btree..node..NodeRef$LT$alloc..collections..btree..node..marker..Mut$C$K$C$V$C$NodeType$GT$$C$alloc..collections..btree..node..marker..KV$GT$15split_leaf_data17he37c952f75371227E', symObjAddr: 0x75E0, symBinAddr: 0x10002C790, symSize: 0x4D0 }
  - { offset: 0x6FE81, size: 0x8, addend: 0x0, symName: '__ZN5alloc11collections5btree4node171Handle$LT$alloc..collections..btree..node..NodeRef$LT$alloc..collections..btree..node..marker..Mut$C$K$C$V$C$NodeType$GT$$C$alloc..collections..btree..node..marker..KV$GT$6kv_mut17h0b50564ce52e0eebE', symObjAddr: 0x7AB0, symBinAddr: 0x10002CC60, symSize: 0x100 }
  - { offset: 0x700E7, size: 0x8, addend: 0x0, symName: '__ZN5alloc11collections5btree4node171Handle$LT$alloc..collections..btree..node..NodeRef$LT$alloc..collections..btree..node..marker..Mut$C$K$C$V$C$NodeType$GT$$C$alloc..collections..btree..node..marker..KV$GT$6kv_mut17h0c15fad5d3e2cfb7E', symObjAddr: 0x7BB0, symBinAddr: 0x10002CD60, symSize: 0x100 }
  - { offset: 0x70387, size: 0x8, addend: 0x0, symName: '__ZN5alloc11collections5btree4node171Handle$LT$alloc..collections..btree..node..NodeRef$LT$alloc..collections..btree..node..marker..Mut$C$K$C$V$C$NodeType$GT$$C$alloc..collections..btree..node..marker..KV$GT$6kv_mut17h12ed642d5a4a3623E', symObjAddr: 0x7CB0, symBinAddr: 0x10002CE60, symSize: 0xF0 }
  - { offset: 0x70627, size: 0x8, addend: 0x0, symName: '__ZN5alloc11collections5btree4node171Handle$LT$alloc..collections..btree..node..NodeRef$LT$alloc..collections..btree..node..marker..Mut$C$K$C$V$C$NodeType$GT$$C$alloc..collections..btree..node..marker..KV$GT$6kv_mut17h166da78e14c34016E', symObjAddr: 0x7DA0, symBinAddr: 0x10002CF50, symSize: 0x110 }
  - { offset: 0x7089C, size: 0x8, addend: 0x0, symName: '__ZN5alloc11collections5btree4node171Handle$LT$alloc..collections..btree..node..NodeRef$LT$alloc..collections..btree..node..marker..Mut$C$K$C$V$C$NodeType$GT$$C$alloc..collections..btree..node..marker..KV$GT$6kv_mut17h255d55d7671d31e4E', symObjAddr: 0x7EB0, symBinAddr: 0x10002D060, symSize: 0xF0 }
  - { offset: 0x70B11, size: 0x8, addend: 0x0, symName: '__ZN5alloc11collections5btree4node171Handle$LT$alloc..collections..btree..node..NodeRef$LT$alloc..collections..btree..node..marker..Mut$C$K$C$V$C$NodeType$GT$$C$alloc..collections..btree..node..marker..KV$GT$6kv_mut17h2a0d7196cd0efdf6E', symObjAddr: 0x7FA0, symBinAddr: 0x10002D150, symSize: 0x110 }
  - { offset: 0x70D68, size: 0x8, addend: 0x0, symName: '__ZN5alloc11collections5btree4node173Handle$LT$alloc..collections..btree..node..NodeRef$LT$alloc..collections..btree..node..marker..Dying$C$K$C$V$C$NodeType$GT$$C$alloc..collections..btree..node..marker..KV$GT$12drop_key_val17h1b7e9911dc33804eE', symObjAddr: 0x80B0, symBinAddr: 0x10002D260, symSize: 0x100 }
  - { offset: 0x70F83, size: 0x8, addend: 0x0, symName: '__ZN5alloc11collections5btree4node173Handle$LT$alloc..collections..btree..node..NodeRef$LT$alloc..collections..btree..node..marker..Dying$C$K$C$V$C$NodeType$GT$$C$alloc..collections..btree..node..marker..KV$GT$12drop_key_val17h5aee223912a155f6E', symObjAddr: 0x81B0, symBinAddr: 0x10002D360, symSize: 0x100 }
  - { offset: 0x7119E, size: 0x8, addend: 0x0, symName: '__ZN5alloc11collections5btree4node173Handle$LT$alloc..collections..btree..node..NodeRef$LT$alloc..collections..btree..node..marker..Dying$C$K$C$V$C$NodeType$GT$$C$alloc..collections..btree..node..marker..KV$GT$12drop_key_val17hfbab25936098c059E', symObjAddr: 0x82B0, symBinAddr: 0x10002D460, symSize: 0x100 }
  - { offset: 0x713D7, size: 0x8, addend: 0x0, symName: '__ZN5alloc11collections5btree4node173Handle$LT$alloc..collections..btree..node..NodeRef$LT$alloc..collections..btree..node..marker..Dying$C$K$C$V$C$NodeType$GT$$C$alloc..collections..btree..node..marker..KV$GT$12into_key_val17h4425b3a4ac9ab2daE', symObjAddr: 0x83B0, symBinAddr: 0x10002D560, symSize: 0x120 }
  - { offset: 0x717EB, size: 0x8, addend: 0x0, symName: '__ZN5alloc11collections5btree4node173Handle$LT$alloc..collections..btree..node..NodeRef$LT$alloc..collections..btree..node..marker..Immut$C$K$C$V$C$NodeType$GT$$C$alloc..collections..btree..node..marker..KV$GT$7into_kv17h0c60138b98cdf757E', symObjAddr: 0x84D0, symBinAddr: 0x10002D680, symSize: 0xF0 }
  - { offset: 0x71AFC, size: 0x8, addend: 0x0, symName: '__ZN5alloc11collections5btree4node173Handle$LT$alloc..collections..btree..node..NodeRef$LT$alloc..collections..btree..node..marker..Immut$C$K$C$V$C$NodeType$GT$$C$alloc..collections..btree..node..marker..KV$GT$7into_kv17h16c47ca371c2b2d0E', symObjAddr: 0x85C0, symBinAddr: 0x10002D770, symSize: 0xF0 }
  - { offset: 0x71DE2, size: 0x8, addend: 0x0, symName: '__ZN5alloc11collections5btree4node173Handle$LT$alloc..collections..btree..node..NodeRef$LT$alloc..collections..btree..node..marker..Immut$C$K$C$V$C$NodeType$GT$$C$alloc..collections..btree..node..marker..KV$GT$7into_kv17h303f09b320035ea3E', symObjAddr: 0x86B0, symBinAddr: 0x10002D860, symSize: 0xE0 }
  - { offset: 0x72156, size: 0x8, addend: 0x0, symName: '__ZN5alloc11collections5btree4node173Handle$LT$alloc..collections..btree..node..NodeRef$LT$alloc..collections..btree..node..marker..Immut$C$K$C$V$C$NodeType$GT$$C$alloc..collections..btree..node..marker..KV$GT$7into_kv17h9119cd0cd3004bdbE', symObjAddr: 0x8790, symBinAddr: 0x10002D940, symSize: 0xD0 }
  - { offset: 0x72411, size: 0x8, addend: 0x0, symName: '__ZN5alloc11collections5btree4node173Handle$LT$alloc..collections..btree..node..NodeRef$LT$alloc..collections..btree..node..marker..Immut$C$K$C$V$C$NodeType$GT$$C$alloc..collections..btree..node..marker..KV$GT$7into_kv17h94068332193d9c55E', symObjAddr: 0x8860, symBinAddr: 0x10002DA10, symSize: 0xE0 }
  - { offset: 0x726EA, size: 0x8, addend: 0x0, symName: '__ZN5alloc11collections5btree4node173Handle$LT$alloc..collections..btree..node..NodeRef$LT$alloc..collections..btree..node..marker..Immut$C$K$C$V$C$NodeType$GT$$C$alloc..collections..btree..node..marker..KV$GT$7into_kv17hf70d60866d4563e8E', symObjAddr: 0x8940, symBinAddr: 0x10002DAF0, symSize: 0xE0 }
  - { offset: 0x7297B, size: 0x8, addend: 0x0, symName: '__ZN5alloc11collections5btree4node180Handle$LT$alloc..collections..btree..node..NodeRef$LT$BorrowType$C$K$C$V$C$alloc..collections..btree..node..marker..Internal$GT$$C$alloc..collections..btree..node..marker..Edge$GT$7descend17h3d0b359d110a889bE', symObjAddr: 0x8A20, symBinAddr: 0x10002DBD0, symSize: 0x80 }
  - { offset: 0x72B5C, size: 0x8, addend: 0x0, symName: '__ZN5alloc11collections5btree4node180Handle$LT$alloc..collections..btree..node..NodeRef$LT$BorrowType$C$K$C$V$C$alloc..collections..btree..node..marker..Internal$GT$$C$alloc..collections..btree..node..marker..Edge$GT$7descend17h45aea043d8c1564dE', symObjAddr: 0x8AA0, symBinAddr: 0x10002DC50, symSize: 0x80 }
  - { offset: 0x72D1F, size: 0x8, addend: 0x0, symName: '__ZN5alloc11collections5btree4node180Handle$LT$alloc..collections..btree..node..NodeRef$LT$BorrowType$C$K$C$V$C$alloc..collections..btree..node..marker..Internal$GT$$C$alloc..collections..btree..node..marker..Edge$GT$7descend17h52041b05305dac11E', symObjAddr: 0x8B20, symBinAddr: 0x10002DCD0, symSize: 0x80 }
  - { offset: 0x72EEF, size: 0x8, addend: 0x0, symName: '__ZN5alloc11collections5btree4node180Handle$LT$alloc..collections..btree..node..NodeRef$LT$BorrowType$C$K$C$V$C$alloc..collections..btree..node..marker..Internal$GT$$C$alloc..collections..btree..node..marker..Edge$GT$7descend17h726cfb026d4f8348E', symObjAddr: 0x8BA0, symBinAddr: 0x10002DD50, symSize: 0x80 }
  - { offset: 0x730D0, size: 0x8, addend: 0x0, symName: '__ZN5alloc11collections5btree4node180Handle$LT$alloc..collections..btree..node..NodeRef$LT$BorrowType$C$K$C$V$C$alloc..collections..btree..node..marker..Internal$GT$$C$alloc..collections..btree..node..marker..Edge$GT$7descend17h73a51e8f48d603a1E', symObjAddr: 0x8C20, symBinAddr: 0x10002DDD0, symSize: 0x80 }
  - { offset: 0x732A0, size: 0x8, addend: 0x0, symName: '__ZN5alloc11collections5btree4node180Handle$LT$alloc..collections..btree..node..NodeRef$LT$BorrowType$C$K$C$V$C$alloc..collections..btree..node..marker..Internal$GT$$C$alloc..collections..btree..node..marker..Edge$GT$7descend17hc0ab5e110cf989d3E', symObjAddr: 0x8CA0, symBinAddr: 0x10002DE50, symSize: 0x80 }
  - { offset: 0x73463, size: 0x8, addend: 0x0, symName: '__ZN5alloc11collections5btree4node180Handle$LT$alloc..collections..btree..node..NodeRef$LT$BorrowType$C$K$C$V$C$alloc..collections..btree..node..marker..Internal$GT$$C$alloc..collections..btree..node..marker..Edge$GT$7descend17hd155afd1e6a54001E', symObjAddr: 0x8D20, symBinAddr: 0x10002DED0, symSize: 0x80 }
  - { offset: 0x73633, size: 0x8, addend: 0x0, symName: '__ZN5alloc11collections5btree4node180Handle$LT$alloc..collections..btree..node..NodeRef$LT$BorrowType$C$K$C$V$C$alloc..collections..btree..node..marker..Internal$GT$$C$alloc..collections..btree..node..marker..Edge$GT$7descend17he7873ec19c4bf495E', symObjAddr: 0x8DA0, symBinAddr: 0x10002DF50, symSize: 0x80 }
  - { offset: 0x73803, size: 0x8, addend: 0x0, symName: '__ZN5alloc11collections5btree4node180Handle$LT$alloc..collections..btree..node..NodeRef$LT$BorrowType$C$K$C$V$C$alloc..collections..btree..node..marker..Internal$GT$$C$alloc..collections..btree..node..marker..Edge$GT$7descend17hecbf1a30e63400bcE', symObjAddr: 0x8E20, symBinAddr: 0x10002DFD0, symSize: 0x80 }
  - { offset: 0x7398E, size: 0x8, addend: 0x0, symName: '__ZN5alloc11collections5btree4node208Handle$LT$alloc..collections..btree..node..NodeRef$LT$alloc..collections..btree..node..marker..Mut$C$K$C$V$C$alloc..collections..btree..node..marker..Leaf$GT$$C$alloc..collections..btree..node..marker..KV$GT$5split17ha2f1d46909c5cc63E', symObjAddr: 0x8EA0, symBinAddr: 0x10002E050, symSize: 0x140 }
  - { offset: 0x73AB8, size: 0x8, addend: 0x0, symName: '__ZN5alloc11collections5btree4node208Handle$LT$alloc..collections..btree..node..NodeRef$LT$alloc..collections..btree..node..marker..Mut$C$K$C$V$C$alloc..collections..btree..node..marker..Leaf$GT$$C$alloc..collections..btree..node..marker..KV$GT$5split17hd2a126c0be6b28c5E', symObjAddr: 0x8FE0, symBinAddr: 0x10002E190, symSize: 0x140 }
  - { offset: 0x73BE2, size: 0x8, addend: 0x0, symName: '__ZN5alloc11collections5btree4node208Handle$LT$alloc..collections..btree..node..NodeRef$LT$alloc..collections..btree..node..marker..Mut$C$K$C$V$C$alloc..collections..btree..node..marker..Leaf$GT$$C$alloc..collections..btree..node..marker..KV$GT$5split17hf4ac34cbbba00372E', symObjAddr: 0x9120, symBinAddr: 0x10002E2D0, symSize: 0xF0 }
  - { offset: 0x73EC3, size: 0x8, addend: 0x0, symName: '__ZN5alloc11collections5btree4node208Handle$LT$alloc..collections..btree..node..NodeRef$LT$alloc..collections..btree..node..marker..Mut$C$K$C$V$C$alloc..collections..btree..node..marker..Leaf$GT$$C$alloc..collections..btree..node..marker..KV$GT$6remove17h855b1a5eda2aa823E', symObjAddr: 0x9210, symBinAddr: 0x10002E3C0, symSize: 0x230 }
  - { offset: 0x7445C, size: 0x8, addend: 0x0, symName: '__ZN5alloc11collections5btree4node208Handle$LT$alloc..collections..btree..node..NodeRef$LT$alloc..collections..btree..node..marker..Mut$C$K$C$V$C$alloc..collections..btree..node..marker..Leaf$GT$$C$alloc..collections..btree..node..marker..KV$GT$6remove17h8f1b3e7d35da772dE', symObjAddr: 0x9440, symBinAddr: 0x10002E5F0, symSize: 0x260 }
  - { offset: 0x749F6, size: 0x8, addend: 0x0, symName: '__ZN5alloc11collections5btree4node208Handle$LT$alloc..collections..btree..node..NodeRef$LT$alloc..collections..btree..node..marker..Mut$C$K$C$V$C$alloc..collections..btree..node..marker..Leaf$GT$$C$alloc..collections..btree..node..marker..KV$GT$6remove17hf28ddbb0ad3ff783E', symObjAddr: 0x96A0, symBinAddr: 0x10002E850, symSize: 0x280 }
  - { offset: 0x74F51, size: 0x8, addend: 0x0, symName: '__ZN5alloc11collections5btree4node210Handle$LT$alloc..collections..btree..node..NodeRef$LT$alloc..collections..btree..node..marker..Mut$C$K$C$V$C$alloc..collections..btree..node..marker..Leaf$GT$$C$alloc..collections..btree..node..marker..Edge$GT$10insert_fit17h11c10c8aa6187fe8E', symObjAddr: 0x9920, symBinAddr: 0x10002EAD0, symSize: 0x290 }
  - { offset: 0x75484, size: 0x8, addend: 0x0, symName: '__ZN5alloc11collections5btree4node210Handle$LT$alloc..collections..btree..node..NodeRef$LT$alloc..collections..btree..node..marker..Mut$C$K$C$V$C$alloc..collections..btree..node..marker..Leaf$GT$$C$alloc..collections..btree..node..marker..Edge$GT$10insert_fit17h2690bee48e0a1729E', symObjAddr: 0x9BB0, symBinAddr: 0x10002ED60, symSize: 0x290 }
  - { offset: 0x759B7, size: 0x8, addend: 0x0, symName: '__ZN5alloc11collections5btree4node210Handle$LT$alloc..collections..btree..node..NodeRef$LT$alloc..collections..btree..node..marker..Mut$C$K$C$V$C$alloc..collections..btree..node..marker..Leaf$GT$$C$alloc..collections..btree..node..marker..Edge$GT$10insert_fit17h73ac4daeb7942354E', symObjAddr: 0x9E40, symBinAddr: 0x10002EFF0, symSize: 0x240 }
  - { offset: 0x75E26, size: 0x8, addend: 0x0, symName: '__ZN5alloc11collections5btree4node210Handle$LT$alloc..collections..btree..node..NodeRef$LT$alloc..collections..btree..node..marker..Mut$C$K$C$V$C$alloc..collections..btree..node..marker..Leaf$GT$$C$alloc..collections..btree..node..marker..Edge$GT$16insert_recursing17h38d3c0a6417acdd7E', symObjAddr: 0xA080, symBinAddr: 0x10002F230, symSize: 0x5C0 }
  - { offset: 0x7615A, size: 0x8, addend: 0x0, symName: '__ZN5alloc11collections5btree4node210Handle$LT$alloc..collections..btree..node..NodeRef$LT$alloc..collections..btree..node..marker..Mut$C$K$C$V$C$alloc..collections..btree..node..marker..Leaf$GT$$C$alloc..collections..btree..node..marker..Edge$GT$16insert_recursing17h4e477c4d286fab81E', symObjAddr: 0xA640, symBinAddr: 0x10002F7F0, symSize: 0x6E0 }
  - { offset: 0x76488, size: 0x8, addend: 0x0, symName: '__ZN5alloc11collections5btree4node210Handle$LT$alloc..collections..btree..node..NodeRef$LT$alloc..collections..btree..node..marker..Mut$C$K$C$V$C$alloc..collections..btree..node..marker..Leaf$GT$$C$alloc..collections..btree..node..marker..Edge$GT$16insert_recursing17hd676a98b8c0ba838E', symObjAddr: 0xAD20, symBinAddr: 0x10002FED0, symSize: 0x6A0 }
  - { offset: 0x768FD, size: 0x8, addend: 0x0, symName: '__ZN5alloc11collections5btree4node210Handle$LT$alloc..collections..btree..node..NodeRef$LT$alloc..collections..btree..node..marker..Mut$C$K$C$V$C$alloc..collections..btree..node..marker..Leaf$GT$$C$alloc..collections..btree..node..marker..Edge$GT$6insert17h5843bac57ae489b1E', symObjAddr: 0xB3C0, symBinAddr: 0x100030570, symSize: 0x7B0 }
  - { offset: 0x76DB3, size: 0x8, addend: 0x0, symName: '__ZN5alloc11collections5btree4node210Handle$LT$alloc..collections..btree..node..NodeRef$LT$alloc..collections..btree..node..marker..Mut$C$K$C$V$C$alloc..collections..btree..node..marker..Leaf$GT$$C$alloc..collections..btree..node..marker..Edge$GT$6insert17h603e39cbc03f76caE', symObjAddr: 0xBB70, symBinAddr: 0x100030D20, symSize: 0x6F0 }
  - { offset: 0x77269, size: 0x8, addend: 0x0, symName: '__ZN5alloc11collections5btree4node210Handle$LT$alloc..collections..btree..node..NodeRef$LT$alloc..collections..btree..node..marker..Mut$C$K$C$V$C$alloc..collections..btree..node..marker..Leaf$GT$$C$alloc..collections..btree..node..marker..Edge$GT$6insert17h955921272783c67eE', symObjAddr: 0xC260, symBinAddr: 0x100031410, symSize: 0x7A0 }
  - { offset: 0x775D9, size: 0x8, addend: 0x0, symName: '__ZN5alloc11collections5btree4node212Handle$LT$alloc..collections..btree..node..NodeRef$LT$alloc..collections..btree..node..marker..Mut$C$K$C$V$C$alloc..collections..btree..node..marker..Internal$GT$$C$alloc..collections..btree..node..marker..KV$GT$22consider_for_balancing17h91ff32b7246567b0E', symObjAddr: 0xCA00, symBinAddr: 0x100031BB0, symSize: 0x130 }
  - { offset: 0x7780A, size: 0x8, addend: 0x0, symName: '__ZN5alloc11collections5btree4node212Handle$LT$alloc..collections..btree..node..NodeRef$LT$alloc..collections..btree..node..marker..Mut$C$K$C$V$C$alloc..collections..btree..node..marker..Internal$GT$$C$alloc..collections..btree..node..marker..KV$GT$5split17h1a93b36adc6ce527E', symObjAddr: 0xCB30, symBinAddr: 0x100031CE0, symSize: 0x300 }
  - { offset: 0x77C0A, size: 0x8, addend: 0x0, symName: '__ZN5alloc11collections5btree4node212Handle$LT$alloc..collections..btree..node..NodeRef$LT$alloc..collections..btree..node..marker..Mut$C$K$C$V$C$alloc..collections..btree..node..marker..Internal$GT$$C$alloc..collections..btree..node..marker..KV$GT$5split17h393d3bc3a4be0d3aE', symObjAddr: 0xCE30, symBinAddr: 0x100031FE0, symSize: 0x2D0 }
  - { offset: 0x7800A, size: 0x8, addend: 0x0, symName: '__ZN5alloc11collections5btree4node212Handle$LT$alloc..collections..btree..node..NodeRef$LT$alloc..collections..btree..node..marker..Mut$C$K$C$V$C$alloc..collections..btree..node..marker..Internal$GT$$C$alloc..collections..btree..node..marker..KV$GT$5split17hebb515d8122c5226E', symObjAddr: 0xD100, symBinAddr: 0x1000322B0, symSize: 0x2F0 }
  - { offset: 0x7850D, size: 0x8, addend: 0x0, symName: '__ZN5alloc11collections5btree4node214Handle$LT$alloc..collections..btree..node..NodeRef$LT$alloc..collections..btree..node..marker..Mut$C$K$C$V$C$alloc..collections..btree..node..marker..Internal$GT$$C$alloc..collections..btree..node..marker..Edge$GT$10insert_fit17h05bf44225f7f191dE', symObjAddr: 0xD3F0, symBinAddr: 0x1000325A0, symSize: 0x360 }
  - { offset: 0x78BA2, size: 0x8, addend: 0x0, symName: '__ZN5alloc11collections5btree4node214Handle$LT$alloc..collections..btree..node..NodeRef$LT$alloc..collections..btree..node..marker..Mut$C$K$C$V$C$alloc..collections..btree..node..marker..Internal$GT$$C$alloc..collections..btree..node..marker..Edge$GT$10insert_fit17h25d849613422c80eE', symObjAddr: 0xD750, symBinAddr: 0x100032900, symSize: 0x350 }
  - { offset: 0x79237, size: 0x8, addend: 0x0, symName: '__ZN5alloc11collections5btree4node214Handle$LT$alloc..collections..btree..node..NodeRef$LT$alloc..collections..btree..node..marker..Mut$C$K$C$V$C$alloc..collections..btree..node..marker..Internal$GT$$C$alloc..collections..btree..node..marker..Edge$GT$10insert_fit17h9278af6a7e17d568E', symObjAddr: 0xDAA0, symBinAddr: 0x100032C50, symSize: 0x300 }
  - { offset: 0x797AE, size: 0x8, addend: 0x0, symName: '__ZN5alloc11collections5btree4node214Handle$LT$alloc..collections..btree..node..NodeRef$LT$alloc..collections..btree..node..marker..Mut$C$K$C$V$C$alloc..collections..btree..node..marker..Internal$GT$$C$alloc..collections..btree..node..marker..Edge$GT$19correct_parent_link17h6dff0892427663ebE', symObjAddr: 0xDDA0, symBinAddr: 0x100032F50, symSize: 0xB0 }
  - { offset: 0x799CF, size: 0x8, addend: 0x0, symName: '__ZN5alloc11collections5btree4node214Handle$LT$alloc..collections..btree..node..NodeRef$LT$alloc..collections..btree..node..marker..Mut$C$K$C$V$C$alloc..collections..btree..node..marker..Internal$GT$$C$alloc..collections..btree..node..marker..Edge$GT$19correct_parent_link17h9f9cdb199e8f6decE', symObjAddr: 0xDE50, symBinAddr: 0x100033000, symSize: 0xB0 }
  - { offset: 0x79BF0, size: 0x8, addend: 0x0, symName: '__ZN5alloc11collections5btree4node214Handle$LT$alloc..collections..btree..node..NodeRef$LT$alloc..collections..btree..node..marker..Mut$C$K$C$V$C$alloc..collections..btree..node..marker..Internal$GT$$C$alloc..collections..btree..node..marker..Edge$GT$19correct_parent_link17hd884bbe25ea09939E', symObjAddr: 0xDF00, symBinAddr: 0x1000330B0, symSize: 0xB0 }
  - { offset: 0x79E84, size: 0x8, addend: 0x0, symName: '__ZN5alloc11collections5btree4node214Handle$LT$alloc..collections..btree..node..NodeRef$LT$alloc..collections..btree..node..marker..Mut$C$K$C$V$C$alloc..collections..btree..node..marker..Internal$GT$$C$alloc..collections..btree..node..marker..Edge$GT$6insert17h089172e56f0b606aE', symObjAddr: 0xDFB0, symBinAddr: 0x100033160, symSize: 0x7A0 }
  - { offset: 0x7A20E, size: 0x8, addend: 0x0, symName: '__ZN5alloc11collections5btree4node214Handle$LT$alloc..collections..btree..node..NodeRef$LT$alloc..collections..btree..node..marker..Mut$C$K$C$V$C$alloc..collections..btree..node..marker..Internal$GT$$C$alloc..collections..btree..node..marker..Edge$GT$6insert17h3c228bece0c8d76bE', symObjAddr: 0xE750, symBinAddr: 0x100033900, symSize: 0x6D0 }
  - { offset: 0x7A598, size: 0x8, addend: 0x0, symName: '__ZN5alloc11collections5btree4node214Handle$LT$alloc..collections..btree..node..NodeRef$LT$alloc..collections..btree..node..marker..Mut$C$K$C$V$C$alloc..collections..btree..node..marker..Internal$GT$$C$alloc..collections..btree..node..marker..Edge$GT$6insert17hb344c17b706b8a13E', symObjAddr: 0xEE20, symBinAddr: 0x100033FD0, symSize: 0x7C0 }
  - { offset: 0x7A89A, size: 0x8, addend: 0x0, symName: '__ZN5alloc11collections5btree4node21LeafNode$LT$K$C$V$GT$3new17h2ab644ee8e01c9f2E', symObjAddr: 0xF5E0, symBinAddr: 0x100034790, symSize: 0x60 }
  - { offset: 0x7AB05, size: 0x8, addend: 0x0, symName: '__ZN5alloc11collections5btree4node21LeafNode$LT$K$C$V$GT$3new17h976ad15d87ac8f88E', symObjAddr: 0xF640, symBinAddr: 0x1000347F0, symSize: 0x60 }
  - { offset: 0x7AD70, size: 0x8, addend: 0x0, symName: '__ZN5alloc11collections5btree4node21LeafNode$LT$K$C$V$GT$3new17hd0096df4ddf85034E', symObjAddr: 0xF6A0, symBinAddr: 0x100034850, symSize: 0x60 }
  - { offset: 0x7AFA5, size: 0x8, addend: 0x0, symName: '__ZN5alloc11collections5btree4node25InternalNode$LT$K$C$V$GT$3new17h6f40d3242ef734c6E', symObjAddr: 0xF700, symBinAddr: 0x1000348B0, symSize: 0x60 }
  - { offset: 0x7B1BD, size: 0x8, addend: 0x0, symName: '__ZN5alloc11collections5btree4node25InternalNode$LT$K$C$V$GT$3new17hdf9b22b6a0c196aaE', symObjAddr: 0xF760, symBinAddr: 0x100034910, symSize: 0x60 }
  - { offset: 0x7B3D5, size: 0x8, addend: 0x0, symName: '__ZN5alloc11collections5btree4node25InternalNode$LT$K$C$V$GT$3new17hf0a2a5a78b41d627E', symObjAddr: 0xF7C0, symBinAddr: 0x100034970, symSize: 0x60 }
  - { offset: 0x7BA4E, size: 0x8, addend: 0x0, symName: '__ZN5alloc11collections5btree4node29BalancingContext$LT$K$C$V$GT$15bulk_steal_left17h1623cb44ef493b72E', symObjAddr: 0xF820, symBinAddr: 0x1000349D0, symSize: 0xD40 }
  - { offset: 0x7D196, size: 0x8, addend: 0x0, symName: '__ZN5alloc11collections5btree4node29BalancingContext$LT$K$C$V$GT$15bulk_steal_left17h7687740e82413a2aE', symObjAddr: 0x10560, symBinAddr: 0x100035710, symSize: 0xCF0 }
  - { offset: 0x7E96A, size: 0x8, addend: 0x0, symName: '__ZN5alloc11collections5btree4node29BalancingContext$LT$K$C$V$GT$15bulk_steal_left17hd5e7093fa94265bbE', symObjAddr: 0x11250, symBinAddr: 0x100036400, symSize: 0xD70 }
  - { offset: 0x80121, size: 0x8, addend: 0x0, symName: '__ZN5alloc11collections5btree4node29BalancingContext$LT$K$C$V$GT$16bulk_steal_right17h833278077995f989E', symObjAddr: 0x11FC0, symBinAddr: 0x100037170, symSize: 0xD50 }
  - { offset: 0x81811, size: 0x8, addend: 0x0, symName: '__ZN5alloc11collections5btree4node29BalancingContext$LT$K$C$V$GT$16bulk_steal_right17h9695f4403eb0c405E', symObjAddr: 0x12D10, symBinAddr: 0x100037EC0, symSize: 0xD00 }
  - { offset: 0x82F77, size: 0x8, addend: 0x0, symName: '__ZN5alloc11collections5btree4node29BalancingContext$LT$K$C$V$GT$16bulk_steal_right17hf52b3a6f71a49b8dE', symObjAddr: 0x13A10, symBinAddr: 0x100038BC0, symSize: 0xD80 }
  - { offset: 0x84307, size: 0x8, addend: 0x0, symName: '__ZN5alloc11collections5btree4node29BalancingContext$LT$K$C$V$GT$25merge_tracking_child_edge17h19c2a63533e1407bE', symObjAddr: 0x148B0, symBinAddr: 0x100039A60, symSize: 0x360 }
  - { offset: 0x8461E, size: 0x8, addend: 0x0, symName: '__ZN5alloc11collections5btree4node29BalancingContext$LT$K$C$V$GT$25merge_tracking_child_edge17h1d350a38432ca900E', symObjAddr: 0x14C10, symBinAddr: 0x100039DC0, symSize: 0x360 }
  - { offset: 0x84935, size: 0x8, addend: 0x0, symName: '__ZN5alloc11collections5btree4node29BalancingContext$LT$K$C$V$GT$25merge_tracking_child_edge17hbe27f80d3bade73eE', symObjAddr: 0x14F70, symBinAddr: 0x10003A120, symSize: 0x360 }
  - { offset: 0x85171, size: 0x8, addend: 0x0, symName: '__ZN5alloc11collections5btree4node29BalancingContext$LT$K$C$V$GT$8do_merge17h0eef7a417b7a2984E', symObjAddr: 0x152D0, symBinAddr: 0x10003A480, symSize: 0xCA0 }
  - { offset: 0x86902, size: 0x8, addend: 0x0, symName: '__ZN5alloc11collections5btree4node29BalancingContext$LT$K$C$V$GT$8do_merge17h30b45a49b48b21daE', symObjAddr: 0x15F70, symBinAddr: 0x10003B120, symSize: 0xCA0 }
  - { offset: 0x880E7, size: 0x8, addend: 0x0, symName: '__ZN5alloc11collections5btree4node29BalancingContext$LT$K$C$V$GT$8do_merge17h532195b7557889c5E', symObjAddr: 0x16C10, symBinAddr: 0x10003BDC0, symSize: 0xCD0 }
  - { offset: 0x898E2, size: 0x8, addend: 0x0, symName: '__ZN5alloc11collections5btree4node29BalancingContext$LT$K$C$V$GT$8do_merge17he323f7d0a07e9a02E', symObjAddr: 0x178E0, symBinAddr: 0x10003CA90, symSize: 0xCD0 }
  - { offset: 0x8B0DC, size: 0x8, addend: 0x0, symName: '__ZN5alloc11collections5btree4node29BalancingContext$LT$K$C$V$GT$8do_merge17he3d2bd112eb19777E', symObjAddr: 0x185B0, symBinAddr: 0x10003D760, symSize: 0xCD0 }
  - { offset: 0x8C8D7, size: 0x8, addend: 0x0, symName: '__ZN5alloc11collections5btree4node29BalancingContext$LT$K$C$V$GT$8do_merge17he6a556d39f4c1355E', symObjAddr: 0x19280, symBinAddr: 0x10003E430, symSize: 0xCD0 }
  - { offset: 0x8DB8D, size: 0x8, addend: 0x0, symName: '__ZN5alloc11collections5btree4node40NodeRef$LT$BorrowType$C$K$C$V$C$Type$GT$6ascend17h0e14bbc010c0e8aeE', symObjAddr: 0x19F50, symBinAddr: 0x10003F100, symSize: 0x230 }
  - { offset: 0x8DE08, size: 0x8, addend: 0x0, symName: '__ZN5alloc11collections5btree4node40NodeRef$LT$BorrowType$C$K$C$V$C$Type$GT$6ascend17h175f500f9c4c89b0E', symObjAddr: 0x1A180, symBinAddr: 0x10003F330, symSize: 0x230 }
  - { offset: 0x8E083, size: 0x8, addend: 0x0, symName: '__ZN5alloc11collections5btree4node40NodeRef$LT$BorrowType$C$K$C$V$C$Type$GT$6ascend17h652367ade139bcccE', symObjAddr: 0x1A3B0, symBinAddr: 0x10003F560, symSize: 0x230 }
  - { offset: 0x8E2D7, size: 0x8, addend: 0x0, symName: '__ZN5alloc11collections5btree4node40NodeRef$LT$BorrowType$C$K$C$V$C$Type$GT$6ascend17h70b029b470ce44e4E', symObjAddr: 0x1A5E0, symBinAddr: 0x10003F790, symSize: 0x230 }
  - { offset: 0x8E52B, size: 0x8, addend: 0x0, symName: '__ZN5alloc11collections5btree4node40NodeRef$LT$BorrowType$C$K$C$V$C$Type$GT$6ascend17h7f926ae899917768E', symObjAddr: 0x1A810, symBinAddr: 0x10003F9C0, symSize: 0x230 }
  - { offset: 0x8E77F, size: 0x8, addend: 0x0, symName: '__ZN5alloc11collections5btree4node40NodeRef$LT$BorrowType$C$K$C$V$C$Type$GT$6ascend17h87b9b75b94c53892E', symObjAddr: 0x1AA40, symBinAddr: 0x10003FBF0, symSize: 0x230 }
  - { offset: 0x8E9D3, size: 0x8, addend: 0x0, symName: '__ZN5alloc11collections5btree4node40NodeRef$LT$BorrowType$C$K$C$V$C$Type$GT$6ascend17ha2113b7c6827ab33E', symObjAddr: 0x1AC70, symBinAddr: 0x10003FE20, symSize: 0x230 }
  - { offset: 0x8EC27, size: 0x8, addend: 0x0, symName: '__ZN5alloc11collections5btree4node40NodeRef$LT$BorrowType$C$K$C$V$C$Type$GT$6ascend17hb6362ceb4caff4e6E', symObjAddr: 0x1AEA0, symBinAddr: 0x100040050, symSize: 0x230 }
  - { offset: 0x8EE7B, size: 0x8, addend: 0x0, symName: '__ZN5alloc11collections5btree4node40NodeRef$LT$BorrowType$C$K$C$V$C$Type$GT$6ascend17hc52657f7541daaf4E', symObjAddr: 0x1B0D0, symBinAddr: 0x100040280, symSize: 0x230 }
  - { offset: 0x8F0CF, size: 0x8, addend: 0x0, symName: '__ZN5alloc11collections5btree4node40NodeRef$LT$BorrowType$C$K$C$V$C$Type$GT$6ascend17he308e8983b3f7a69E', symObjAddr: 0x1B300, symBinAddr: 0x1000404B0, symSize: 0x230 }
  - { offset: 0x8F323, size: 0x8, addend: 0x0, symName: '__ZN5alloc11collections5btree4node40NodeRef$LT$BorrowType$C$K$C$V$C$Type$GT$6ascend17he708548f481c5b45E', symObjAddr: 0x1B530, symBinAddr: 0x1000406E0, symSize: 0x230 }
  - { offset: 0x8F53A, size: 0x8, addend: 0x0, symName: '__ZN5alloc11collections5btree4node76NodeRef$LT$alloc..collections..btree..node..marker..Immut$C$K$C$V$C$Type$GT$4keys17h2e76fbeb55f14046E', symObjAddr: 0x1B760, symBinAddr: 0x100040910, symSize: 0x90 }
  - { offset: 0x8F742, size: 0x8, addend: 0x0, symName: '__ZN5alloc11collections5btree4node76NodeRef$LT$alloc..collections..btree..node..marker..Immut$C$K$C$V$C$Type$GT$4keys17h3549680b9b397d40E', symObjAddr: 0x1B7F0, symBinAddr: 0x1000409A0, symSize: 0x90 }
  - { offset: 0x8F905, size: 0x8, addend: 0x0, symName: '__ZN5alloc11collections5btree4node76NodeRef$LT$alloc..collections..btree..node..marker..Immut$C$K$C$V$C$Type$GT$4keys17h3732e6bd194e683eE', symObjAddr: 0x1B880, symBinAddr: 0x100040A30, symSize: 0x90 }
  - { offset: 0x8FD13, size: 0x8, addend: 0x0, symName: '__ZN5alloc11collections5btree6append178_$LT$impl$u20$alloc..collections..btree..node..NodeRef$LT$alloc..collections..btree..node..marker..Owned$C$K$C$V$C$alloc..collections..btree..node..marker..LeafOrInternal$GT$$GT$9bulk_push17ha17ba9165f04e777E', symObjAddr: 0x1C0F0, symBinAddr: 0x1000412A0, symSize: 0x550 }
  - { offset: 0x9044A, size: 0x8, addend: 0x0, symName: '__ZN5alloc11collections5btree6remove259_$LT$impl$u20$alloc..collections..btree..node..Handle$LT$alloc..collections..btree..node..NodeRef$LT$alloc..collections..btree..node..marker..Mut$C$K$C$V$C$alloc..collections..btree..node..marker..Leaf$GT$$C$alloc..collections..btree..node..marker..KV$GT$$GT$14remove_leaf_kv17h3f5d0d976cf6da16E', symObjAddr: 0x1C640, symBinAddr: 0x1000417F0, symSize: 0x850 }
  - { offset: 0x90B2E, size: 0x8, addend: 0x0, symName: '__ZN5alloc11collections5btree6remove259_$LT$impl$u20$alloc..collections..btree..node..Handle$LT$alloc..collections..btree..node..NodeRef$LT$alloc..collections..btree..node..marker..Mut$C$K$C$V$C$alloc..collections..btree..node..marker..Leaf$GT$$C$alloc..collections..btree..node..marker..KV$GT$$GT$14remove_leaf_kv17hbfee54a29b16382aE', symObjAddr: 0x1CE90, symBinAddr: 0x100042040, symSize: 0x860 }
  - { offset: 0x91212, size: 0x8, addend: 0x0, symName: '__ZN5alloc11collections5btree6remove259_$LT$impl$u20$alloc..collections..btree..node..Handle$LT$alloc..collections..btree..node..NodeRef$LT$alloc..collections..btree..node..marker..Mut$C$K$C$V$C$alloc..collections..btree..node..marker..Leaf$GT$$C$alloc..collections..btree..node..marker..KV$GT$$GT$14remove_leaf_kv17hf172bb118e5e3f39E', symObjAddr: 0x1D6F0, symBinAddr: 0x1000428A0, symSize: 0x870 }
  - { offset: 0x917E2, size: 0x8, addend: 0x0, symName: '__ZN5alloc11collections5btree6remove263_$LT$impl$u20$alloc..collections..btree..node..Handle$LT$alloc..collections..btree..node..NodeRef$LT$alloc..collections..btree..node..marker..Mut$C$K$C$V$C$alloc..collections..btree..node..marker..Internal$GT$$C$alloc..collections..btree..node..marker..KV$GT$$GT$18remove_internal_kv17h5cecb88a0de33ff3E', symObjAddr: 0x1DF60, symBinAddr: 0x100043110, symSize: 0x5E0 }
  - { offset: 0x91BAB, size: 0x8, addend: 0x0, symName: '__ZN5alloc11collections5btree6remove263_$LT$impl$u20$alloc..collections..btree..node..Handle$LT$alloc..collections..btree..node..NodeRef$LT$alloc..collections..btree..node..marker..Mut$C$K$C$V$C$alloc..collections..btree..node..marker..Internal$GT$$C$alloc..collections..btree..node..marker..KV$GT$$GT$18remove_internal_kv17ha880143e336fa5e0E', symObjAddr: 0x1E540, symBinAddr: 0x1000436F0, symSize: 0x540 }
  - { offset: 0x91F74, size: 0x8, addend: 0x0, symName: '__ZN5alloc11collections5btree6remove263_$LT$impl$u20$alloc..collections..btree..node..Handle$LT$alloc..collections..btree..node..NodeRef$LT$alloc..collections..btree..node..marker..Mut$C$K$C$V$C$alloc..collections..btree..node..marker..Internal$GT$$C$alloc..collections..btree..node..marker..KV$GT$$GT$18remove_internal_kv17hca1735baa671a663E', symObjAddr: 0x1EA80, symBinAddr: 0x100043C30, symSize: 0x590 }
  - { offset: 0x92227, size: 0x8, addend: 0x0, symName: '__ZN5alloc11collections5btree6remove269_$LT$impl$u20$alloc..collections..btree..node..Handle$LT$alloc..collections..btree..node..NodeRef$LT$alloc..collections..btree..node..marker..Mut$C$K$C$V$C$alloc..collections..btree..node..marker..LeafOrInternal$GT$$C$alloc..collections..btree..node..marker..KV$GT$$GT$18remove_kv_tracking17h02dbf943b8a9b3f5E', symObjAddr: 0x1F010, symBinAddr: 0x1000441C0, symSize: 0x250 }
  - { offset: 0x923B6, size: 0x8, addend: 0x0, symName: '__ZN5alloc11collections5btree6remove269_$LT$impl$u20$alloc..collections..btree..node..Handle$LT$alloc..collections..btree..node..NodeRef$LT$alloc..collections..btree..node..marker..Mut$C$K$C$V$C$alloc..collections..btree..node..marker..LeafOrInternal$GT$$C$alloc..collections..btree..node..marker..KV$GT$$GT$18remove_kv_tracking17h5d2456d323c0ae42E', symObjAddr: 0x1F260, symBinAddr: 0x100044410, symSize: 0x250 }
  - { offset: 0x92545, size: 0x8, addend: 0x0, symName: '__ZN5alloc11collections5btree6remove269_$LT$impl$u20$alloc..collections..btree..node..Handle$LT$alloc..collections..btree..node..NodeRef$LT$alloc..collections..btree..node..marker..Mut$C$K$C$V$C$alloc..collections..btree..node..marker..LeafOrInternal$GT$$C$alloc..collections..btree..node..marker..KV$GT$$GT$18remove_kv_tracking17hd843dde9037cbf3cE', symObjAddr: 0x1F4B0, symBinAddr: 0x100044660, symSize: 0x250 }
  - { offset: 0x927C2, size: 0x8, addend: 0x0, symName: '__ZN5alloc11collections5btree6search142_$LT$impl$u20$alloc..collections..btree..node..NodeRef$LT$BorrowType$C$K$C$V$C$alloc..collections..btree..node..marker..LeafOrInternal$GT$$GT$11search_tree17h79bdf3a741e611d9E', symObjAddr: 0x1F700, symBinAddr: 0x1000448B0, symSize: 0x3E0 }
  - { offset: 0x92B13, size: 0x8, addend: 0x0, symName: '__ZN5alloc11collections5btree6search142_$LT$impl$u20$alloc..collections..btree..node..NodeRef$LT$BorrowType$C$K$C$V$C$alloc..collections..btree..node..marker..LeafOrInternal$GT$$GT$11search_tree17hdfe55c56c1bb6424E', symObjAddr: 0x1FAE0, symBinAddr: 0x100044C90, symSize: 0x3E0 }
  - { offset: 0x92E64, size: 0x8, addend: 0x0, symName: '__ZN5alloc11collections5btree6search142_$LT$impl$u20$alloc..collections..btree..node..NodeRef$LT$BorrowType$C$K$C$V$C$alloc..collections..btree..node..marker..LeafOrInternal$GT$$GT$11search_tree17hebef5ed8cb141c36E', symObjAddr: 0x1FEC0, symBinAddr: 0x100045070, symSize: 0x3E0 }
  - { offset: 0x931B5, size: 0x8, addend: 0x0, symName: '__ZN5alloc11collections5btree6search142_$LT$impl$u20$alloc..collections..btree..node..NodeRef$LT$BorrowType$C$K$C$V$C$alloc..collections..btree..node..marker..LeafOrInternal$GT$$GT$11search_tree17hf5bb9263c3dd8ac7E', symObjAddr: 0x202A0, symBinAddr: 0x100045450, symSize: 0x3E0 }
  - { offset: 0x934F5, size: 0x8, addend: 0x0, symName: '__ZN5alloc11collections5btree6search142_$LT$impl$u20$alloc..collections..btree..node..NodeRef$LT$BorrowType$C$K$C$V$C$alloc..collections..btree..node..marker..LeafOrInternal$GT$$GT$27search_tree_for_bifurcation17h1a9736837516252aE', symObjAddr: 0x20680, symBinAddr: 0x100045830, symSize: 0xAA0 }
  - { offset: 0x93B00, size: 0x8, addend: 0x0, symName: '__ZN5alloc11collections5btree6search142_$LT$impl$u20$alloc..collections..btree..node..NodeRef$LT$BorrowType$C$K$C$V$C$alloc..collections..btree..node..marker..LeafOrInternal$GT$$GT$27search_tree_for_bifurcation17h8c9afd9868183367E', symObjAddr: 0x21120, symBinAddr: 0x1000462D0, symSize: 0xAA0 }
  - { offset: 0x9412C, size: 0x8, addend: 0x0, symName: '__ZN5alloc11collections5btree6search142_$LT$impl$u20$alloc..collections..btree..node..NodeRef$LT$BorrowType$C$K$C$V$C$alloc..collections..btree..node..marker..LeafOrInternal$GT$$GT$27search_tree_for_bifurcation17he5754d6304fbf006E', symObjAddr: 0x21BC0, symBinAddr: 0x100046D70, symSize: 0xAA0 }
  - { offset: 0x94728, size: 0x8, addend: 0x0, symName: '__ZN5alloc11collections5btree6search91_$LT$impl$u20$alloc..collections..btree..node..NodeRef$LT$BorrowType$C$K$C$V$C$Type$GT$$GT$14find_key_index17h2333f88abee17133E', symObjAddr: 0x22660, symBinAddr: 0x100047810, symSize: 0x250 }
  - { offset: 0x94B38, size: 0x8, addend: 0x0, symName: '__ZN5alloc11collections5btree6search91_$LT$impl$u20$alloc..collections..btree..node..NodeRef$LT$BorrowType$C$K$C$V$C$Type$GT$$GT$14find_key_index17h4d361a595334589bE', symObjAddr: 0x228B0, symBinAddr: 0x100047A60, symSize: 0x250 }
  - { offset: 0x94F48, size: 0x8, addend: 0x0, symName: '__ZN5alloc11collections5btree6search91_$LT$impl$u20$alloc..collections..btree..node..NodeRef$LT$BorrowType$C$K$C$V$C$Type$GT$$GT$14find_key_index17h733491021493a983E', symObjAddr: 0x22B00, symBinAddr: 0x100047CB0, symSize: 0x250 }
  - { offset: 0x95358, size: 0x8, addend: 0x0, symName: '__ZN5alloc11collections5btree6search91_$LT$impl$u20$alloc..collections..btree..node..NodeRef$LT$BorrowType$C$K$C$V$C$Type$GT$$GT$14find_key_index17ha39d9a6cbbf74427E', symObjAddr: 0x22D50, symBinAddr: 0x100047F00, symSize: 0x250 }
  - { offset: 0x95793, size: 0x8, addend: 0x0, symName: '__ZN5alloc11collections5btree6search91_$LT$impl$u20$alloc..collections..btree..node..NodeRef$LT$BorrowType$C$K$C$V$C$Type$GT$$GT$14find_key_index17habcefbeb85eb6ff8E', symObjAddr: 0x22FA0, symBinAddr: 0x100048150, symSize: 0x250 }
  - { offset: 0x95BA3, size: 0x8, addend: 0x0, symName: '__ZN5alloc11collections5btree6search91_$LT$impl$u20$alloc..collections..btree..node..NodeRef$LT$BorrowType$C$K$C$V$C$Type$GT$$GT$14find_key_index17hd8dba8a093ebbb4bE', symObjAddr: 0x231F0, symBinAddr: 0x1000483A0, symSize: 0x250 }
  - { offset: 0x95F56, size: 0x8, addend: 0x0, symName: '__ZN5alloc11collections5btree6search91_$LT$impl$u20$alloc..collections..btree..node..NodeRef$LT$BorrowType$C$K$C$V$C$Type$GT$$GT$22find_lower_bound_index17h103d7a32df2bc746E', symObjAddr: 0x23440, symBinAddr: 0x1000485F0, symSize: 0x210 }
  - { offset: 0x96111, size: 0x8, addend: 0x0, symName: '__ZN5alloc11collections5btree6search91_$LT$impl$u20$alloc..collections..btree..node..NodeRef$LT$BorrowType$C$K$C$V$C$Type$GT$$GT$22find_lower_bound_index17hc7cf58f62fadfefbE', symObjAddr: 0x23650, symBinAddr: 0x100048800, symSize: 0x210 }
  - { offset: 0x962CC, size: 0x8, addend: 0x0, symName: '__ZN5alloc11collections5btree6search91_$LT$impl$u20$alloc..collections..btree..node..NodeRef$LT$BorrowType$C$K$C$V$C$Type$GT$$GT$22find_upper_bound_index17h8147e7a582a960eaE', symObjAddr: 0x23860, symBinAddr: 0x100048A10, symSize: 0x230 }
  - { offset: 0x9649E, size: 0x8, addend: 0x0, symName: '__ZN5alloc11collections5btree6search91_$LT$impl$u20$alloc..collections..btree..node..NodeRef$LT$BorrowType$C$K$C$V$C$Type$GT$$GT$22find_upper_bound_index17h8ca8fe81dafa3037E', symObjAddr: 0x23A90, symBinAddr: 0x100048C40, symSize: 0x230 }
  - { offset: 0x9674B, size: 0x8, addend: 0x0, symName: '__ZN5alloc11collections5btree8navigate142_$LT$impl$u20$alloc..collections..btree..node..NodeRef$LT$BorrowType$C$K$C$V$C$alloc..collections..btree..node..marker..LeafOrInternal$GT$$GT$14last_leaf_edge17h540ac129483c875dE', symObjAddr: 0x23CC0, symBinAddr: 0x100048E70, symSize: 0x100 }
  - { offset: 0x96A07, size: 0x8, addend: 0x0, symName: '__ZN5alloc11collections5btree8navigate142_$LT$impl$u20$alloc..collections..btree..node..NodeRef$LT$BorrowType$C$K$C$V$C$alloc..collections..btree..node..marker..LeafOrInternal$GT$$GT$14last_leaf_edge17h603ca2a7b6ed16e1E', symObjAddr: 0x23DC0, symBinAddr: 0x100048F70, symSize: 0x100 }
  - { offset: 0x96CC3, size: 0x8, addend: 0x0, symName: '__ZN5alloc11collections5btree8navigate142_$LT$impl$u20$alloc..collections..btree..node..NodeRef$LT$BorrowType$C$K$C$V$C$alloc..collections..btree..node..marker..LeafOrInternal$GT$$GT$14last_leaf_edge17h9252250b921819a0E', symObjAddr: 0x23EC0, symBinAddr: 0x100049070, symSize: 0x100 }
  - { offset: 0x96F7F, size: 0x8, addend: 0x0, symName: '__ZN5alloc11collections5btree8navigate142_$LT$impl$u20$alloc..collections..btree..node..NodeRef$LT$BorrowType$C$K$C$V$C$alloc..collections..btree..node..marker..LeafOrInternal$GT$$GT$14last_leaf_edge17hbb94fe4a279ff3f8E', symObjAddr: 0x23FC0, symBinAddr: 0x100049170, symSize: 0x100 }
  - { offset: 0x97317, size: 0x8, addend: 0x0, symName: '__ZN5alloc11collections5btree8navigate142_$LT$impl$u20$alloc..collections..btree..node..NodeRef$LT$BorrowType$C$K$C$V$C$alloc..collections..btree..node..marker..LeafOrInternal$GT$$GT$30find_leaf_edges_spanning_range17h1e04d3be8b03ed2aE', symObjAddr: 0x240C0, symBinAddr: 0x100049270, symSize: 0xB20 }
  - { offset: 0x97889, size: 0x8, addend: 0x0, symName: '__ZN5alloc11collections5btree8navigate142_$LT$impl$u20$alloc..collections..btree..node..NodeRef$LT$BorrowType$C$K$C$V$C$alloc..collections..btree..node..marker..LeafOrInternal$GT$$GT$30find_leaf_edges_spanning_range17h7efbf9f2144d199dE', symObjAddr: 0x24BE0, symBinAddr: 0x100049D90, symSize: 0xB20 }
  - { offset: 0x97E26, size: 0x8, addend: 0x0, symName: '__ZN5alloc11collections5btree8navigate142_$LT$impl$u20$alloc..collections..btree..node..NodeRef$LT$BorrowType$C$K$C$V$C$alloc..collections..btree..node..marker..LeafOrInternal$GT$$GT$30find_leaf_edges_spanning_range17h979d59e3eec28a38E', symObjAddr: 0x25700, symBinAddr: 0x10004A8B0, symSize: 0xB30 }
  - { offset: 0x982A1, size: 0x8, addend: 0x0, symName: '__ZN5alloc11collections5btree8navigate227_$LT$impl$u20$alloc..collections..btree..node..Handle$LT$alloc..collections..btree..node..NodeRef$LT$BorrowType$C$K$C$V$C$alloc..collections..btree..node..marker..Leaf$GT$$C$alloc..collections..btree..node..marker..Edge$GT$$GT$12next_back_kv17hb3da5375fed29d90E', symObjAddr: 0x26230, symBinAddr: 0x10004B3E0, symSize: 0x270 }
  - { offset: 0x985AD, size: 0x8, addend: 0x0, symName: '__ZN5alloc11collections5btree8navigate227_$LT$impl$u20$alloc..collections..btree..node..Handle$LT$alloc..collections..btree..node..NodeRef$LT$BorrowType$C$K$C$V$C$alloc..collections..btree..node..marker..Leaf$GT$$C$alloc..collections..btree..node..marker..Edge$GT$$GT$7next_kv17h039069a495aa6d3eE', symObjAddr: 0x264A0, symBinAddr: 0x10004B650, symSize: 0x290 }
  - { offset: 0x9890E, size: 0x8, addend: 0x0, symName: '__ZN5alloc11collections5btree8navigate227_$LT$impl$u20$alloc..collections..btree..node..Handle$LT$alloc..collections..btree..node..NodeRef$LT$BorrowType$C$K$C$V$C$alloc..collections..btree..node..marker..Leaf$GT$$C$alloc..collections..btree..node..marker..Edge$GT$$GT$7next_kv17h606f551926cc9267E', symObjAddr: 0x26730, symBinAddr: 0x10004B8E0, symSize: 0x290 }
  - { offset: 0x98C6F, size: 0x8, addend: 0x0, symName: '__ZN5alloc11collections5btree8navigate227_$LT$impl$u20$alloc..collections..btree..node..Handle$LT$alloc..collections..btree..node..NodeRef$LT$BorrowType$C$K$C$V$C$alloc..collections..btree..node..marker..Leaf$GT$$C$alloc..collections..btree..node..marker..Edge$GT$$GT$7next_kv17h9227cfd04673ba44E', symObjAddr: 0x269C0, symBinAddr: 0x10004BB70, symSize: 0x290 }
  - { offset: 0x98FD0, size: 0x8, addend: 0x0, symName: '__ZN5alloc11collections5btree8navigate227_$LT$impl$u20$alloc..collections..btree..node..Handle$LT$alloc..collections..btree..node..NodeRef$LT$BorrowType$C$K$C$V$C$alloc..collections..btree..node..marker..Leaf$GT$$C$alloc..collections..btree..node..marker..Edge$GT$$GT$7next_kv17ha2172a3fd7d9d840E', symObjAddr: 0x26C50, symBinAddr: 0x10004BE00, symSize: 0x290 }
  - { offset: 0x99331, size: 0x8, addend: 0x0, symName: '__ZN5alloc11collections5btree8navigate227_$LT$impl$u20$alloc..collections..btree..node..Handle$LT$alloc..collections..btree..node..NodeRef$LT$BorrowType$C$K$C$V$C$alloc..collections..btree..node..marker..Leaf$GT$$C$alloc..collections..btree..node..marker..Edge$GT$$GT$7next_kv17hfc0561a06391c243E', symObjAddr: 0x26EE0, symBinAddr: 0x10004C090, symSize: 0x290 }
  - { offset: 0x99735, size: 0x8, addend: 0x0, symName: '__ZN5alloc11collections5btree8navigate235_$LT$impl$u20$alloc..collections..btree..node..Handle$LT$alloc..collections..btree..node..NodeRef$LT$BorrowType$C$K$C$V$C$alloc..collections..btree..node..marker..LeafOrInternal$GT$$C$alloc..collections..btree..node..marker..KV$GT$$GT$14next_leaf_edge17h0cc1a5c22b49c5a2E', symObjAddr: 0x27170, symBinAddr: 0x10004C320, symSize: 0x320 }
  - { offset: 0x99BC2, size: 0x8, addend: 0x0, symName: '__ZN5alloc11collections5btree8navigate235_$LT$impl$u20$alloc..collections..btree..node..Handle$LT$alloc..collections..btree..node..NodeRef$LT$BorrowType$C$K$C$V$C$alloc..collections..btree..node..marker..LeafOrInternal$GT$$C$alloc..collections..btree..node..marker..KV$GT$$GT$14next_leaf_edge17h157b5272be8a56bcE', symObjAddr: 0x27490, symBinAddr: 0x10004C640, symSize: 0x320 }
  - { offset: 0x9A031, size: 0x8, addend: 0x0, symName: '__ZN5alloc11collections5btree8navigate235_$LT$impl$u20$alloc..collections..btree..node..Handle$LT$alloc..collections..btree..node..NodeRef$LT$BorrowType$C$K$C$V$C$alloc..collections..btree..node..marker..LeafOrInternal$GT$$C$alloc..collections..btree..node..marker..KV$GT$$GT$14next_leaf_edge17h286fd18e9ad3c86aE', symObjAddr: 0x277B0, symBinAddr: 0x10004C960, symSize: 0x320 }
  - { offset: 0x9A4A0, size: 0x8, addend: 0x0, symName: '__ZN5alloc11collections5btree8navigate235_$LT$impl$u20$alloc..collections..btree..node..Handle$LT$alloc..collections..btree..node..NodeRef$LT$BorrowType$C$K$C$V$C$alloc..collections..btree..node..marker..LeafOrInternal$GT$$C$alloc..collections..btree..node..marker..KV$GT$$GT$14next_leaf_edge17h289134e3be3a999cE', symObjAddr: 0x27AD0, symBinAddr: 0x10004CC80, symSize: 0x320 }
  - { offset: 0x9A90F, size: 0x8, addend: 0x0, symName: '__ZN5alloc11collections5btree8navigate235_$LT$impl$u20$alloc..collections..btree..node..Handle$LT$alloc..collections..btree..node..NodeRef$LT$BorrowType$C$K$C$V$C$alloc..collections..btree..node..marker..LeafOrInternal$GT$$C$alloc..collections..btree..node..marker..KV$GT$$GT$14next_leaf_edge17h611c264ad2444394E', symObjAddr: 0x27DF0, symBinAddr: 0x10004CFA0, symSize: 0x320 }
  - { offset: 0x9AD7E, size: 0x8, addend: 0x0, symName: '__ZN5alloc11collections5btree8navigate235_$LT$impl$u20$alloc..collections..btree..node..Handle$LT$alloc..collections..btree..node..NodeRef$LT$BorrowType$C$K$C$V$C$alloc..collections..btree..node..marker..LeafOrInternal$GT$$C$alloc..collections..btree..node..marker..KV$GT$$GT$14next_leaf_edge17ha33783a1ded2937cE', symObjAddr: 0x28110, symBinAddr: 0x10004D2C0, symSize: 0x320 }
  - { offset: 0x9B1ED, size: 0x8, addend: 0x0, symName: '__ZN5alloc11collections5btree8navigate235_$LT$impl$u20$alloc..collections..btree..node..Handle$LT$alloc..collections..btree..node..NodeRef$LT$BorrowType$C$K$C$V$C$alloc..collections..btree..node..marker..LeafOrInternal$GT$$C$alloc..collections..btree..node..marker..KV$GT$$GT$14next_leaf_edge17hc1684dbfa7a48924E', symObjAddr: 0x28430, symBinAddr: 0x10004D5E0, symSize: 0x320 }
  - { offset: 0x9B65C, size: 0x8, addend: 0x0, symName: '__ZN5alloc11collections5btree8navigate235_$LT$impl$u20$alloc..collections..btree..node..Handle$LT$alloc..collections..btree..node..NodeRef$LT$BorrowType$C$K$C$V$C$alloc..collections..btree..node..marker..LeafOrInternal$GT$$C$alloc..collections..btree..node..marker..KV$GT$$GT$14next_leaf_edge17hec8e4bfaa9529a74E', symObjAddr: 0x28750, symBinAddr: 0x10004D900, symSize: 0x320 }
  - { offset: 0x9BA02, size: 0x8, addend: 0x0, symName: '__ZN5alloc11collections5btree8navigate235_$LT$impl$u20$alloc..collections..btree..node..Handle$LT$alloc..collections..btree..node..NodeRef$LT$BorrowType$C$K$C$V$C$alloc..collections..btree..node..marker..LeafOrInternal$GT$$C$alloc..collections..btree..node..marker..KV$GT$$GT$19next_back_leaf_edge17h21354d552ceacf07E', symObjAddr: 0x28A70, symBinAddr: 0x10004DC20, symSize: 0x200 }
  - { offset: 0x9BBE3, size: 0x8, addend: 0x0, symName: '__ZN5alloc11collections5btree8navigate263_$LT$impl$u20$alloc..collections..btree..node..Handle$LT$alloc..collections..btree..node..NodeRef$LT$alloc..collections..btree..node..marker..Dying$C$K$C$V$C$alloc..collections..btree..node..marker..Leaf$GT$$C$alloc..collections..btree..node..marker..Edge$GT$$GT$16deallocating_end17h2218a7e9082baad0E', symObjAddr: 0x28C70, symBinAddr: 0x10004DE20, symSize: 0xF0 }
  - { offset: 0x9BD0A, size: 0x8, addend: 0x0, symName: '__ZN5alloc11collections5btree8navigate263_$LT$impl$u20$alloc..collections..btree..node..Handle$LT$alloc..collections..btree..node..NodeRef$LT$alloc..collections..btree..node..marker..Dying$C$K$C$V$C$alloc..collections..btree..node..marker..Leaf$GT$$C$alloc..collections..btree..node..marker..Edge$GT$$GT$16deallocating_end17h3e9722a3565ce98fE', symObjAddr: 0x28D60, symBinAddr: 0x10004DF10, symSize: 0xF0 }
  - { offset: 0x9BE31, size: 0x8, addend: 0x0, symName: '__ZN5alloc11collections5btree8navigate263_$LT$impl$u20$alloc..collections..btree..node..Handle$LT$alloc..collections..btree..node..NodeRef$LT$alloc..collections..btree..node..marker..Dying$C$K$C$V$C$alloc..collections..btree..node..marker..Leaf$GT$$C$alloc..collections..btree..node..marker..Edge$GT$$GT$16deallocating_end17he5b638000db4bed1E', symObjAddr: 0x28E50, symBinAddr: 0x10004E000, symSize: 0xF0 }
  - { offset: 0x9C09A, size: 0x8, addend: 0x0, symName: '__ZN5alloc11collections5btree8navigate263_$LT$impl$u20$alloc..collections..btree..node..Handle$LT$alloc..collections..btree..node..NodeRef$LT$alloc..collections..btree..node..marker..Dying$C$K$C$V$C$alloc..collections..btree..node..marker..Leaf$GT$$C$alloc..collections..btree..node..marker..Edge$GT$$GT$17deallocating_next17h41ad8a7bf522902fE', symObjAddr: 0x28F40, symBinAddr: 0x10004E0F0, symSize: 0x370 }
  - { offset: 0x9C427, size: 0x8, addend: 0x0, symName: '__ZN5alloc11collections5btree8navigate263_$LT$impl$u20$alloc..collections..btree..node..Handle$LT$alloc..collections..btree..node..NodeRef$LT$alloc..collections..btree..node..marker..Dying$C$K$C$V$C$alloc..collections..btree..node..marker..Leaf$GT$$C$alloc..collections..btree..node..marker..Edge$GT$$GT$17deallocating_next17h62c2d57f1e737924E', symObjAddr: 0x292B0, symBinAddr: 0x10004E460, symSize: 0x370 }
  - { offset: 0x9C7B4, size: 0x8, addend: 0x0, symName: '__ZN5alloc11collections5btree8navigate263_$LT$impl$u20$alloc..collections..btree..node..Handle$LT$alloc..collections..btree..node..NodeRef$LT$alloc..collections..btree..node..marker..Dying$C$K$C$V$C$alloc..collections..btree..node..marker..Leaf$GT$$C$alloc..collections..btree..node..marker..Edge$GT$$GT$17deallocating_next17hc7e84de7cc746129E', symObjAddr: 0x29620, symBinAddr: 0x10004E7D0, symSize: 0x361 }
  - { offset: 0x9C9C3, size: 0x8, addend: 0x0, symName: '__ZN64_$LT$core..str..error..Utf8Error$u20$as$u20$core..fmt..Debug$GT$3fmt17h8fabf9229ae9a84cE', symObjAddr: 0x0, symBinAddr: 0x10004EB40, symSize: 0x83 }
  - { offset: 0x9CA5A, size: 0x8, addend: 0x0, symName: '__ZN64_$LT$core..str..error..Utf8Error$u20$as$u20$core..fmt..Debug$GT$3fmt17h8fabf9229ae9a84cE', symObjAddr: 0x0, symBinAddr: 0x10004EB40, symSize: 0x83 }
  - { offset: 0x9CC37, size: 0x8, addend: 0x0, symName: '__ZN4core3ops8function5impls79_$LT$impl$u20$core..ops..function..FnMut$LT$A$GT$$u20$for$u20$$RF$mut$u20$F$GT$8call_mut17h6f30e8679f05f78dE', symObjAddr: 0x0, symBinAddr: 0x10004EBD0, symSize: 0x30 }
  - { offset: 0x9CC5D, size: 0x8, addend: 0x0, symName: '__ZN4core3ops8function5impls79_$LT$impl$u20$core..ops..function..FnMut$LT$A$GT$$u20$for$u20$$RF$mut$u20$F$GT$8call_mut17h6f30e8679f05f78dE', symObjAddr: 0x0, symBinAddr: 0x10004EBD0, symSize: 0x30 }
  - { offset: 0x9CF03, size: 0x8, addend: 0x0, symName: '__ZN6quiche5dgram13DatagramQueue14peek_front_len28_$u7b$$u7b$closure$u7d$$u7d$17hd5d5e5529f1f2377E', symObjAddr: 0x30, symBinAddr: 0x10004EC00, symSize: 0x20 }
  - { offset: 0x9CF3E, size: 0x8, addend: 0x0, symName: '__ZN6quiche5dgram13DatagramQueue14peek_front_len28_$u7b$$u7b$closure$u7d$$u7d$28_$u7b$$u7b$closure$u7d$$u7d$17h7ff131ecafe46ed6E', symObjAddr: 0x50, symBinAddr: 0x10004EC20, symSize: 0x20 }
  - { offset: 0x9CF89, size: 0x8, addend: 0x0, symName: '__ZN6quiche5dgram13DatagramQueue16peek_front_bytes28_$u7b$$u7b$closure$u7d$$u7d$17h1732281555286923E', symObjAddr: 0x70, symBinAddr: 0x10004EC40, symSize: 0x20 }
  - { offset: 0x9CFCC, size: 0x8, addend: 0x0, symName: '__ZN6quiche5dgram13DatagramQueue3pop28_$u7b$$u7b$closure$u7d$$u7d$17hbb317e74133c8c5aE', symObjAddr: 0x90, symBinAddr: 0x10004EC60, symSize: 0x30 }
  - { offset: 0x9D00F, size: 0x8, addend: 0x0, symName: '__ZN6quiche5dgram13DatagramQueue11has_pending28_$u7b$$u7b$closure$u7d$$u7d$17h8e560ae73339f8bcE', symObjAddr: 0xC0, symBinAddr: 0x10004EC90, symSize: 0x20 }
  - { offset: 0x9D052, size: 0x8, addend: 0x0, symName: '__ZN6quiche5dgram13DatagramQueue5purge28_$u7b$$u7b$closure$u7d$$u7d$17h043e3741fe1f41a7E', symObjAddr: 0x190, symBinAddr: 0x10004ED60, symSize: 0x40 }
  - { offset: 0x9D098, size: 0x8, addend: 0x0, symName: '__ZN6quiche5dgram13DatagramQueue5purge28_$u7b$$u7b$closure$u7d$$u7d$17hc7b6a45a027e5eabE', symObjAddr: 0x1D0, symBinAddr: 0x10004EDA0, symSize: 0x50 }
  - { offset: 0x9D0F2, size: 0x8, addend: 0x0, symName: '__ZN6quiche5dgram13DatagramQueue3len28_$u7b$$u7b$closure$u7d$$u7d$17hee688b9652205af8E', symObjAddr: 0x220, symBinAddr: 0x10004EDF0, symSize: 0x17 }
  - { offset: 0x9D338, size: 0x8, addend: 0x0, symName: __ZN6quiche5dgram13DatagramQueue5purge17hdce0539c53ab84dcE, symObjAddr: 0xE0, symBinAddr: 0x10004ECB0, symSize: 0xB0 }
  - { offset: 0x9D404, size: 0x8, addend: 0x0, symName: '__ZN106_$LT$core..iter..adapters..flatten..Flatten$LT$I$GT$$u20$as$u20$core..iter..traits..iterator..Iterator$GT$8try_fold17h7e46504ca4449fbdE', symObjAddr: 0x0, symBinAddr: 0x10004EE10, symSize: 0x20 }
  - { offset: 0x9D42A, size: 0x8, addend: 0x0, symName: '__ZN106_$LT$core..iter..adapters..flatten..Flatten$LT$I$GT$$u20$as$u20$core..iter..traits..iterator..Iterator$GT$8try_fold17h7e46504ca4449fbdE', symObjAddr: 0x0, symBinAddr: 0x10004EE10, symSize: 0x20 }
  - { offset: 0x9D49F, size: 0x8, addend: 0x0, symName: '__ZN106_$LT$core..iter..adapters..flatten..Flatten$LT$I$GT$$u20$as$u20$core..iter..traits..iterator..Iterator$GT$9size_hint17hbd836e854b7dd597E', symObjAddr: 0x20, symBinAddr: 0x10004EE30, symSize: 0x30 }
  - { offset: 0x9D4E3, size: 0x8, addend: 0x0, symName: '__ZN116_$LT$core..iter..adapters..flatten..FlattenCompat$LT$I$C$U$GT$$u20$as$u20$core..iter..traits..iterator..Iterator$GT$8try_fold17h9a9951542a916c27E', symObjAddr: 0x50, symBinAddr: 0x10004EE60, symSize: 0x20 }
  - { offset: 0x9D566, size: 0x8, addend: 0x0, symName: '__ZN116_$LT$core..iter..adapters..flatten..FlattenCompat$LT$I$C$U$GT$$u20$as$u20$core..iter..traits..iterator..Iterator$GT$8try_fold7flatten28_$u7b$$u7b$closure$u7d$$u7d$17hbd32d4ac07f082aaE', symObjAddr: 0x70, symBinAddr: 0x10004EE80, symSize: 0x30 }
  - { offset: 0x9D5ED, size: 0x8, addend: 0x0, symName: '__ZN116_$LT$core..iter..adapters..flatten..FlattenCompat$LT$I$C$U$GT$$u20$as$u20$core..iter..traits..iterator..Iterator$GT$9size_hint17h326639a8d8ee6bcaE', symObjAddr: 0xA0, symBinAddr: 0x10004EEB0, symSize: 0x910 }
  - { offset: 0x9DE38, size: 0x8, addend: 0x0, symName: '__ZN4core4iter8adapters7flatten26FlattenCompat$LT$I$C$U$GT$13iter_try_fold7flatten28_$u7b$$u7b$closure$u7d$$u7d$17hd43e526d55bbf0cdE', symObjAddr: 0xD50, symBinAddr: 0x10004FB60, symSize: 0x96 }
  - { offset: 0x9E060, size: 0x8, addend: 0x0, symName: __ZN4core4iter6traits8iterator8Iterator4find17h85d5e53984993064E, symObjAddr: 0x9B0, symBinAddr: 0x10004F7C0, symSize: 0x80 }
  - { offset: 0x9E0DB, size: 0x8, addend: 0x0, symName: __ZN4core4iter6traits8iterator8Iterator6filter17h9aab7f5fdaf2d3caE, symObjAddr: 0xA30, symBinAddr: 0x10004F840, symSize: 0x30 }
  - { offset: 0x9FAD3, size: 0x8, addend: 0x0, symName: '__ZN4core4iter8adapters7flatten26FlattenCompat$LT$I$C$U$GT$13iter_try_fold17hc12b9e852ca71395E', symObjAddr: 0xA60, symBinAddr: 0x10004F870, symSize: 0x2F0 }
  - { offset: 0x9FC5B, size: 0x8, addend: 0x0, symName: __ZN6quiche8recovery10congestion3bbr12per_transmit15bbr_on_transmit17hb25d1e6d173d6dc0E, symObjAddr: 0x0, symBinAddr: 0x10004FC00, symSize: 0x20 }
  - { offset: 0x9FCA5, size: 0x8, addend: 0x0, symName: __ZN6quiche8recovery10congestion3bbr12per_transmit15bbr_on_transmit17hb25d1e6d173d6dc0E, symObjAddr: 0x0, symBinAddr: 0x10004FC00, symSize: 0x20 }
  - { offset: 0x9FCDB, size: 0x8, addend: 0x0, symName: __ZN6quiche8recovery10congestion3bbr12per_transmit28bbr_handle_restart_from_idle17hdc723dd25dcd2691E, symObjAddr: 0x20, symBinAddr: 0x10004FC20, symSize: 0x72 }
  - { offset: 0xA1DA1, size: 0x8, addend: 0x0, symName: '__ZN68_$LT$quiche..recovery..rtt..RttStats$u20$as$u20$core..fmt..Debug$GT$3fmt17hb3807fff95283fe2E', symObjAddr: 0x0, symBinAddr: 0x10004FCA0, symSize: 0xD0 }
  - { offset: 0xA1F78, size: 0x8, addend: 0x0, symName: '__ZN68_$LT$quiche..recovery..rtt..RttStats$u20$as$u20$core..fmt..Debug$GT$3fmt17hb3807fff95283fe2E', symObjAddr: 0x0, symBinAddr: 0x10004FCA0, symSize: 0xD0 }
  - { offset: 0xA219F, size: 0x8, addend: 0x0, symName: __ZN6quiche8recovery3rtt8RttStats3new17h739065f0f12e3efeE, symObjAddr: 0xD0, symBinAddr: 0x10004FD70, symSize: 0xF0 }
  - { offset: 0xA21DC, size: 0x8, addend: 0x0, symName: __ZN6quiche8recovery3rtt8RttStats10update_rtt17hd28491bcfbb265afE, symObjAddr: 0x1C0, symBinAddr: 0x10004FE60, symSize: 0x300 }
  - { offset: 0xA225A, size: 0x8, addend: 0x0, symName: __ZN6quiche8recovery3rtt8RttStats3rtt17h424158a3d9f1c58eE, symObjAddr: 0x4C0, symBinAddr: 0x100050160, symSize: 0x20 }
  - { offset: 0xA227C, size: 0x8, addend: 0x0, symName: __ZN6quiche8recovery3rtt8RttStats6rttvar17h86f4bffdbe71e9aaE, symObjAddr: 0x4E0, symBinAddr: 0x100050180, symSize: 0x20 }
  - { offset: 0xA229E, size: 0x8, addend: 0x0, symName: __ZN6quiche8recovery3rtt8RttStats7min_rtt17hde11c07c7b9a0d4cE, symObjAddr: 0x500, symBinAddr: 0x1000501A0, symSize: 0x50 }
  - { offset: 0xA22C0, size: 0x8, addend: 0x0, symName: __ZN6quiche8recovery3rtt8RttStats7max_rtt17h98b5ccf5395f60c1E, symObjAddr: 0x550, symBinAddr: 0x1000501F0, symSize: 0x40 }
  - { offset: 0xA22E9, size: 0x8, addend: 0x0, symName: __ZN6quiche8recovery3rtt8RttStats10loss_delay17hd8e6f1f07c91af69E, symObjAddr: 0x590, symBinAddr: 0x100050230, symSize: 0x53 }
  - { offset: 0xA239A, size: 0x8, addend: 0x0, symName: __ZN3log13RecordBuilder11file_static17hf94a12d15a6134f8E, symObjAddr: 0x0, symBinAddr: 0x100050290, symSize: 0x50 }
  - { offset: 0xA2607, size: 0x8, addend: 0x0, symName: __ZN3log13set_max_level17hdaa2aaf1742f48d5E, symObjAddr: 0x270, symBinAddr: 0x100050500, symSize: 0x30 }
  - { offset: 0xA263B, size: 0x8, addend: 0x0, symName: __ZN3log14MaybeStaticStr6Static17h8b0b363f6ce2de57E, symObjAddr: 0x2A0, symBinAddr: 0x100050530, symSize: 0x20 }
  - { offset: 0xA26A7, size: 0x8, addend: 0x0, symName: '__ZN49_$LT$log..Level$u20$as$u20$core..clone..Clone$GT$5clone17h39ff2eca77d2bf41E', symObjAddr: 0x3E0, symBinAddr: 0x100050670, symSize: 0x10 }
  - { offset: 0xA26DB, size: 0x8, addend: 0x0, symName: '__ZN50_$LT$log..Record$u20$as$u20$core..clone..Clone$GT$5clone17hd94a559ad88b8519E', symObjAddr: 0x3F0, symBinAddr: 0x100050680, symSize: 0x110 }
  - { offset: 0xA270F, size: 0x8, addend: 0x0, symName: '__ZN52_$LT$log..Metadata$u20$as$u20$core..clone..Clone$GT$5clone17h1c681b86466caf5eE', symObjAddr: 0x500, symBinAddr: 0x100050790, symSize: 0x50 }
  - { offset: 0xA2743, size: 0x8, addend: 0x0, symName: '__ZN57_$LT$log..LevelFilter$u20$as$u20$core..cmp..PartialEq$GT$2eq17hd101cdfc7e8c0835E', symObjAddr: 0x550, symBinAddr: 0x1000507E0, symSize: 0x30 }
  - { offset: 0xA27C2, size: 0x8, addend: 0x0, symName: '__ZN58_$LT$log..MaybeStaticStr$u20$as$u20$core..clone..Clone$GT$5clone17h160a5eaee8f0113eE', symObjAddr: 0x580, symBinAddr: 0x100050810, symSize: 0x30 }
  - { offset: 0xA27F6, size: 0x8, addend: 0x0, symName: '__ZN76_$LT$log..Level$u20$as$u20$core..cmp..PartialOrd$LT$log..LevelFilter$GT$$GT$11partial_cmp17h47d6bac4f9935336E', symObjAddr: 0x5B0, symBinAddr: 0x100050840, symSize: 0x37 }
  - { offset: 0xA2E42, size: 0x8, addend: 0x0, symName: __ZN3log13RecordBuilder11file_static17hf94a12d15a6134f8E, symObjAddr: 0x0, symBinAddr: 0x100050290, symSize: 0x50 }
  - { offset: 0xA2E74, size: 0x8, addend: 0x0, symName: __ZN3log13RecordBuilder18module_path_static17h3db74ec5741a5116E, symObjAddr: 0x50, symBinAddr: 0x1000502E0, symSize: 0x50 }
  - { offset: 0xA2EA6, size: 0x8, addend: 0x0, symName: __ZN3log13RecordBuilder3new17h5c961fd404ce854eE, symObjAddr: 0xA0, symBinAddr: 0x100050330, symSize: 0x110 }
  - { offset: 0xA2EB9, size: 0x8, addend: 0x0, symName: __ZN3log13RecordBuilder4args17h7e104f91be3259c1E, symObjAddr: 0x1B0, symBinAddr: 0x100050440, symSize: 0x30 }
  - { offset: 0xA2EEC, size: 0x8, addend: 0x0, symName: __ZN3log13RecordBuilder4line17h08fcc1a99130457fE, symObjAddr: 0x1E0, symBinAddr: 0x100050470, symSize: 0x20 }
  - { offset: 0xA2F2B, size: 0x8, addend: 0x0, symName: __ZN3log13RecordBuilder5build17he211518721fc32b1E, symObjAddr: 0x200, symBinAddr: 0x100050490, symSize: 0x30 }
  - { offset: 0xA2F4E, size: 0x8, addend: 0x0, symName: __ZN3log13RecordBuilder5level17h959f8d373d3a56daE, symObjAddr: 0x230, symBinAddr: 0x1000504C0, symSize: 0x20 }
  - { offset: 0xA2F80, size: 0x8, addend: 0x0, symName: __ZN3log13RecordBuilder6target17h93dbaec27de34062E, symObjAddr: 0x250, symBinAddr: 0x1000504E0, symSize: 0x20 }
  - { offset: 0xA2FB2, size: 0x8, addend: 0x0, symName: __ZN3log15MetadataBuilder3new17hf86945475fdd0028E, symObjAddr: 0x2C0, symBinAddr: 0x100050550, symSize: 0x50 }
  - { offset: 0xA2FD2, size: 0x8, addend: 0x0, symName: __ZN3log15MetadataBuilder5build17hce6b3cd23b7910cbE, symObjAddr: 0x310, symBinAddr: 0x1000505A0, symSize: 0x30 }
  - { offset: 0xA300F, size: 0x8, addend: 0x0, symName: __ZN3log6Record4args17hd2776409362bd4faE, symObjAddr: 0x340, symBinAddr: 0x1000505D0, symSize: 0x20 }
  - { offset: 0xA3032, size: 0x8, addend: 0x0, symName: __ZN3log6Record6target17hc82d37f53e0de462E, symObjAddr: 0x360, symBinAddr: 0x1000505F0, symSize: 0x20 }
  - { offset: 0xA3055, size: 0x8, addend: 0x0, symName: __ZN3log6Record7builder17h5328c7f0166123ecE, symObjAddr: 0x380, symBinAddr: 0x100050610, symSize: 0x20 }
  - { offset: 0xA3075, size: 0x8, addend: 0x0, symName: __ZN3log8Metadata6target17h4ca5e9b096f8532fE, symObjAddr: 0x3A0, symBinAddr: 0x100050630, symSize: 0x20 }
  - { offset: 0xA3098, size: 0x8, addend: 0x0, symName: __ZN3log8Metadata7builder17h2c39e95f5783457aE, symObjAddr: 0x3C0, symBinAddr: 0x100050650, symSize: 0x20 }
  - { offset: 0xA30F7, size: 0x8, addend: 0x0, symName: '__ZN50_$LT$T$u20$as$u20$core..convert..Into$LT$U$GT$$GT$4into17hb6883954d68e38e1E', symObjAddr: 0x0, symBinAddr: 0x100050880, symSize: 0x30 }
  - { offset: 0xA3113, size: 0x8, addend: 0x0, symName: '__ZN50_$LT$T$u20$as$u20$core..convert..Into$LT$U$GT$$GT$4into17hb6883954d68e38e1E', symObjAddr: 0x0, symBinAddr: 0x100050880, symSize: 0x30 }
  - { offset: 0xA3257, size: 0x8, addend: 0x0, symName: '__ZN6quiche3ffi32quiche_conn_stream_readable_next28_$u7b$$u7b$closure$u7d$$u7d$17hb76e8aa2d1f79f27E', symObjAddr: 0x30, symBinAddr: 0x1000508B0, symSize: 0x10 }
  - { offset: 0xA329D, size: 0x8, addend: 0x0, symName: '__ZN6quiche3ffi32quiche_conn_stream_writable_next28_$u7b$$u7b$closure$u7d$$u7d$17hc181dce9089a830bE', symObjAddr: 0x40, symBinAddr: 0x1000508C0, symSize: 0x10 }
  - { offset: 0xA32E3, size: 0x8, addend: 0x0, symName: '__ZN6quiche3ffi32quiche_conn_dgram_purge_outgoing28_$u7b$$u7b$closure$u7d$$u7d$17h097ae38dec4e9f02E', symObjAddr: 0x50, symBinAddr: 0x1000508D0, symSize: 0x47 }
  - { offset: 0xA34EA, size: 0x8, addend: 0x0, symName: '__ZN5alloc5slice30_$LT$impl$u20$$u5b$u8$u5d$$GT$18to_ascii_lowercase17h4adb1f5a39177c0dE', symObjAddr: 0x0, symBinAddr: 0x100050920, symSize: 0x198 }
  - { offset: 0xA3570, size: 0x8, addend: 0x0, symName: '__ZN5alloc5slice30_$LT$impl$u20$$u5b$u8$u5d$$GT$18to_ascii_lowercase17h4adb1f5a39177c0dE', symObjAddr: 0x0, symBinAddr: 0x100050920, symSize: 0x198 }
  - { offset: 0xA3BF9, size: 0x8, addend: 0x0, symName: __ZN4core4iter6traits8iterator8Iterator4fold17hcd331a25456ac28cE, symObjAddr: 0x0, symBinAddr: 0x100050AC0, symSize: 0x150 }
  - { offset: 0xA4E5E, size: 0x8, addend: 0x0, symName: __ZN4core4iter6traits8iterator8Iterator4fold17hcd331a25456ac28cE, symObjAddr: 0x0, symBinAddr: 0x100050AC0, symSize: 0x150 }
  - { offset: 0xA4F01, size: 0x8, addend: 0x0, symName: '__ZN63_$LT$I$u20$as$u20$core..iter..traits..collect..IntoIterator$GT$9into_iter17ha817360d5f69d56dE', symObjAddr: 0x150, symBinAddr: 0x100050C10, symSize: 0x30 }
  - { offset: 0xA593C, size: 0x8, addend: 0x0, symName: '__ZN96_$LT$alloc..vec..drain..Drain$LT$T$C$A$GT$$u20$as$u20$core..iter..traits..iterator..Iterator$GT$4next17h5232a6055a6b0facE', symObjAddr: 0x180, symBinAddr: 0x100050C40, symSize: 0x9D }
  - { offset: 0xA6180, size: 0x8, addend: 0x0, symName: __ZN4core4iter6traits8iterator8Iterator10filter_map17h24d349529c27e1a3E, symObjAddr: 0x0, symBinAddr: 0x100050CE0, symSize: 0x30 }
  - { offset: 0xA8C5E, size: 0x8, addend: 0x0, symName: __ZN4core4iter6traits8iterator8Iterator10filter_map17h24d349529c27e1a3E, symObjAddr: 0x0, symBinAddr: 0x100050CE0, symSize: 0x30 }
  - { offset: 0xA8CCB, size: 0x8, addend: 0x0, symName: __ZN4core4iter6traits8iterator8Iterator3any17h97d2613f682c17e5E, symObjAddr: 0x30, symBinAddr: 0x100050D10, symSize: 0x40 }
  - { offset: 0xA8D1A, size: 0x8, addend: 0x0, symName: __ZN4core4iter6traits8iterator8Iterator3map17h0326c35eea021a67E, symObjAddr: 0x70, symBinAddr: 0x100050D50, symSize: 0x30 }
  - { offset: 0xA8D87, size: 0x8, addend: 0x0, symName: __ZN4core4iter6traits8iterator8Iterator3map17h6093e0a0cb4c1c5bE, symObjAddr: 0xA0, symBinAddr: 0x100050D80, symSize: 0x30 }
  - { offset: 0xA8DF4, size: 0x8, addend: 0x0, symName: __ZN4core4iter6traits8iterator8Iterator4find17h2116f625ba3de8f7E, symObjAddr: 0xD0, symBinAddr: 0x100050DB0, symSize: 0x90 }
  - { offset: 0xA8E6F, size: 0x8, addend: 0x0, symName: __ZN4core4iter6traits8iterator8Iterator4find17h66021cb32c74dbb9E, symObjAddr: 0x160, symBinAddr: 0x100050E40, symSize: 0x90 }
  - { offset: 0xA8EEA, size: 0x8, addend: 0x0, symName: __ZN4core4iter6traits8iterator8Iterator4find17h8994557a2a60efa4E, symObjAddr: 0x1F0, symBinAddr: 0x100050ED0, symSize: 0x90 }
  - { offset: 0xA8F65, size: 0x8, addend: 0x0, symName: __ZN4core4iter6traits8iterator8Iterator4find17h9c5c2f00cdf69f7aE, symObjAddr: 0x280, symBinAddr: 0x100050F60, symSize: 0x90 }
  - { offset: 0xA8FE0, size: 0x8, addend: 0x0, symName: __ZN4core4iter6traits8iterator8Iterator4find17ha966d5475618159cE, symObjAddr: 0x310, symBinAddr: 0x100050FF0, symSize: 0x90 }
  - { offset: 0xA905B, size: 0x8, addend: 0x0, symName: __ZN4core4iter6traits8iterator8Iterator4find17hd268b292edef4943E, symObjAddr: 0x3A0, symBinAddr: 0x100051080, symSize: 0x90 }
  - { offset: 0xA90D6, size: 0x8, addend: 0x0, symName: __ZN4core4iter6traits8iterator8Iterator4fold17h995058b4b0e16fdcE, symObjAddr: 0x430, symBinAddr: 0x100051110, symSize: 0x140 }
  - { offset: 0xA916C, size: 0x8, addend: 0x0, symName: __ZN4core4iter6traits8iterator8Iterator4fold17hbb72881bdca48fbaE, symObjAddr: 0x570, symBinAddr: 0x100051250, symSize: 0x100 }
  - { offset: 0xA9202, size: 0x8, addend: 0x0, symName: __ZN4core4iter6traits8iterator8Iterator4fold17he910cf6e801ee96eE, symObjAddr: 0x670, symBinAddr: 0x100051350, symSize: 0x140 }
  - { offset: 0xA9298, size: 0x8, addend: 0x0, symName: __ZN4core4iter6traits8iterator8Iterator6filter17h0809933f988fdea1E, symObjAddr: 0x7B0, symBinAddr: 0x100051490, symSize: 0x30 }
  - { offset: 0xA92FC, size: 0x8, addend: 0x0, symName: __ZN4core4iter6traits8iterator8Iterator6filter17h66c42e34cb7a3702E, symObjAddr: 0x7E0, symBinAddr: 0x1000514C0, symSize: 0x30 }
  - { offset: 0xA9360, size: 0x8, addend: 0x0, symName: __ZN4core4iter6traits8iterator8Iterator6filter17h9aaf2fe80f18492aE, symObjAddr: 0x810, symBinAddr: 0x1000514F0, symSize: 0x30 }
  - { offset: 0xA93C4, size: 0x8, addend: 0x0, symName: __ZN4core4iter6traits8iterator8Iterator6filter17hbe3a23a395498ca4E, symObjAddr: 0x840, symBinAddr: 0x100051520, symSize: 0x30 }
  - { offset: 0xA9428, size: 0x8, addend: 0x0, symName: __ZN4core4iter6traits8iterator8Iterator6filter17he836c77532908356E, symObjAddr: 0x870, symBinAddr: 0x100051550, symSize: 0x30 }
  - { offset: 0xA948C, size: 0x8, addend: 0x0, symName: __ZN4core4iter6traits8iterator8Iterator8find_map17h5dc6c0603f0853bfE, symObjAddr: 0x8A0, symBinAddr: 0x100051580, symSize: 0x80 }
  - { offset: 0xA9510, size: 0x8, addend: 0x0, symName: __ZN4core4iter6traits8iterator8Iterator8try_fold17h01b8a41ae5028f3dE, symObjAddr: 0x920, symBinAddr: 0x100051600, symSize: 0x1A0 }
  - { offset: 0xA95C3, size: 0x8, addend: 0x0, symName: __ZN4core4iter6traits8iterator8Iterator8try_fold17h5694fc114993e835E, symObjAddr: 0xAC0, symBinAddr: 0x1000517A0, symSize: 0x1A0 }
  - { offset: 0xA9676, size: 0x8, addend: 0x0, symName: __ZN4core4iter6traits8iterator8Iterator8try_fold17h5fdc0ee6f09eb19fE, symObjAddr: 0xC60, symBinAddr: 0x100051940, symSize: 0x190 }
  - { offset: 0xA972A, size: 0x8, addend: 0x0, symName: __ZN4core4iter6traits8iterator8Iterator8try_fold17h66c9ef1625b78354E, symObjAddr: 0xDF0, symBinAddr: 0x100051AD0, symSize: 0x1A0 }
  - { offset: 0xA97DD, size: 0x8, addend: 0x0, symName: __ZN4core4iter6traits8iterator8Iterator8try_fold17h7cb088661e68bc21E, symObjAddr: 0xF90, symBinAddr: 0x100051C70, symSize: 0x1A0 }
  - { offset: 0xA9890, size: 0x8, addend: 0x0, symName: __ZN4core4iter6traits8iterator8Iterator8try_fold17h8811062dc506d1adE, symObjAddr: 0x1130, symBinAddr: 0x100051E10, symSize: 0x190 }
  - { offset: 0xA9943, size: 0x8, addend: 0x0, symName: __ZN4core4iter6traits8iterator8Iterator8try_fold17h8e2c0c140c2f9392E, symObjAddr: 0x12C0, symBinAddr: 0x100051FA0, symSize: 0x1A0 }
  - { offset: 0xA99F6, size: 0x8, addend: 0x0, symName: __ZN4core4iter6traits8iterator8Iterator8try_fold17hb832529df00ff869E, symObjAddr: 0x1460, symBinAddr: 0x100052140, symSize: 0x110 }
  - { offset: 0xA9AA9, size: 0x8, addend: 0x0, symName: __ZN4core4iter6traits8iterator8Iterator8try_fold17hd4b1b3a06330d638E, symObjAddr: 0x1570, symBinAddr: 0x100052250, symSize: 0x140 }
  - { offset: 0xA9B5C, size: 0x8, addend: 0x0, symName: __ZN4core4iter6traits8iterator8Iterator8try_fold17he99a96221573a63aE, symObjAddr: 0x16B0, symBinAddr: 0x100052390, symSize: 0x1A0 }
  - { offset: 0xA9C0F, size: 0x8, addend: 0x0, symName: __ZN4core4iter6traits8iterator8Iterator8try_fold17hf30a03dba3b3e119E, symObjAddr: 0x1850, symBinAddr: 0x100052530, symSize: 0x1A0 }
  - { offset: 0xA9CC2, size: 0x8, addend: 0x0, symName: __ZN4core4iter6traits8iterator8Iterator8try_fold17hf715195993a469bbE, symObjAddr: 0x19F0, symBinAddr: 0x1000526D0, symSize: 0x1A0 }
  - { offset: 0xA9EAE, size: 0x8, addend: 0x0, symName: '__ZN63_$LT$I$u20$as$u20$core..iter..traits..collect..IntoIterator$GT$9into_iter17h0ff8843599313cbfE', symObjAddr: 0x24D0, symBinAddr: 0x1000531B0, symSize: 0x30 }
  - { offset: 0xA9EE5, size: 0x8, addend: 0x0, symName: '__ZN63_$LT$I$u20$as$u20$core..iter..traits..collect..IntoIterator$GT$9into_iter17h5ebec5238e562742E', symObjAddr: 0x2500, symBinAddr: 0x1000531E0, symSize: 0x30 }
  - { offset: 0xAAFAA, size: 0x8, addend: 0x0, symName: '__ZN4core5slice29_$LT$impl$u20$$u5b$T$u5d$$GT$3get17h5d0916253b5a3937E', symObjAddr: 0x1B90, symBinAddr: 0x100052870, symSize: 0x30 }
  - { offset: 0xAAFF9, size: 0x8, addend: 0x0, symName: '__ZN4core5slice29_$LT$impl$u20$$u5b$T$u5d$$GT$4iter17h1d592af71fa308f4E', symObjAddr: 0x1BC0, symBinAddr: 0x1000528A0, symSize: 0x20 }
  - { offset: 0xAB030, size: 0x8, addend: 0x0, symName: '__ZN4core5slice29_$LT$impl$u20$$u5b$T$u5d$$GT$7get_mut17h27fe4c6f095b3b94E', symObjAddr: 0x1BE0, symBinAddr: 0x1000528C0, symSize: 0x30 }
  - { offset: 0xAB07F, size: 0x8, addend: 0x0, symName: '__ZN4core5slice29_$LT$impl$u20$$u5b$T$u5d$$GT$8iter_mut17h545d996b6249bb01E', symObjAddr: 0x1C10, symBinAddr: 0x1000528F0, symSize: 0x20 }
  - { offset: 0xAB8A6, size: 0x8, addend: 0x0, symName: '__ZN78_$LT$slab..Iter$LT$T$GT$$u20$as$u20$core..iter..traits..iterator..Iterator$GT$4next17h3b729ce5759816b7E', symObjAddr: 0x2530, symBinAddr: 0x100053210, symSize: 0x170 }
  - { offset: 0xAB97D, size: 0x8, addend: 0x0, symName: '__ZN78_$LT$slab..Iter$LT$T$GT$$u20$as$u20$core..iter..traits..iterator..Iterator$GT$9size_hint17h616b28ad2a0dd55cE', symObjAddr: 0x26A0, symBinAddr: 0x100053380, symSize: 0x40 }
  - { offset: 0xAB9BA, size: 0x8, addend: 0x0, symName: '__ZN81_$LT$slab..IterMut$LT$T$GT$$u20$as$u20$core..iter..traits..iterator..Iterator$GT$4next17h83dea0098b6a747fE', symObjAddr: 0x26E0, symBinAddr: 0x1000533C0, symSize: 0x16D }
  - { offset: 0xAC978, size: 0x8, addend: 0x0, symName: '__ZN4slab13Slab$LT$T$GT$10try_remove17ha777fee975c1ae1cE', symObjAddr: 0x1C30, symBinAddr: 0x100052910, symSize: 0x250 }
  - { offset: 0xAC9F8, size: 0x8, addend: 0x0, symName: '__ZN4slab13Slab$LT$T$GT$13with_capacity17h494b8a994fb6c117E', symObjAddr: 0x1E80, symBinAddr: 0x100052B60, symSize: 0x60 }
  - { offset: 0xACA31, size: 0x8, addend: 0x0, symName: '__ZN4slab13Slab$LT$T$GT$3get17hb773b468f7f36240E', symObjAddr: 0x1EE0, symBinAddr: 0x100052BC0, symSize: 0x90 }
  - { offset: 0xACA8A, size: 0x8, addend: 0x0, symName: '__ZN4slab13Slab$LT$T$GT$3len17h2d0db5e6ff485914E', symObjAddr: 0x1F70, symBinAddr: 0x100052C50, symSize: 0x10 }
  - { offset: 0xACAB6, size: 0x8, addend: 0x0, symName: '__ZN4slab13Slab$LT$T$GT$4iter17hc87cd229ab0fcdb2E', symObjAddr: 0x1F80, symBinAddr: 0x100052C60, symSize: 0x70 }
  - { offset: 0xACAE2, size: 0x8, addend: 0x0, symName: '__ZN4slab13Slab$LT$T$GT$6insert17h766e23569401ffa3E', symObjAddr: 0x1FF0, symBinAddr: 0x100052CD0, symSize: 0x30 }
  - { offset: 0xACB67, size: 0x8, addend: 0x0, symName: '__ZN4slab13Slab$LT$T$GT$6remove17h7babe1625a2063afE', symObjAddr: 0x2020, symBinAddr: 0x100052D00, symSize: 0x70 }
  - { offset: 0xACBA2, size: 0x8, addend: 0x0, symName: '__ZN4slab13Slab$LT$T$GT$7get_mut17hc5be8400f9901c37E', symObjAddr: 0x2090, symBinAddr: 0x100052D70, symSize: 0x90 }
  - { offset: 0xACBFB, size: 0x8, addend: 0x0, symName: '__ZN4slab13Slab$LT$T$GT$8iter_mut17h716d64fbf8becbe7E', symObjAddr: 0x2120, symBinAddr: 0x100052E00, symSize: 0x70 }
  - { offset: 0xACC27, size: 0x8, addend: 0x0, symName: '__ZN4slab13Slab$LT$T$GT$9insert_at17hc7f3951569abbef7E', symObjAddr: 0x2190, symBinAddr: 0x100052E70, symSize: 0x340 }
  - { offset: 0xACE21, size: 0x8, addend: 0x0, symName: '__ZN100_$LT$core..array..iter..iter_inner..PolymorphicIter$LT$DATA$GT$$u20$as$u20$core..ops..drop..Drop$GT$4drop17h08397a6465354c60E', symObjAddr: 0x0, symBinAddr: 0x100053530, symSize: 0x30 }
  - { offset: 0xB0499, size: 0x8, addend: 0x0, symName: '__ZN88_$LT$quiche..stream..send_buf..SendReserve$LT$F$GT$$u20$as$u20$core..ops..drop..Drop$GT$4drop17h5330d37381c7a086E', symObjAddr: 0xAE40, symBinAddr: 0x10005E370, symSize: 0x70 }
  - { offset: 0xB0C88, size: 0x8, addend: 0x0, symName: '__ZN62_$LT$quiche..tls..Context$u20$as$u20$core..ops..drop..Drop$GT$4drop17ha6789e226aa3a22eE', symObjAddr: 0xAEB0, symBinAddr: 0x10005E3E0, symSize: 0x20 }
  - { offset: 0xB0CB8, size: 0x8, addend: 0x0, symName: '__ZN64_$LT$quiche..tls..Handshake$u20$as$u20$core..ops..drop..Drop$GT$4drop17hf8a5fb8cf35fd9c6E', symObjAddr: 0xAED0, symBinAddr: 0x10005E400, symSize: 0x1F }
  - { offset: 0xB2DC4, size: 0x8, addend: 0x0, symName: '__ZN4core3ptr100drop_in_place$LT$core..option..Option$LT$$LP$quiche..crypto..Open$C$quiche..crypto..Seal$RP$$GT$$GT$17h8e733433d73907eeE', symObjAddr: 0x1E30, symBinAddr: 0x100055360, symSize: 0x40 }
  - { offset: 0xB2DF3, size: 0x8, addend: 0x0, symName: '__ZN4core3ptr100drop_in_place$LT$core..option..Option$LT$quiche..recovery..gcongestion..recovery..SentPacket$GT$$GT$17hed74ed1db985f9a2E', symObjAddr: 0x1E70, symBinAddr: 0x1000553A0, symSize: 0x40 }
  - { offset: 0xB2E22, size: 0x8, addend: 0x0, symName: '__ZN4core3ptr100drop_in_place$LT$core..result..Result$LT$$LP$u64$C$quiche..h3..Event$RP$$C$quiche..h3..Error$GT$$GT$17ha08361ecd47d76e7E', symObjAddr: 0x1EB0, symBinAddr: 0x1000553E0, symSize: 0x40 }
  - { offset: 0xB2E51, size: 0x8, addend: 0x0, symName: '__ZN4core3ptr101drop_in_place$LT$core..option..Option$LT$$LP$alloc..vec..Vec$LT$u8$GT$$C$quiche..RecvInfo$RP$$GT$$GT$17ha69b4066deae46f3E', symObjAddr: 0x1EF0, symBinAddr: 0x100055420, symSize: 0x40 }
  - { offset: 0xB2E80, size: 0x8, addend: 0x0, symName: '__ZN4core3ptr101drop_in_place$LT$std..io..error..ErrorData$LT$alloc..boxed..Box$LT$std..io..error..Custom$GT$$GT$$GT$17h8e01d5bebdcc0408E', symObjAddr: 0x1F30, symBinAddr: 0x100055460, symSize: 0x30 }
  - { offset: 0xB2EAF, size: 0x8, addend: 0x0, symName: '__ZN4core3ptr102drop_in_place$LT$alloc..collections..btree..map..BTreeMap$LT$u64$C$quiche..range_buf..RangeBuf$GT$$GT$17he93c978f295c7119E', symObjAddr: 0x1F60, symBinAddr: 0x100055490, symSize: 0x20 }
  - { offset: 0xB2EDE, size: 0x8, addend: 0x0, symName: '__ZN4core3ptr102drop_in_place$LT$alloc..collections..btree..map..IntoIter$LT$u64$C$quiche..range_buf..RangeBuf$GT$$GT$17h7785b7f79a28c7f5E', symObjAddr: 0x1F80, symBinAddr: 0x1000554B0, symSize: 0x20 }
  - { offset: 0xB2F0D, size: 0x8, addend: 0x0, symName: '__ZN4core3ptr102drop_in_place$LT$alloc..collections..vec_deque..drain..Drain$LT$quiche..cid..ConnectionIdEntry$GT$$GT$17haa387a78970089c7E', symObjAddr: 0x1FA0, symBinAddr: 0x1000554D0, symSize: 0x20 }
  - { offset: 0xB2F3C, size: 0x8, addend: 0x0, symName: '__ZN4core3ptr102drop_in_place$LT$alloc..raw_vec..RawVec$LT$quiche..recovery..gcongestion..recovery..SentPacket$GT$$GT$17hff91c12641404f0fE', symObjAddr: 0x1FC0, symBinAddr: 0x1000554F0, symSize: 0x20 }
  - { offset: 0xB2F6B, size: 0x8, addend: 0x0, symName: '__ZN4core3ptr102drop_in_place$LT$quiche..stream..send_buf..SendReserve$LT$quiche..range_buf..DefaultBufFactory$GT$$GT$17h5994573268729b11E', symObjAddr: 0x1FE0, symBinAddr: 0x100055510, symSize: 0x20 }
  - { offset: 0xB2F9A, size: 0x8, addend: 0x0, symName: '__ZN4core3ptr102drop_in_place$LT$smallvec..SmallVec$LT$$u5b$core..net..socket_addr..SocketAddr$u3b$$u20$8$u5d$$GT$$GT$17he046a29263e6083fE', symObjAddr: 0x2000, symBinAddr: 0x100055530, symSize: 0x20 }
  - { offset: 0xB2FC9, size: 0x8, addend: 0x0, symName: '__ZN4core3ptr103drop_in_place$LT$alloc..raw_vec..RawVec$LT$$LP$alloc..vec..Vec$LT$u8$GT$$C$quiche..RecvInfo$RP$$GT$$GT$17h116cadc1a9d0fd96E', symObjAddr: 0x2020, symBinAddr: 0x100055550, symSize: 0x20 }
  - { offset: 0xB2FF8, size: 0x8, addend: 0x0, symName: '__ZN4core3ptr103drop_in_place$LT$alloc..raw_vec..RawVec$LT$$LP$alloc..vec..Vec$LT$u8$GT$$C$quiche..SendInfo$RP$$GT$$GT$17h145e303ee6166664E', symObjAddr: 0x2040, symBinAddr: 0x100055570, symSize: 0x20 }
  - { offset: 0xB3027, size: 0x8, addend: 0x0, symName: '__ZN4core3ptr104drop_in_place$LT$alloc..boxed..Box$LT$alloc..collections..btree..node..LeafNode$LT$u64$C$u64$GT$$GT$$GT$17hf5e97667983eb2acE', symObjAddr: 0x2060, symBinAddr: 0x100055590, symSize: 0x20 }
  - { offset: 0xB3056, size: 0x8, addend: 0x0, symName: '__ZN4core3ptr106drop_in_place$LT$alloc..sync..Weak$LT$quiche..stream..StreamPriorityKey$C$$RF$alloc..alloc..Global$GT$$GT$17h24c393a88be093caE', symObjAddr: 0x2080, symBinAddr: 0x1000555B0, symSize: 0x20 }
  - { offset: 0xB3085, size: 0x8, addend: 0x0, symName: '__ZN4core3ptr106drop_in_place$LT$core..option..Option$LT$alloc..sync..Arc$LT$quiche..stream..StreamPriorityKey$GT$$GT$$GT$17h4189d976f4c42cc4E', symObjAddr: 0x20A0, symBinAddr: 0x1000555D0, symSize: 0x40 }
  - { offset: 0xB30B4, size: 0x8, addend: 0x0, symName: '__ZN4core3ptr108drop_in_place$LT$alloc..boxed..Box$LT$alloc..collections..btree..node..InternalNode$LT$u64$C$u64$GT$$GT$$GT$17h7f63d887694610f9E', symObjAddr: 0x20E0, symBinAddr: 0x100055610, symSize: 0x20 }
  - { offset: 0xB30E3, size: 0x8, addend: 0x0, symName: '__ZN4core3ptr110drop_in_place$LT$alloc..sync..Weak$LT$alloc..boxed..Box$LT$$u5b$u8$u5d$$GT$$C$$RF$alloc..alloc..Global$GT$$GT$17h98ae73432a020a7eE', symObjAddr: 0x2100, symBinAddr: 0x100055630, symSize: 0x20 }
  - { offset: 0xB3112, size: 0x8, addend: 0x0, symName: '__ZN4core3ptr110drop_in_place$LT$alloc..vec..Vec$LT$quiche..UnknownTransportParameter$LT$alloc..vec..Vec$LT$u8$GT$$GT$$GT$$GT$17h54659dfa17c3cf05E', symObjAddr: 0x2120, symBinAddr: 0x100055650, symSize: 0x50 }
  - { offset: 0xB3141, size: 0x8, addend: 0x0, symName: '__ZN4core3ptr111drop_in_place$LT$alloc..raw_vec..RawVec$LT$$LP$$u5b$u8$u3b$$u20$8$u5d$$C$usize$C$std..time..Instant$RP$$GT$$GT$17h2ebc31f5c885da82E', symObjAddr: 0x2170, symBinAddr: 0x1000556A0, symSize: 0x20 }
  - { offset: 0xB3170, size: 0x8, addend: 0x0, symName: '__ZN4core3ptr111drop_in_place$LT$intrusive_collections..rbtree..RBTree$LT$quiche..stream..StreamReadablePriorityAdapter$GT$$GT$17hf5f23990bb9abcd1E', symObjAddr: 0x2190, symBinAddr: 0x1000556C0, symSize: 0x20 }
  - { offset: 0xB319F, size: 0x8, addend: 0x0, symName: '__ZN4core3ptr111drop_in_place$LT$intrusive_collections..rbtree..RBTree$LT$quiche..stream..StreamWritablePriorityAdapter$GT$$GT$17h7b6a421f8b945da2E', symObjAddr: 0x21B0, symBinAddr: 0x1000556E0, symSize: 0x20 }
  - { offset: 0xB31CE, size: 0x8, addend: 0x0, symName: '__ZN4core3ptr112drop_in_place$LT$alloc..vec..into_iter..IntoIter$LT$$LP$alloc..vec..Vec$LT$u8$GT$$C$quiche..SendInfo$RP$$GT$$GT$17h054b4148dcc29ad2E', symObjAddr: 0x21D0, symBinAddr: 0x100055700, symSize: 0x20 }
  - { offset: 0xB31FD, size: 0x8, addend: 0x0, symName: '__ZN4core3ptr112drop_in_place$LT$intrusive_collections..rbtree..RBTree$LT$quiche..stream..StreamFlushablePriorityAdapter$GT$$GT$17h34754e80eca5d112E', symObjAddr: 0x21F0, symBinAddr: 0x100055720, symSize: 0x20 }
  - { offset: 0xB322C, size: 0x8, addend: 0x0, symName: '__ZN4core3ptr114drop_in_place$LT$alloc..boxed..Box$LT$dyn$u20$std..io..Write$u2b$core..marker..Sync$u2b$core..marker..Send$GT$$GT$17haebb4392ea0c690eE', symObjAddr: 0x2210, symBinAddr: 0x100055740, symSize: 0x70 }
  - { offset: 0xB325B, size: 0x8, addend: 0x0, symName: '__ZN4core3ptr114drop_in_place$LT$alloc..raw_vec..RawVec$LT$quiche..recovery..gcongestion..bbr..bandwidth_sampler..AckPoint$GT$$GT$17h58c0a5e8afa8a6c4E', symObjAddr: 0x2280, symBinAddr: 0x1000557B0, symSize: 0x20 }
  - { offset: 0xB328A, size: 0x8, addend: 0x0, symName: '__ZN4core3ptr117drop_in_place$LT$alloc..raw_vec..RawVec$LT$quiche..UnknownTransportParameter$LT$alloc..vec..Vec$LT$u8$GT$$GT$$GT$$GT$17h4ecdcab2edc2409bE', symObjAddr: 0x22A0, symBinAddr: 0x1000557D0, symSize: 0x20 }
  - { offset: 0xB32B9, size: 0x8, addend: 0x0, symName: '__ZN4core3ptr118drop_in_place$LT$alloc..boxed..Box$LT$dyn$u20$core..error..Error$u2b$core..marker..Sync$u2b$core..marker..Send$GT$$GT$17hd24ceffffde3f59dE', symObjAddr: 0x22C0, symBinAddr: 0x1000557F0, symSize: 0x70 }
  - { offset: 0xB32E8, size: 0x8, addend: 0x0, symName: '__ZN4core3ptr119drop_in_place$LT$alloc..collections..vec_deque..VecDeque$LT$quiche..recovery..gcongestion..recovery..SentPacket$GT$$GT$17h70ac33b87c63308bE', symObjAddr: 0x2330, symBinAddr: 0x100055860, symSize: 0x50 }
  - { offset: 0xB3317, size: 0x8, addend: 0x0, symName: '__ZN4core3ptr120drop_in_place$LT$alloc..collections..vec_deque..VecDeque$LT$$LP$alloc..vec..Vec$LT$u8$GT$$C$quiche..RecvInfo$RP$$GT$$GT$17ha669938610287a6fE', symObjAddr: 0x2380, symBinAddr: 0x1000558B0, symSize: 0x50 }
  - { offset: 0xB3346, size: 0x8, addend: 0x0, symName: '__ZN4core3ptr121drop_in_place$LT$core..option..Option$LT$alloc..collections..vec_deque..VecDeque$LT$alloc..vec..Vec$LT$u8$GT$$GT$$GT$$GT$17h2aa98e6d670e067dE', symObjAddr: 0x23D0, symBinAddr: 0x100055900, symSize: 0x40 }
  - { offset: 0xB3375, size: 0x8, addend: 0x0, symName: '__ZN4core3ptr122drop_in_place$LT$alloc..collections..vec_deque..VecDeque$LT$T$C$A$GT$..truncate..Dropper$LT$quiche..recovery..Sent$GT$$GT$17h268373a28efc5529E', symObjAddr: 0x2410, symBinAddr: 0x100055940, symSize: 0x20 }
  - { offset: 0xB33A4, size: 0x8, addend: 0x0, symName: '__ZN4core3ptr123drop_in_place$LT$alloc..collections..vec_deque..drain..Drain$LT$quiche..recovery..gcongestion..recovery..SentPacket$GT$$GT$17h936004fc631af307E', symObjAddr: 0x2430, symBinAddr: 0x100055960, symSize: 0x20 }
  - { offset: 0xB33D3, size: 0x8, addend: 0x0, symName: '__ZN4core3ptr124drop_in_place$LT$std..io..default_write_fmt..Adapter$LT$std..io..buffered..bufwriter..BufWriter$LT$std..fs..File$GT$$GT$$GT$17h39181b630ef49d24E', symObjAddr: 0x2450, symBinAddr: 0x100055980, symSize: 0x20 }
  - { offset: 0xB3402, size: 0x8, addend: 0x0, symName: '__ZN4core3ptr125drop_in_place$LT$alloc..collections..vec_deque..VecDeque$LT$T$C$A$GT$..truncate..Dropper$LT$alloc..vec..Vec$LT$u8$GT$$GT$$GT$17hddcabc2f6f9040c5E', symObjAddr: 0x2470, symBinAddr: 0x1000559A0, symSize: 0x20 }
  - { offset: 0xB3431, size: 0x8, addend: 0x0, symName: '__ZN4core3ptr126drop_in_place$LT$hashbrown..set..HashSet$LT$u64$C$core..hash..BuildHasherDefault$LT$quiche..stream..StreamIdHasher$GT$$GT$$GT$17h58451051b8638e45E', symObjAddr: 0x2490, symBinAddr: 0x1000559C0, symSize: 0x20 }
  - { offset: 0xB3460, size: 0x8, addend: 0x0, symName: '__ZN4core3ptr127drop_in_place$LT$alloc..collections..vec_deque..VecDeque$LT$T$C$A$GT$..truncate..Dropper$LT$quiche..range_buf..RangeBuf$GT$$GT$17h013a414195b9e068E', symObjAddr: 0x24B0, symBinAddr: 0x1000559E0, symSize: 0x20 }
  - { offset: 0xB348F, size: 0x8, addend: 0x0, symName: '__ZN4core3ptr128drop_in_place$LT$alloc..boxed..Box$LT$alloc..collections..btree..node..LeafNode$LT$u64$C$quiche..range_buf..RangeBuf$GT$$GT$$GT$17h1a2499b63f4533bcE', symObjAddr: 0x24D0, symBinAddr: 0x100055A00, symSize: 0x20 }
  - { offset: 0xB34BE, size: 0x8, addend: 0x0, symName: '__ZN4core3ptr128drop_in_place$LT$alloc..collections..vec_deque..VecDeque$LT$$LP$$u5b$u8$u3b$$u20$8$u5d$$C$usize$C$std..time..Instant$RP$$GT$$GT$17h3424f9a084a8e199E', symObjAddr: 0x24F0, symBinAddr: 0x100055A20, symSize: 0x50 }
  - { offset: 0xB34ED, size: 0x8, addend: 0x0, symName: '__ZN4core3ptr130drop_in_place$LT$alloc..collections..vec_deque..VecDeque$LT$T$C$A$GT$..truncate..Dropper$LT$quiche..cid..ConnectionIdEntry$GT$$GT$17h2459c14d3ce3b4deE', symObjAddr: 0x2540, symBinAddr: 0x100055A70, symSize: 0x20 }
  - { offset: 0xB351C, size: 0x8, addend: 0x0, symName: '__ZN4core3ptr131drop_in_place$LT$alloc..collections..vec_deque..VecDeque$LT$quiche..recovery..gcongestion..bbr..bandwidth_sampler..AckPoint$GT$$GT$17hd60914e2f65e98deE', symObjAddr: 0x2560, symBinAddr: 0x100055A90, symSize: 0x50 }
  - { offset: 0xB354B, size: 0x8, addend: 0x0, symName: '__ZN4core3ptr131drop_in_place$LT$core..iter..adapters..peekable..Peekable$LT$core..array..iter..IntoIter$LT$$LP$u64$C$u64$RP$$C$4_usize$GT$$GT$$GT$17h65b07aa24cda95e9E', symObjAddr: 0x25B0, symBinAddr: 0x100055AE0, symSize: 0x20 }
  - { offset: 0xB357A, size: 0x8, addend: 0x0, symName: '__ZN4core3ptr132drop_in_place$LT$alloc..boxed..Box$LT$alloc..collections..btree..node..InternalNode$LT$u64$C$quiche..range_buf..RangeBuf$GT$$GT$$GT$17h40fe11e09689aa58E', symObjAddr: 0x25D0, symBinAddr: 0x100055B00, symSize: 0x20 }
  - { offset: 0xB35A9, size: 0x8, addend: 0x0, symName: '__ZN4core3ptr132drop_in_place$LT$hashbrown..map..HashMap$LT$u64$C$u64$C$core..hash..BuildHasherDefault$LT$quiche..stream..StreamIdHasher$GT$$GT$$GT$17hd5132187811f2b1cE', symObjAddr: 0x25F0, symBinAddr: 0x100055B20, symSize: 0x20 }
  - { offset: 0xB35D8, size: 0x8, addend: 0x0, symName: '__ZN4core3ptr133drop_in_place$LT$core..option..Option$LT$alloc..vec..Vec$LT$$LP$u64$C$u64$RP$$GT$$GT$..get_or_insert..$u7b$$u7b$closure$u7d$$u7d$$GT$17h8d3c814ec82d6431E', symObjAddr: 0x2610, symBinAddr: 0x100055B40, symSize: 0x20 }
  - { offset: 0xB3607, size: 0x8, addend: 0x0, symName: '__ZN4core3ptr137drop_in_place$LT$hashbrown..map..HashMap$LT$u64$C$$LP$$RP$$C$core..hash..BuildHasherDefault$LT$quiche..stream..StreamIdHasher$GT$$GT$$GT$17h086e74fa4a352e3cE', symObjAddr: 0x2630, symBinAddr: 0x100055B60, symSize: 0x20 }
  - { offset: 0xB3636, size: 0x8, addend: 0x0, symName: '__ZN4core3ptr139drop_in_place$LT$std..collections..hash..set..HashSet$LT$u64$C$core..hash..BuildHasherDefault$LT$quiche..stream..StreamIdHasher$GT$$GT$$GT$17hfb3d9fefec707db0E', symObjAddr: 0x2650, symBinAddr: 0x100055B80, symSize: 0x20 }
  - { offset: 0xB3665, size: 0x8, addend: 0x0, symName: '__ZN4core3ptr140drop_in_place$LT$$LT$alloc..collections..vec_deque..VecDeque$LT$T$C$A$GT$$u20$as$u20$core..ops..drop..Drop$GT$..drop..Dropper$LT$u64$GT$$GT$17h7dd2a9642998878bE', symObjAddr: 0x2670, symBinAddr: 0x100055BA0, symSize: 0x20 }
  - { offset: 0xB3694, size: 0x8, addend: 0x0, symName: '__ZN4core3ptr142drop_in_place$LT$core..option..Option$LT$alloc..boxed..Box$LT$dyn$u20$std..io..Write$u2b$core..marker..Sync$u2b$core..marker..Send$GT$$GT$$GT$17h8346b4fbd229141cE', symObjAddr: 0x2690, symBinAddr: 0x100055BC0, symSize: 0x40 }
  - { offset: 0xB36C3, size: 0x8, addend: 0x0, symName: '__ZN4core3ptr143drop_in_place$LT$core..array..iter..iter_inner..PolymorphicIter$LT$$u5b$core..mem..maybe_uninit..MaybeUninit$LT$u64$GT$$u3b$$u20$6$u5d$$GT$$GT$17hd5e5d0fc24b5c2f3E', symObjAddr: 0x26D0, symBinAddr: 0x100055C00, symSize: 0x20 }
  - { offset: 0xB36F2, size: 0x8, addend: 0x0, symName: '__ZN4core3ptr145drop_in_place$LT$core..array..iter..iter_inner..PolymorphicIter$LT$$u5b$core..mem..maybe_uninit..MaybeUninit$LT$usize$GT$$u3b$$u20$2$u5d$$GT$$GT$17hdd26ab3c5fc86fb3E', symObjAddr: 0x26F0, symBinAddr: 0x100055C20, symSize: 0x20 }
  - { offset: 0xB3721, size: 0x8, addend: 0x0, symName: '__ZN4core3ptr145drop_in_place$LT$std..collections..hash..map..HashMap$LT$u64$C$u64$C$core..hash..BuildHasherDefault$LT$quiche..stream..StreamIdHasher$GT$$GT$$GT$17hd251fa4a34c8a3fbE', symObjAddr: 0x2710, symBinAddr: 0x100055C40, symSize: 0x20 }
  - { offset: 0xB3750, size: 0x8, addend: 0x0, symName: '__ZN4core3ptr146drop_in_place$LT$hashbrown..map..HashMap$LT$u64$C$$LP$u64$C$u64$RP$$C$core..hash..BuildHasherDefault$LT$quiche..stream..StreamIdHasher$GT$$GT$$GT$17h0ee915540e8e6133E', symObjAddr: 0x2730, symBinAddr: 0x100055C60, symSize: 0x20 }
  - { offset: 0xB377F, size: 0x8, addend: 0x0, symName: '__ZN4core3ptr151drop_in_place$LT$hashbrown..map..HashMap$LT$u64$C$quiche..stream..Stream$C$core..hash..BuildHasherDefault$LT$quiche..stream..StreamIdHasher$GT$$GT$$GT$17h072de29b01596fc7E', symObjAddr: 0x2750, symBinAddr: 0x100055C80, symSize: 0x20 }
  - { offset: 0xB37AE, size: 0x8, addend: 0x0, symName: '__ZN4core3ptr152drop_in_place$LT$alloc..collections..vec_deque..VecDeque$LT$T$C$A$GT$..truncate..Dropper$LT$$LP$alloc..vec..Vec$LT$u8$GT$$C$quiche..RecvInfo$RP$$GT$$GT$17h052efec0c12aee55E', symObjAddr: 0x2770, symBinAddr: 0x100055CA0, symSize: 0x20 }
  - { offset: 0xB37DD, size: 0x8, addend: 0x0, symName: '__ZN4core3ptr154drop_in_place$LT$alloc..collections..btree..node..SplitResult$LT$u64$C$quiche..range_buf..RangeBuf$C$alloc..collections..btree..node..marker..Leaf$GT$$GT$17h3388abb7b077c0f6E', symObjAddr: 0x2790, symBinAddr: 0x100055CC0, symSize: 0x20 }
  - { offset: 0xB380C, size: 0x8, addend: 0x0, symName: '__ZN4core3ptr155drop_in_place$LT$hashbrown..map..HashMap$LT$u64$C$quiche..h3..stream..Stream$C$core..hash..BuildHasherDefault$LT$quiche..stream..StreamIdHasher$GT$$GT$$GT$17he8ae053c68486a1aE', symObjAddr: 0x27B0, symBinAddr: 0x100055CE0, symSize: 0x20 }
  - { offset: 0xB383B, size: 0x8, addend: 0x0, symName: '__ZN4core3ptr156drop_in_place$LT$alloc..collections..btree..map..BTreeMap$LT$$LP$core..net..socket_addr..SocketAddr$C$core..net..socket_addr..SocketAddr$RP$$C$usize$GT$$GT$17hc50e7914e252923eE', symObjAddr: 0x27D0, symBinAddr: 0x100055D00, symSize: 0x20 }
  - { offset: 0xB386A, size: 0x8, addend: 0x0, symName: '__ZN4core3ptr156drop_in_place$LT$alloc..collections..btree..map..IntoIter$LT$$LP$core..net..socket_addr..SocketAddr$C$core..net..socket_addr..SocketAddr$RP$$C$usize$GT$$GT$17h1e9aec19892c470dE', symObjAddr: 0x27F0, symBinAddr: 0x100055D20, symSize: 0x20 }
  - { offset: 0xB3899, size: 0x8, addend: 0x0, symName: '__ZN4core3ptr157drop_in_place$LT$core..array..iter..iter_inner..PolymorphicIter$LT$$u5b$core..mem..maybe_uninit..MaybeUninit$LT$$LP$u64$C$u64$RP$$GT$$u3b$$u20$4$u5d$$GT$$GT$17hfa166bb290884230E', symObjAddr: 0x2810, symBinAddr: 0x100055D40, symSize: 0x20 }
  - { offset: 0xB38C8, size: 0x8, addend: 0x0, symName: '__ZN4core3ptr158drop_in_place$LT$alloc..collections..btree..node..SplitResult$LT$u64$C$quiche..range_buf..RangeBuf$C$alloc..collections..btree..node..marker..Internal$GT$$GT$17h080440a17480024bE', symObjAddr: 0x2830, symBinAddr: 0x100055D60, symSize: 0x20 }
  - { offset: 0xB38F7, size: 0x8, addend: 0x0, symName: '__ZN4core3ptr159drop_in_place$LT$$LT$alloc..collections..vec_deque..VecDeque$LT$T$C$A$GT$$u20$as$u20$core..ops..drop..Drop$GT$..drop..Dropper$LT$quiche..recovery..Sent$GT$$GT$17h1190cbd65c03d251E', symObjAddr: 0x2850, symBinAddr: 0x100055D80, symSize: 0x20 }
  - { offset: 0xB3926, size: 0x8, addend: 0x0, symName: '__ZN4core3ptr159drop_in_place$LT$std..collections..hash..map..HashMap$LT$u64$C$$LP$u64$C$u64$RP$$C$core..hash..BuildHasherDefault$LT$quiche..stream..StreamIdHasher$GT$$GT$$GT$17h90d755aec7a8ff8cE', symObjAddr: 0x2870, symBinAddr: 0x100055DA0, symSize: 0x20 }
  - { offset: 0xB3955, size: 0x8, addend: 0x0, symName: '__ZN4core3ptr160drop_in_place$LT$$LT$alloc..collections..vec_deque..VecDeque$LT$T$C$A$GT$$u20$as$u20$core..ops..drop..Drop$GT$..drop..Dropper$LT$$u5b$u8$u3b$$u20$8$u5d$$GT$$GT$17hce89d7a92c1cb01dE', symObjAddr: 0x2890, symBinAddr: 0x100055DC0, symSize: 0x20 }
  - { offset: 0xB3984, size: 0x8, addend: 0x0, symName: '__ZN4core3ptr160drop_in_place$LT$$LT$alloc..collections..vec_deque..VecDeque$LT$T$C$A$GT$$u20$as$u20$core..ops..drop..Drop$GT$..drop..Dropper$LT$quiche..path..PathEvent$GT$$GT$17hf5cab58ba5173e88E', symObjAddr: 0x28B0, symBinAddr: 0x100055DE0, symSize: 0x20 }
  - { offset: 0xB39B3, size: 0x8, addend: 0x0, symName: '__ZN4core3ptr160drop_in_place$LT$alloc..collections..vec_deque..VecDeque$LT$T$C$A$GT$..truncate..Dropper$LT$$LP$$u5b$u8$u3b$$u20$8$u5d$$C$usize$C$std..time..Instant$RP$$GT$$GT$17hf6693a7e60bb61ecE', symObjAddr: 0x28D0, symBinAddr: 0x100055E00, symSize: 0x20 }
  - { offset: 0xB39E2, size: 0x8, addend: 0x0, symName: '__ZN4core3ptr161drop_in_place$LT$core..array..iter..iter_inner..PolymorphicIter$LT$$u5b$core..mem..maybe_uninit..MaybeUninit$LT$quiche..packet..Epoch$GT$$u3b$$u20$2$u5d$$GT$$GT$17heae9b642d2f97e4eE', symObjAddr: 0x28F0, symBinAddr: 0x100055E20, symSize: 0x20 }
  - { offset: 0xB3A11, size: 0x8, addend: 0x0, symName: '__ZN4core3ptr161drop_in_place$LT$core..array..iter..iter_inner..PolymorphicIter$LT$$u5b$core..mem..maybe_uninit..MaybeUninit$LT$quiche..packet..Epoch$GT$$u3b$$u20$3$u5d$$GT$$GT$17ha40cbb416ecdd320E', symObjAddr: 0x2910, symBinAddr: 0x100055E40, symSize: 0x20 }
  - { offset: 0xB3A40, size: 0x8, addend: 0x0, symName: '__ZN4core3ptr162drop_in_place$LT$$LT$alloc..collections..vec_deque..VecDeque$LT$T$C$A$GT$$u20$as$u20$core..ops..drop..Drop$GT$..drop..Dropper$LT$alloc..vec..Vec$LT$u8$GT$$GT$$GT$17h160afca3b7994c3fE', symObjAddr: 0x2930, symBinAddr: 0x100055E60, symSize: 0x20 }
  - { offset: 0xB3A6F, size: 0x8, addend: 0x0, symName: '__ZN4core3ptr163drop_in_place$LT$alloc..collections..vec_deque..VecDeque$LT$T$C$A$GT$..truncate..Dropper$LT$quiche..recovery..gcongestion..bbr..bandwidth_sampler..AckPoint$GT$$GT$17hdd6e230e18598c12E', symObjAddr: 0x2950, symBinAddr: 0x100055E80, symSize: 0x20 }
  - { offset: 0xB3A9E, size: 0x8, addend: 0x0, symName: '__ZN4core3ptr164drop_in_place$LT$$LT$alloc..collections..vec_deque..VecDeque$LT$T$C$A$GT$$u20$as$u20$core..ops..drop..Drop$GT$..drop..Dropper$LT$quiche..range_buf..RangeBuf$GT$$GT$17hc38c53c74307f738E', symObjAddr: 0x2970, symBinAddr: 0x100055EA0, symSize: 0x20 }
  - { offset: 0xB3ACD, size: 0x8, addend: 0x0, symName: '__ZN4core3ptr164drop_in_place$LT$alloc..collections..btree..dedup_sorted_iter..DedupSortedIter$LT$u64$C$u64$C$core..array..iter..IntoIter$LT$$LP$u64$C$u64$RP$$C$4_usize$GT$$GT$$GT$17h3bfa2e19bcd797b8E', symObjAddr: 0x2990, symBinAddr: 0x100055EC0, symSize: 0x20 }
  - { offset: 0xB3AFC, size: 0x8, addend: 0x0, symName: '__ZN4core3ptr164drop_in_place$LT$std..collections..hash..map..HashMap$LT$u64$C$quiche..stream..Stream$C$core..hash..BuildHasherDefault$LT$quiche..stream..StreamIdHasher$GT$$GT$$GT$17h49157f938ab6ed43E', symObjAddr: 0x29B0, symBinAddr: 0x100055EE0, symSize: 0x20 }
  - { offset: 0xB3B2B, size: 0x8, addend: 0x0, symName: '__ZN4core3ptr165drop_in_place$LT$$LT$alloc..collections..vec_deque..VecDeque$LT$T$C$A$GT$$u20$as$u20$core..ops..drop..Drop$GT$..drop..Dropper$LT$quiche..packet..ConnectionId$GT$$GT$17had6e728361f4a856E', symObjAddr: 0x29D0, symBinAddr: 0x100055F00, symSize: 0x20 }
  - { offset: 0xB3B5A, size: 0x8, addend: 0x0, symName: '__ZN4core3ptr167drop_in_place$LT$$LT$alloc..collections..vec_deque..VecDeque$LT$T$C$A$GT$$u20$as$u20$core..ops..drop..Drop$GT$..drop..Dropper$LT$quiche..cid..ConnectionIdEntry$GT$$GT$17h1cb0ec6d21b06891E', symObjAddr: 0x29F0, symBinAddr: 0x100055F20, symSize: 0x20 }
  - { offset: 0xB3B89, size: 0x8, addend: 0x0, symName: '__ZN4core3ptr168drop_in_place$LT$std..collections..hash..map..HashMap$LT$u64$C$quiche..h3..stream..Stream$C$core..hash..BuildHasherDefault$LT$quiche..stream..StreamIdHasher$GT$$GT$$GT$17h969c4f58b4caa012E', symObjAddr: 0x2A10, symBinAddr: 0x100055F40, symSize: 0x20 }
  - { offset: 0xB3BB8, size: 0x8, addend: 0x0, symName: '__ZN4core3ptr171drop_in_place$LT$$LT$alloc..vec..into_iter..IntoIter$LT$T$C$A$GT$$u20$as$u20$core..ops..drop..Drop$GT$..drop..DropGuard$LT$$LP$u64$C$u64$RP$$C$alloc..alloc..Global$GT$$GT$17h0fde630fa5387487E', symObjAddr: 0x2A30, symBinAddr: 0x100055F60, symSize: 0x20 }
  - { offset: 0xB3BE7, size: 0x8, addend: 0x0, symName: '__ZN4core3ptr174drop_in_place$LT$$LT$alloc..vec..into_iter..IntoIter$LT$T$C$A$GT$$u20$as$u20$core..ops..drop..Drop$GT$..drop..DropGuard$LT$quiche..frame..Frame$C$alloc..alloc..Global$GT$$GT$17hcbd3c5f50923f868E', symObjAddr: 0x2A50, symBinAddr: 0x100055F80, symSize: 0x20 }
  - { offset: 0xB3C16, size: 0x8, addend: 0x0, symName: '__ZN4core3ptr175drop_in_place$LT$alloc..raw_vec..RawVec$LT$$LP$u64$C$core..option..Option$LT$quiche..recovery..gcongestion..bbr..bandwidth_sampler..ConnectionStateOnSentPacket$GT$$RP$$GT$$GT$17h08319b311c61e443E', symObjAddr: 0x2A70, symBinAddr: 0x100055FA0, symSize: 0x20 }
  - { offset: 0xB3C45, size: 0x8, addend: 0x0, symName: '__ZN4core3ptr176drop_in_place$LT$$LT$alloc..collections..btree..map..IntoIter$LT$K$C$V$C$A$GT$$u20$as$u20$core..ops..drop..Drop$GT$..drop..DropGuard$LT$u64$C$u64$C$alloc..alloc..Global$GT$$GT$17hb4115e8f319c9939E', symObjAddr: 0x2A90, symBinAddr: 0x100055FC0, symSize: 0x20 }
  - { offset: 0xB3C74, size: 0x8, addend: 0x0, symName: '__ZN4core3ptr181drop_in_place$LT$hashbrown..scopeguard..ScopeGuard$LT$$RF$mut$u20$hashbrown..raw..RawTableInner$C$hashbrown..raw..RawTableInner..rehash_in_place..$u7b$$u7b$closure$u7d$$u7d$$GT$$GT$17h44c983199f85ab9fE', symObjAddr: 0x2AB0, symBinAddr: 0x100055FE0, symSize: 0x20 }
  - { offset: 0xB3CA3, size: 0x8, addend: 0x0, symName: '__ZN4core3ptr182drop_in_place$LT$$LT$T$u20$as$u20$alloc..slice..$LT$impl$u20$$u5b$T$u5d$$GT$..to_vec_in..ConvertVec$GT$..to_vec..DropGuard$LT$alloc..vec..Vec$LT$u8$GT$$C$alloc..alloc..Global$GT$$GT$17h78a398edf6c55330E', symObjAddr: 0x2AD0, symBinAddr: 0x100056000, symSize: 0x20 }
  - { offset: 0xB3CD2, size: 0x8, addend: 0x0, symName: '__ZN4core3ptr182drop_in_place$LT$alloc..boxed..Box$LT$alloc..collections..btree..node..LeafNode$LT$$LP$core..net..socket_addr..SocketAddr$C$core..net..socket_addr..SocketAddr$RP$$C$usize$GT$$GT$$GT$17h17461d59f74a22f1E', symObjAddr: 0x2AF0, symBinAddr: 0x100056020, symSize: 0x20 }
  - { offset: 0xB3D01, size: 0x8, addend: 0x0, symName: '__ZN4core3ptr184drop_in_place$LT$quiche..recovery..gcongestion..bbr..bandwidth_sampler..ConnectionStateMap$LT$quiche..recovery..gcongestion..bbr..bandwidth_sampler..ConnectionStateOnSentPacket$GT$$GT$17h0287121a909040c5E', symObjAddr: 0x2B10, symBinAddr: 0x100056040, symSize: 0x20 }
  - { offset: 0xB3D30, size: 0x8, addend: 0x0, symName: '__ZN4core3ptr185drop_in_place$LT$$LT$alloc..vec..into_iter..IntoIter$LT$T$C$A$GT$$u20$as$u20$core..ops..drop..Drop$GT$..drop..DropGuard$LT$$LP$u64$C$$LP$u64$C$u64$RP$$RP$$C$alloc..alloc..Global$GT$$GT$17h2df446300770a0f5E', symObjAddr: 0x2B30, symBinAddr: 0x100056060, symSize: 0x20 }
  - { offset: 0xB3D5F, size: 0x8, addend: 0x0, symName: '__ZN4core3ptr186drop_in_place$LT$alloc..boxed..Box$LT$alloc..collections..btree..node..InternalNode$LT$$LP$core..net..socket_addr..SocketAddr$C$core..net..socket_addr..SocketAddr$RP$$C$usize$GT$$GT$$GT$17h2d7e5fc77ef7a9b3E', symObjAddr: 0x2B50, symBinAddr: 0x100056080, symSize: 0x20 }
  - { offset: 0xB3D8E, size: 0x8, addend: 0x0, symName: '__ZN4core3ptr188drop_in_place$LT$$LT$alloc..collections..vec_deque..VecDeque$LT$T$C$A$GT$$u20$as$u20$core..ops..drop..Drop$GT$..drop..Dropper$LT$quiche..recovery..gcongestion..recovery..SentPacket$GT$$GT$17hfb0eccedc7c95f1aE', symObjAddr: 0x2B70, symBinAddr: 0x1000560A0, symSize: 0x20 }
  - { offset: 0xB3DBD, size: 0x8, addend: 0x0, symName: '__ZN4core3ptr188drop_in_place$LT$$LT$alloc..vec..into_iter..IntoIter$LT$T$C$A$GT$$u20$as$u20$core..ops..drop..Drop$GT$..drop..DropGuard$LT$core..ops..range..Range$LT$u64$GT$$C$alloc..alloc..Global$GT$$GT$17h3546e67bc7a4cd56E', symObjAddr: 0x2B90, symBinAddr: 0x1000560C0, symSize: 0x20 }
  - { offset: 0xB3DEC, size: 0x8, addend: 0x0, symName: '__ZN4core3ptr189drop_in_place$LT$$LT$alloc..collections..vec_deque..VecDeque$LT$T$C$A$GT$$u20$as$u20$core..ops..drop..Drop$GT$..drop..Dropper$LT$$LP$alloc..vec..Vec$LT$u8$GT$$C$quiche..RecvInfo$RP$$GT$$GT$17h7e2ab73a5d488f15E', symObjAddr: 0x2BB0, symBinAddr: 0x1000560E0, symSize: 0x20 }
  - { offset: 0xB3E1B, size: 0x8, addend: 0x0, symName: '__ZN4core3ptr192drop_in_place$LT$$LT$alloc..vec..drain..Drain$LT$T$C$A$GT$$u20$as$u20$core..ops..drop..Drop$GT$..drop..DropGuard$LT$quiche..recovery..congestion..recovery..Acked$C$alloc..alloc..Global$GT$$GT$17h663de11d0a60ba2cE', symObjAddr: 0x2BD0, symBinAddr: 0x100056100, symSize: 0x20 }
  - { offset: 0xB3E4A, size: 0x8, addend: 0x0, symName: '__ZN4core3ptr192drop_in_place$LT$alloc..collections..vec_deque..VecDeque$LT$$LP$u64$C$core..option..Option$LT$quiche..recovery..gcongestion..bbr..bandwidth_sampler..ConnectionStateOnSentPacket$GT$$RP$$GT$$GT$17h7e7807a6e211e98aE', symObjAddr: 0x2BF0, symBinAddr: 0x100056120, symSize: 0x50 }
  - { offset: 0xB3E79, size: 0x8, addend: 0x0, symName: '__ZN4core3ptr193drop_in_place$LT$$LT$alloc..collections..vec_deque..drain..Drain$LT$T$C$A$GT$$u20$as$u20$core..ops..drop..Drop$GT$..drop..DropGuard$LT$quiche..range_buf..RangeBuf$C$alloc..alloc..Global$GT$$GT$17hf1086145ae0968bfE', symObjAddr: 0x2C40, symBinAddr: 0x100056170, symSize: 0x20 }
  - { offset: 0xB3EA8, size: 0x8, addend: 0x0, symName: '__ZN4core3ptr196drop_in_place$LT$$LT$alloc..collections..vec_deque..drain..Drain$LT$T$C$A$GT$$u20$as$u20$core..ops..drop..Drop$GT$..drop..DropGuard$LT$quiche..cid..ConnectionIdEntry$C$alloc..alloc..Global$GT$$GT$17ha39b045d2704e35eE', symObjAddr: 0x2C60, symBinAddr: 0x100056190, symSize: 0x20 }
  - { offset: 0xB3ED7, size: 0x8, addend: 0x0, symName: '__ZN4core3ptr196drop_in_place$LT$hashbrown..scopeguard..ScopeGuard$LT$hashbrown..raw..RawTableInner$C$hashbrown..raw..RawTableInner..prepare_resize$LT$alloc..alloc..Global$GT$..$u7b$$u7b$closure$u7d$$u7d$$GT$$GT$17h45bda8fdae1f0401E', symObjAddr: 0x2C80, symBinAddr: 0x1000561B0, symSize: 0x20 }
  - { offset: 0xB3F06, size: 0x8, addend: 0x0, symName: '__ZN4core3ptr197drop_in_place$LT$$LT$alloc..collections..vec_deque..VecDeque$LT$T$C$A$GT$$u20$as$u20$core..ops..drop..Drop$GT$..drop..Dropper$LT$$LP$$u5b$u8$u3b$$u20$8$u5d$$C$usize$C$std..time..Instant$RP$$GT$$GT$17h07f3405ed8d224feE', symObjAddr: 0x2CA0, symBinAddr: 0x1000561D0, symSize: 0x20 }
  - { offset: 0xB3F35, size: 0x8, addend: 0x0, symName: '__ZN4core3ptr200drop_in_place$LT$$LT$alloc..collections..btree..map..IntoIter$LT$K$C$V$C$A$GT$$u20$as$u20$core..ops..drop..Drop$GT$..drop..DropGuard$LT$u64$C$quiche..range_buf..RangeBuf$C$alloc..alloc..Global$GT$$GT$17h6a2e5a5d3d279151E', symObjAddr: 0x2CC0, symBinAddr: 0x1000561F0, symSize: 0x20 }
  - { offset: 0xB3F64, size: 0x8, addend: 0x0, symName: '__ZN4core3ptr200drop_in_place$LT$$LT$alloc..collections..vec_deque..VecDeque$LT$T$C$A$GT$$u20$as$u20$core..ops..drop..Drop$GT$..drop..Dropper$LT$quiche..recovery..gcongestion..bbr..bandwidth_sampler..AckPoint$GT$$GT$17h75abe4156c9973b4E', symObjAddr: 0x2CE0, symBinAddr: 0x100056210, symSize: 0x20 }
  - { offset: 0xB3F93, size: 0x8, addend: 0x0, symName: '__ZN4core3ptr206drop_in_place$LT$$LT$alloc..vec..into_iter..IntoIter$LT$T$C$A$GT$$u20$as$u20$core..ops..drop..Drop$GT$..drop..DropGuard$LT$$LP$alloc..vec..Vec$LT$u8$GT$$C$quiche..SendInfo$RP$$C$alloc..alloc..Global$GT$$GT$17h6e464f0f2f87ed53E', symObjAddr: 0x2D00, symBinAddr: 0x100056230, symSize: 0x20 }
  - { offset: 0xB3FC2, size: 0x8, addend: 0x0, symName: '__ZN4core3ptr212drop_in_place$LT$alloc..vec..Vec$LT$quiche..frame..Frame$GT$..extend_trusted$LT$core..iter..adapters..cloned..Cloned$LT$core..slice..iter..Iter$LT$quiche..frame..Frame$GT$$GT$$GT$..$u7b$$u7b$closure$u7d$$u7d$$GT$17hd145214e89157a76E', symObjAddr: 0x2D20, symBinAddr: 0x100056250, symSize: 0x20 }
  - { offset: 0xB3FF1, size: 0x8, addend: 0x0, symName: '__ZN4core3ptr217drop_in_place$LT$$LT$alloc..collections..vec_deque..drain..Drain$LT$T$C$A$GT$$u20$as$u20$core..ops..drop..Drop$GT$..drop..DropGuard$LT$quiche..recovery..gcongestion..recovery..SentPacket$C$alloc..alloc..Global$GT$$GT$17hc358211d071d3d75E', symObjAddr: 0x2D40, symBinAddr: 0x100056270, symSize: 0x20 }
  - { offset: 0xB4020, size: 0x8, addend: 0x0, symName: '__ZN4core3ptr219drop_in_place$LT$intrusive_collections..pointer_ops..clone_pointer_from_raw..PointerGuard$LT$intrusive_collections..pointer_ops..DefaultPointerOps$LT$alloc..sync..Arc$LT$quiche..stream..StreamPriorityKey$GT$$GT$$GT$$GT$17h86234180bacdcbc7E', symObjAddr: 0x2D60, symBinAddr: 0x100056290, symSize: 0x20 }
  - { offset: 0xB404F, size: 0x8, addend: 0x0, symName: '__ZN4core3ptr223drop_in_place$LT$$LT$T$u20$as$u20$alloc..slice..$LT$impl$u20$$u5b$T$u5d$$GT$..to_vec_in..ConvertVec$GT$..to_vec..DropGuard$LT$quiche..UnknownTransportParameter$LT$alloc..vec..Vec$LT$u8$GT$$GT$$C$alloc..alloc..Global$GT$$GT$17h7630c2751a91e9b6E', symObjAddr: 0x2D80, symBinAddr: 0x1000562B0, symSize: 0x20 }
  - { offset: 0xB407E, size: 0x8, addend: 0x0, symName: '__ZN4core3ptr249drop_in_place$LT$alloc..vec..Vec$LT$alloc..string..String$GT$..extend_trusted$LT$core..iter..adapters..map..Map$LT$core..slice..iter..Iter$LT$u8$GT$$C$quiche..Connection..with_tls..$u7b$$u7b$closure$u7d$$u7d$$GT$$GT$..$u7b$$u7b$closure$u7d$$u7d$$GT$17h8d012a571e53d5e9E', symObjAddr: 0x2DA0, symBinAddr: 0x1000562D0, symSize: 0x20 }
  - { offset: 0xB40AD, size: 0x8, addend: 0x0, symName: '__ZN4core3ptr254drop_in_place$LT$$LT$alloc..collections..btree..map..IntoIter$LT$K$C$V$C$A$GT$$u20$as$u20$core..ops..drop..Drop$GT$..drop..DropGuard$LT$$LP$core..net..socket_addr..SocketAddr$C$core..net..socket_addr..SocketAddr$RP$$C$usize$C$alloc..alloc..Global$GT$$GT$17h9e6e1e4cc73485cdE', symObjAddr: 0x2DC0, symBinAddr: 0x1000562F0, symSize: 0x20 }
  - { offset: 0xB40DC, size: 0x8, addend: 0x0, symName: '__ZN4core3ptr261drop_in_place$LT$$LT$alloc..collections..vec_deque..VecDeque$LT$T$C$A$GT$$u20$as$u20$core..ops..drop..Drop$GT$..drop..Dropper$LT$$LP$u64$C$core..option..Option$LT$quiche..recovery..gcongestion..bbr..bandwidth_sampler..ConnectionStateOnSentPacket$GT$$RP$$GT$$GT$17h024483bbfb8e61a3E', symObjAddr: 0x2DE0, symBinAddr: 0x100056310, symSize: 0x20 }
  - { offset: 0xB410B, size: 0x8, addend: 0x0, symName: '__ZN4core3ptr261drop_in_place$LT$alloc..collections..btree..node..Handle$LT$alloc..collections..btree..node..NodeRef$LT$alloc..collections..btree..node..marker..Dying$C$K$C$V$C$NodeType$GT$$C$alloc..collections..btree..node..marker..KV$GT$..drop_key_val..Dropper$LT$u64$GT$$GT$17h453590e1c5978fedE', symObjAddr: 0x2E00, symBinAddr: 0x100056330, symSize: 0x20 }
  - { offset: 0xB413A, size: 0x8, addend: 0x0, symName: '__ZN4core3ptr263drop_in_place$LT$alloc..collections..btree..node..Handle$LT$alloc..collections..btree..node..NodeRef$LT$alloc..collections..btree..node..marker..Dying$C$K$C$V$C$NodeType$GT$$C$alloc..collections..btree..node..marker..KV$GT$..drop_key_val..Dropper$LT$usize$GT$$GT$17h43c817ecd4ab3b8dE', symObjAddr: 0x2E20, symBinAddr: 0x100056350, symSize: 0x20 }
  - { offset: 0xB4169, size: 0x8, addend: 0x0, symName: '__ZN4core3ptr277drop_in_place$LT$alloc..vec..Vec$LT$alloc..vec..Vec$LT$u8$GT$$GT$..extend_trusted$LT$core..iter..adapters..map..Map$LT$core..slice..iter..Iter$LT$$RF$$u5b$u8$u5d$$GT$$C$quiche..Config..set_application_protos..$u7b$$u7b$closure$u7d$$u7d$$GT$$GT$..$u7b$$u7b$closure$u7d$$u7d$$GT$17he1f8269e1214c687E', symObjAddr: 0x2E40, symBinAddr: 0x100056370, symSize: 0x20 }
  - { offset: 0xB4198, size: 0x8, addend: 0x0, symName: '__ZN4core3ptr285drop_in_place$LT$alloc..collections..btree..node..Handle$LT$alloc..collections..btree..node..NodeRef$LT$alloc..collections..btree..node..marker..Dying$C$K$C$V$C$NodeType$GT$$C$alloc..collections..btree..node..marker..KV$GT$..drop_key_val..Dropper$LT$quiche..range_buf..RangeBuf$GT$$GT$17h46f00b27fada2de0E', symObjAddr: 0x2E60, symBinAddr: 0x100056390, symSize: 0x20 }
  - { offset: 0xB41C7, size: 0x8, addend: 0x0, symName: '__ZN4core3ptr312drop_in_place$LT$core..iter..adapters..map..Map$LT$core..array..iter..IntoIter$LT$u64$C$6_usize$GT$$C$$LT$hashbrown..set..HashSet$LT$u64$C$std..hash..random..RandomState$GT$$u20$as$u20$core..iter..traits..collect..Extend$LT$u64$GT$$GT$..extend$LT$$u5b$u64$u3b$$u20$6$u5d$$GT$..$u7b$$u7b$closure$u7d$$u7d$$GT$$GT$17hba360382a6503036E', symObjAddr: 0x2E80, symBinAddr: 0x1000563B0, symSize: 0x20 }
  - { offset: 0xB41F6, size: 0x8, addend: 0x0, symName: '__ZN4core3ptr326drop_in_place$LT$core..iter..traits..iterator..Iterator..for_each..call$LT$quiche..frame..Frame$C$alloc..vec..Vec$LT$quiche..frame..Frame$GT$..extend_trusted$LT$core..iter..adapters..cloned..Cloned$LT$core..slice..iter..Iter$LT$quiche..frame..Frame$GT$$GT$$GT$..$u7b$$u7b$closure$u7d$$u7d$$GT$..$u7b$$u7b$closure$u7d$$u7d$$GT$17heb0e1db73ef453d9E', symObjAddr: 0x2EA0, symBinAddr: 0x1000563D0, symSize: 0x20 }
  - { offset: 0xB4225, size: 0x8, addend: 0x0, symName: '__ZN4core3ptr34drop_in_place$LT$std..fs..File$GT$17h8151e0f05f024f40E', symObjAddr: 0x2EC0, symBinAddr: 0x1000563F0, symSize: 0x20 }
  - { offset: 0xB4254, size: 0x8, addend: 0x0, symName: '__ZN4core3ptr35drop_in_place$LT$quiche..Config$GT$17hb96ab02000121691E', symObjAddr: 0x2EE0, symBinAddr: 0x100056410, symSize: 0x90 }
  - { offset: 0xB4283, size: 0x8, addend: 0x0, symName: '__ZN4core3ptr364drop_in_place$LT$alloc..vec..Vec$LT$quiche..packet..ConnectionId$GT$..extend_trusted$LT$core..iter..adapters..cloned..Cloned$LT$core..iter..adapters..map..Map$LT$alloc..collections..vec_deque..iter..Iter$LT$quiche..cid..ConnectionIdEntry$GT$$C$quiche..cid..ConnectionIdentifiers..scids_iter..$u7b$$u7b$closure$u7d$$u7d$$GT$$GT$$GT$..$u7b$$u7b$closure$u7d$$u7d$$GT$17h82359725ba978c38E', symObjAddr: 0x2F70, symBinAddr: 0x1000564A0, symSize: 0x20 }
  - { offset: 0xB42B2, size: 0x8, addend: 0x0, symName: '__ZN4core3ptr364drop_in_place$LT$core..iter..traits..iterator..Iterator..for_each..call$LT$alloc..string..String$C$alloc..vec..Vec$LT$alloc..string..String$GT$..extend_trusted$LT$core..iter..adapters..map..Map$LT$core..slice..iter..Iter$LT$u8$GT$$C$quiche..Connection..with_tls..$u7b$$u7b$closure$u7d$$u7d$$GT$$GT$..$u7b$$u7b$closure$u7d$$u7d$$GT$..$u7b$$u7b$closure$u7d$$u7d$$GT$17h17cbc4429b01c923E', symObjAddr: 0x2F90, symBinAddr: 0x1000564C0, symSize: 0x20 }
  - { offset: 0xB42E1, size: 0x8, addend: 0x0, symName: '__ZN4core3ptr38drop_in_place$LT$quiche..h3..Event$GT$17h3d25e7158dec9ab8E', symObjAddr: 0x2FB0, symBinAddr: 0x1000564E0, symSize: 0x50 }
  - { offset: 0xB4310, size: 0x8, addend: 0x0, symName: '__ZN4core3ptr396drop_in_place$LT$core..iter..traits..iterator..Iterator..for_each..call$LT$alloc..vec..Vec$LT$u8$GT$$C$alloc..vec..Vec$LT$alloc..vec..Vec$LT$u8$GT$$GT$..extend_trusted$LT$core..iter..adapters..map..Map$LT$core..slice..iter..Iter$LT$$RF$$u5b$u8$u5d$$GT$$C$quiche..Config..set_application_protos..$u7b$$u7b$closure$u7d$$u7d$$GT$$GT$..$u7b$$u7b$closure$u7d$$u7d$$GT$..$u7b$$u7b$closure$u7d$$u7d$$GT$17h2970a4e704e1753dE', symObjAddr: 0x3000, symBinAddr: 0x100056530, symSize: 0x20 }
  - { offset: 0xB433F, size: 0x8, addend: 0x0, symName: '__ZN4core3ptr39drop_in_place$LT$quiche..Connection$GT$17h5d60b90d8ece1f9fE', symObjAddr: 0x3020, symBinAddr: 0x100056550, symSize: 0x410 }
  - { offset: 0xB436E, size: 0x8, addend: 0x0, symName: '__ZN4core3ptr39drop_in_place$LT$quiche..h3..Config$GT$17h52432ea21bf96972E', symObjAddr: 0x3430, symBinAddr: 0x100056960, symSize: 0x20 }
  - { offset: 0xB439D, size: 0x8, addend: 0x0, symName: '__ZN4core3ptr39drop_in_place$LT$quiche..h3..Header$GT$17h4b478ca4fd47f1c6E', symObjAddr: 0x3450, symBinAddr: 0x100056980, symSize: 0x60 }
  - { offset: 0xB43CC, size: 0x8, addend: 0x0, symName: '__ZN4core3ptr39drop_in_place$LT$quiche..path..Path$GT$17hbad7db113f420425E', symObjAddr: 0x34B0, symBinAddr: 0x1000569E0, symSize: 0xA0 }
  - { offset: 0xB43FB, size: 0x8, addend: 0x0, symName: '__ZN4core3ptr39drop_in_place$LT$std..path..PathBuf$GT$17he2e4b22cbb9d3ffdE', symObjAddr: 0x3550, symBinAddr: 0x100056A80, symSize: 0x20 }
  - { offset: 0xB442A, size: 0x8, addend: 0x0, symName: '__ZN4core3ptr40drop_in_place$LT$quiche..tls..ExData$GT$17h576bdd394953b3d3E', symObjAddr: 0x3570, symBinAddr: 0x100056AA0, symSize: 0x20 }
  - { offset: 0xB4459, size: 0x8, addend: 0x0, symName: '__ZN4core3ptr41drop_in_place$LT$quiche..crypto..Open$GT$17hbe1770929c424c3dE', symObjAddr: 0x3590, symBinAddr: 0x100056AC0, symSize: 0x90 }
  - { offset: 0xB4488, size: 0x8, addend: 0x0, symName: '__ZN4core3ptr41drop_in_place$LT$quiche..crypto..Seal$GT$17hb60d316b00c6ee97E', symObjAddr: 0x3620, symBinAddr: 0x100056B50, symSize: 0x90 }
  - { offset: 0xB44B7, size: 0x8, addend: 0x0, symName: '__ZN4core3ptr41drop_in_place$LT$quiche..frame..Frame$GT$17h239fc1955f40f9e6E', symObjAddr: 0x36B0, symBinAddr: 0x100056BE0, symSize: 0x130 }
  - { offset: 0xB44E6, size: 0x8, addend: 0x0, symName: '__ZN4core3ptr41drop_in_place$LT$quiche..tls..Context$GT$17hc1654153093e9b04E', symObjAddr: 0x37E0, symBinAddr: 0x100056D10, symSize: 0x20 }
  - { offset: 0xB4515, size: 0x8, addend: 0x0, symName: '__ZN4core3ptr42drop_in_place$LT$alloc..string..String$GT$17he9ab71072153a185E', symObjAddr: 0x3800, symBinAddr: 0x100056D30, symSize: 0x20 }
  - { offset: 0xB4544, size: 0x8, addend: 0x0, symName: '__ZN4core3ptr42drop_in_place$LT$quiche..path..PathMap$GT$17hee1156608bb8ef70E', symObjAddr: 0x3820, symBinAddr: 0x100056D50, symSize: 0x90 }
  - { offset: 0xB4573, size: 0x8, addend: 0x0, symName: '__ZN4core3ptr42drop_in_place$LT$std..io..error..Error$GT$17h8e76ec08f74955dbE', symObjAddr: 0x38B0, symBinAddr: 0x100056DE0, symSize: 0x20 }
  - { offset: 0xB45A2, size: 0x8, addend: 0x0, symName: '__ZN4core3ptr43drop_in_place$LT$quiche..h3..Connection$GT$17h2ee01c02eba6d4eeE', symObjAddr: 0x38D0, symBinAddr: 0x100056E00, symSize: 0xC0 }
  - { offset: 0xB45D1, size: 0x8, addend: 0x0, symName: '__ZN4core3ptr43drop_in_place$LT$quiche..packet..Header$GT$17h37c54adffde37943E', symObjAddr: 0x3990, symBinAddr: 0x100056EC0, symSize: 0xB0 }
  - { offset: 0xB4600, size: 0x8, addend: 0x0, symName: '__ZN4core3ptr43drop_in_place$LT$quiche..recovery..Sent$GT$17h996a00ac0dcd4e6aE', symObjAddr: 0x3A40, symBinAddr: 0x100056F70, symSize: 0x20 }
  - { offset: 0xB462F, size: 0x8, addend: 0x0, symName: '__ZN4core3ptr43drop_in_place$LT$quiche..stream..Stream$GT$17h8e15ccc6e3716a76E', symObjAddr: 0x3A60, symBinAddr: 0x100056F90, symSize: 0x90 }
  - { offset: 0xB465E, size: 0x8, addend: 0x0, symName: '__ZN4core3ptr43drop_in_place$LT$quiche..tls..Handshake$GT$17h171ecb8263176792E', symObjAddr: 0x3AF0, symBinAddr: 0x100057020, symSize: 0x20 }
  - { offset: 0xB468D, size: 0x8, addend: 0x0, symName: '__ZN4core3ptr43drop_in_place$LT$smallvec..SetLenOnDrop$GT$17h403751b3568b15dfE', symObjAddr: 0x3B10, symBinAddr: 0x100057040, symSize: 0x20 }
  - { offset: 0xB46BC, size: 0x8, addend: 0x0, symName: '__ZN4core3ptr43drop_in_place$LT$std..io..error..Custom$GT$17h922800b88eff6a74E', symObjAddr: 0x3B30, symBinAddr: 0x100057060, symSize: 0x20 }
  - { offset: 0xB46EB, size: 0x8, addend: 0x0, symName: '__ZN4core3ptr44drop_in_place$LT$quiche..ConnectionError$GT$17h367d5e2bee6472b3E', symObjAddr: 0x3B50, symBinAddr: 0x100057080, symSize: 0x20 }
  - { offset: 0xB471A, size: 0x8, addend: 0x0, symName: '__ZN4core3ptr44drop_in_place$LT$quiche..TransportParams$GT$17hf84a6a514588da9cE', symObjAddr: 0x3B70, symBinAddr: 0x1000570A0, symSize: 0xC0 }
  - { offset: 0xB4749, size: 0x8, addend: 0x0, symName: '__ZN4core3ptr45drop_in_place$LT$quiche..h3..frame..Frame$GT$17ha430d4e4e5acfc28E', symObjAddr: 0x3C30, symBinAddr: 0x100057160, symSize: 0x120 }
  - { offset: 0xB4778, size: 0x8, addend: 0x0, symName: '__ZN4core3ptr45drop_in_place$LT$quiche..ranges..RangeSet$GT$17h437442392eb50918E', symObjAddr: 0x3D50, symBinAddr: 0x100057280, symSize: 0x40 }
  - { offset: 0xB47A7, size: 0x8, addend: 0x0, symName: '__ZN4core3ptr45drop_in_place$LT$quiche..test_utils..Pipe$GT$17h94791105bed1f604E', symObjAddr: 0x3D90, symBinAddr: 0x1000572C0, symSize: 0x60 }
  - { offset: 0xB47D6, size: 0x8, addend: 0x0, symName: '__ZN4core3ptr45drop_in_place$LT$std..sys..fs..unix..File$GT$17hb2bee4ca81f04d09E', symObjAddr: 0x3DF0, symBinAddr: 0x100057320, symSize: 0x20 }
  - { offset: 0xB4805, size: 0x8, addend: 0x0, symName: '__ZN4core3ptr46drop_in_place$LT$quiche..packet..KeyUpdate$GT$17ha48a3a79c02d0349E', symObjAddr: 0x3E10, symBinAddr: 0x100057340, symSize: 0x20 }
  - { offset: 0xB4834, size: 0x8, addend: 0x0, symName: '__ZN4core3ptr46drop_in_place$LT$quiche..stream..StreamMap$GT$17hdcad993b261370edE', symObjAddr: 0x3E30, symBinAddr: 0x100057360, symSize: 0x1B0 }
  - { offset: 0xB4863, size: 0x8, addend: 0x0, symName: '__ZN4core3ptr47drop_in_place$LT$alloc..ffi..c_str..CString$GT$17hfbdc85c327dfbcf6E', symObjAddr: 0x3FE0, symBinAddr: 0x100057510, symSize: 0x50 }
  - { offset: 0xB4892, size: 0x8, addend: 0x0, symName: '__ZN4core3ptr47drop_in_place$LT$alloc..vec..Vec$LT$u32$GT$$GT$17hddc200abb7f22805E', symObjAddr: 0x4030, symBinAddr: 0x100057560, symSize: 0x50 }
  - { offset: 0xB48C1, size: 0x8, addend: 0x0, symName: '__ZN4core3ptr47drop_in_place$LT$alloc..vec..Vec$LT$u64$GT$$GT$17h5c354ee0e6088624E', symObjAddr: 0x4080, symBinAddr: 0x1000575B0, symSize: 0x50 }
  - { offset: 0xB48F0, size: 0x8, addend: 0x0, symName: '__ZN4core3ptr47drop_in_place$LT$quiche..h3..stream..Stream$GT$17hd6f2f97992a7e9e2E', symObjAddr: 0x40D0, symBinAddr: 0x100057600, symSize: 0x60 }
  - { offset: 0xB491F, size: 0x8, addend: 0x0, symName: '__ZN4core3ptr47drop_in_place$LT$quiche..recovery..Recovery$GT$17hcfa4136c01fe6d7fE', symObjAddr: 0x4130, symBinAddr: 0x100057660, symSize: 0x50 }
  - { offset: 0xB494E, size: 0x8, addend: 0x0, symName: '__ZN4core3ptr47drop_in_place$LT$quiche..stream..StreamIter$GT$17h7ab71011d05ffd2aE', symObjAddr: 0x4180, symBinAddr: 0x1000576B0, symSize: 0x20 }
  - { offset: 0xB497D, size: 0x8, addend: 0x0, symName: '__ZN4core3ptr47drop_in_place$LT$std..ffi..os_str..OsString$GT$17h7f0a43709e41d7d3E', symObjAddr: 0x41A0, symBinAddr: 0x1000576D0, symSize: 0x20 }
  - { offset: 0xB49AC, size: 0x8, addend: 0x0, symName: '__ZN4core3ptr486drop_in_place$LT$core..iter..traits..iterator..Iterator..for_each..call$LT$quiche..packet..ConnectionId$C$alloc..vec..Vec$LT$quiche..packet..ConnectionId$GT$..extend_trusted$LT$core..iter..adapters..cloned..Cloned$LT$core..iter..adapters..map..Map$LT$alloc..collections..vec_deque..iter..Iter$LT$quiche..cid..ConnectionIdEntry$GT$$C$quiche..cid..ConnectionIdentifiers..scids_iter..$u7b$$u7b$closure$u7d$$u7d$$GT$$GT$$GT$..$u7b$$u7b$closure$u7d$$u7d$$GT$..$u7b$$u7b$closure$u7d$$u7d$$GT$17hc0bb8f1e652a69e2E', symObjAddr: 0x41C0, symBinAddr: 0x1000576F0, symSize: 0x20 }
  - { offset: 0xB49DB, size: 0x8, addend: 0x0, symName: '__ZN4core3ptr48drop_in_place$LT$alloc..ffi..c_str..NulError$GT$17h633b2f4f3561ff75E', symObjAddr: 0x41E0, symBinAddr: 0x100057710, symSize: 0x20 }
  - { offset: 0xB4A0A, size: 0x8, addend: 0x0, symName: '__ZN4core3ptr48drop_in_place$LT$quiche..packet..PktNumSpace$GT$17hcd9e7a6094287371E', symObjAddr: 0x4200, symBinAddr: 0x100057730, symSize: 0x20 }
  - { offset: 0xB4A39, size: 0x8, addend: 0x0, symName: '__ZN4core3ptr48drop_in_place$LT$quiche..range_buf..RangeBuf$GT$17h2da4fcc77e264a10E', symObjAddr: 0x4220, symBinAddr: 0x100057750, symSize: 0x20 }
  - { offset: 0xB4A68, size: 0x8, addend: 0x0, symName: '__ZN4core3ptr48drop_in_place$LT$std..os..fd..owned..OwnedFd$GT$17h59c39cdb0ef58d5bE', symObjAddr: 0x4240, symBinAddr: 0x100057770, symSize: 0x20 }
  - { offset: 0xB4A97, size: 0x8, addend: 0x0, symName: '__ZN4core3ptr49drop_in_place$LT$$u5b$quiche..h3..Header$u5d$$GT$17h30e8e7da9582297aE', symObjAddr: 0x4260, symBinAddr: 0x100057790, symSize: 0xA0 }
  - { offset: 0xB4AC6, size: 0x8, addend: 0x0, symName: '__ZN4core3ptr49drop_in_place$LT$quiche..dgram..DatagramQueue$GT$17hf316d45dd983c2bbE', symObjAddr: 0x4300, symBinAddr: 0x100057830, symSize: 0x20 }
  - { offset: 0xB4AF5, size: 0x8, addend: 0x0, symName: '__ZN4core3ptr49drop_in_place$LT$quiche..packet..ConnectionId$GT$17hb78ac2c369fec8c5E', symObjAddr: 0x4320, symBinAddr: 0x100057850, symSize: 0x20 }
  - { offset: 0xB4B24, size: 0x8, addend: 0x0, symName: '__ZN4core3ptr49drop_in_place$LT$quiche..path..SocketAddrIter$GT$17h7575d5bf2bf6be7dE', symObjAddr: 0x4340, symBinAddr: 0x100057870, symSize: 0x20 }
  - { offset: 0xB4B53, size: 0x8, addend: 0x0, symName: '__ZN4core3ptr49drop_in_place$LT$std..sys..fd..unix..FileDesc$GT$17h766472cf1ea3a532E', symObjAddr: 0x4360, symBinAddr: 0x100057890, symSize: 0x20 }
  - { offset: 0xB4B82, size: 0x8, addend: 0x0, symName: '__ZN4core3ptr49drop_in_place$LT$std..sys..os_str..bytes..Buf$GT$17hb6492bfc1f6a040bE', symObjAddr: 0x4380, symBinAddr: 0x1000578B0, symSize: 0x20 }
  - { offset: 0xB4BB1, size: 0x8, addend: 0x0, symName: '__ZN4core3ptr50drop_in_place$LT$quiche..ffi..ConnectionIdIter$GT$17ha64a89fa4d6da4f1E', symObjAddr: 0x43A0, symBinAddr: 0x1000578D0, symSize: 0x20 }
  - { offset: 0xB4BE0, size: 0x8, addend: 0x0, symName: '__ZN4core3ptr50drop_in_place$LT$quiche..packet..CryptoContext$GT$17h01d74099663d4b75E', symObjAddr: 0x43C0, symBinAddr: 0x1000578F0, symSize: 0xF0 }
  - { offset: 0xB4C0F, size: 0x8, addend: 0x0, symName: '__ZN4core3ptr50drop_in_place$LT$quiche..range_buf..DefaultBuf$GT$17h5c7582ac2874b01dE', symObjAddr: 0x44B0, symBinAddr: 0x1000579E0, symSize: 0x20 }
  - { offset: 0xB4C3E, size: 0x8, addend: 0x0, symName: '__ZN4core3ptr50drop_in_place$LT$quiche..ranges..BTreeRangeSet$GT$17h7fdac04e7f2f408fE', symObjAddr: 0x44D0, symBinAddr: 0x100057A00, symSize: 0x20 }
  - { offset: 0xB4C6D, size: 0x8, addend: 0x0, symName: '__ZN4core3ptr51drop_in_place$LT$$u5b$quiche..frame..Frame$u5d$$GT$17h2bc34841346958b4E', symObjAddr: 0x44F0, symBinAddr: 0x100057A20, symSize: 0xA0 }
  - { offset: 0xB4C9C, size: 0x8, addend: 0x0, symName: '__ZN4core3ptr51drop_in_place$LT$quiche..cid..ConnectionIdEntry$GT$17h753c42636f0059eeE', symObjAddr: 0x4590, symBinAddr: 0x100057AC0, symSize: 0x20 }
  - { offset: 0xB4CCB, size: 0x8, addend: 0x0, symName: '__ZN4core3ptr51drop_in_place$LT$quiche..h3..ConnectionSettings$GT$17he4a757f4cc805956E', symObjAddr: 0x45B0, symBinAddr: 0x100057AE0, symSize: 0x60 }
  - { offset: 0xB4CFA, size: 0x8, addend: 0x0, symName: '__ZN4core3ptr51drop_in_place$LT$quiche..ranges..InlineRangeSet$GT$17h29125fdd8c1c0256E', symObjAddr: 0x4610, symBinAddr: 0x100057B40, symSize: 0x20 }
  - { offset: 0xB4D29, size: 0x8, addend: 0x0, symName: '__ZN4core3ptr527drop_in_place$LT$core..iter..adapters..map..map_fold$LT$$RF$quiche..frame..Frame$C$quiche..frame..Frame$C$$LP$$RP$$C$$LT$quiche..frame..Frame$u20$as$u20$core..clone..Clone$GT$..clone$C$core..iter..traits..iterator..Iterator..for_each..call$LT$quiche..frame..Frame$C$alloc..vec..Vec$LT$quiche..frame..Frame$GT$..extend_trusted$LT$core..iter..adapters..cloned..Cloned$LT$core..slice..iter..Iter$LT$quiche..frame..Frame$GT$$GT$$GT$..$u7b$$u7b$closure$u7d$$u7d$$GT$..$u7b$$u7b$closure$u7d$$u7d$$GT$..$u7b$$u7b$closure$u7d$$u7d$$GT$17h25d892fe570d7d37E', symObjAddr: 0x4630, symBinAddr: 0x100057B60, symSize: 0x20 }
  - { offset: 0xB4D58, size: 0x8, addend: 0x0, symName: '__ZN4core3ptr52drop_in_place$LT$$LP$u64$C$quiche..h3..Event$RP$$GT$17hed4d02d0f9a5d3a5E', symObjAddr: 0x4650, symBinAddr: 0x100057B80, symSize: 0x20 }
  - { offset: 0xB4D87, size: 0x8, addend: 0x0, symName: '__ZN4core3ptr52drop_in_place$LT$$u5b$alloc..string..String$u5d$$GT$17h74589c7a5eb763faE', symObjAddr: 0x4670, symBinAddr: 0x100057BA0, symSize: 0xA0 }
  - { offset: 0xB4DB6, size: 0x8, addend: 0x0, symName: '__ZN4core3ptr53drop_in_place$LT$$u5b$quiche..recovery..Sent$u5d$$GT$17h7c29037bfc7dd232E', symObjAddr: 0x4710, symBinAddr: 0x100057C40, symSize: 0xA0 }
  - { offset: 0xB4DE5, size: 0x8, addend: 0x0, symName: '__ZN4core3ptr540drop_in_place$LT$core..iter..adapters..map..map_fold$LT$$RF$u8$C$alloc..string..String$C$$LP$$RP$$C$quiche..Connection..with_tls..$u7b$$u7b$closure$u7d$$u7d$$C$core..iter..traits..iterator..Iterator..for_each..call$LT$alloc..string..String$C$alloc..vec..Vec$LT$alloc..string..String$GT$..extend_trusted$LT$core..iter..adapters..map..Map$LT$core..slice..iter..Iter$LT$u8$GT$$C$quiche..Connection..with_tls..$u7b$$u7b$closure$u7d$$u7d$$GT$$GT$..$u7b$$u7b$closure$u7d$$u7d$$GT$..$u7b$$u7b$closure$u7d$$u7d$$GT$..$u7b$$u7b$closure$u7d$$u7d$$GT$17h5d83ba1754be73d3E', symObjAddr: 0x47B0, symBinAddr: 0x100057CE0, symSize: 0x20 }
  - { offset: 0xB4E14, size: 0x8, addend: 0x0, symName: '__ZN4core3ptr54drop_in_place$LT$alloc..raw_vec..RawVec$LT$u32$GT$$GT$17hd91f71245a85a231E', symObjAddr: 0x47D0, symBinAddr: 0x100057D00, symSize: 0x20 }
  - { offset: 0xB4E43, size: 0x8, addend: 0x0, symName: '__ZN4core3ptr54drop_in_place$LT$alloc..raw_vec..RawVec$LT$u64$GT$$GT$17h0b6d3c1d4d05aebaE', symObjAddr: 0x47F0, symBinAddr: 0x100057D20, symSize: 0x20 }
  - { offset: 0xB4E72, size: 0x8, addend: 0x0, symName: '__ZN4core3ptr54drop_in_place$LT$quiche..packet..ConnectionIdInner$GT$17h45842a7ce8626b0aE', symObjAddr: 0x4810, symBinAddr: 0x100057D40, symSize: 0x40 }
  - { offset: 0xB4EA1, size: 0x8, addend: 0x0, symName: '__ZN4core3ptr54drop_in_place$LT$quiche..stream..recv_buf..RecvBuf$GT$17hfc32a9cc4581ffbaE', symObjAddr: 0x4850, symBinAddr: 0x100057D80, symSize: 0x20 }
  - { offset: 0xB4ED0, size: 0x8, addend: 0x0, symName: '__ZN4core3ptr54drop_in_place$LT$quiche..stream..send_buf..SendBuf$GT$17h2df5c376e25a1d94E', symObjAddr: 0x4870, symBinAddr: 0x100057DA0, symSize: 0x60 }
  - { offset: 0xB4EFF, size: 0x8, addend: 0x0, symName: '__ZN4core3ptr55drop_in_place$LT$quiche..UnknownTransportParameters$GT$17h96b2d58fe0a14b44E', symObjAddr: 0x48D0, symBinAddr: 0x100057E00, symSize: 0x20 }
  - { offset: 0xB4F2E, size: 0x8, addend: 0x0, symName: '__ZN4core3ptr55drop_in_place$LT$quiche..cid..ConnectionIdentifiers$GT$17h824496ab966f21e0E', symObjAddr: 0x48F0, symBinAddr: 0x100057E20, symSize: 0xE0 }
  - { offset: 0xB4F5D, size: 0x8, addend: 0x0, symName: '__ZN4core3ptr56drop_in_place$LT$$u5b$alloc..vec..Vec$LT$u8$GT$$u5d$$GT$17ha4f04d18662ceda9E', symObjAddr: 0x49D0, symBinAddr: 0x100057F00, symSize: 0xA0 }
  - { offset: 0xB4F8C, size: 0x8, addend: 0x0, symName: '__ZN4core3ptr56drop_in_place$LT$hashbrown..set..IntoIter$LT$u64$GT$$GT$17hcb1963b8819b894aE', symObjAddr: 0x4A70, symBinAddr: 0x100057FA0, symSize: 0x20 }
  - { offset: 0xB4FBB, size: 0x8, addend: 0x0, symName: '__ZN4core3ptr57drop_in_place$LT$$LP$u64$C$quiche..stream..Stream$RP$$GT$17hbe0df40b652335a6E', symObjAddr: 0x4A90, symBinAddr: 0x100057FC0, symSize: 0x20 }
  - { offset: 0xB4FEA, size: 0x8, addend: 0x0, symName: '__ZN4core3ptr57drop_in_place$LT$quiche..crypto..boringssl..PacketKey$GT$17hc91ac0fb377d015eE', symObjAddr: 0x4AB0, symBinAddr: 0x100057FE0, symSize: 0x20 }
  - { offset: 0xB5019, size: 0x8, addend: 0x0, symName: '__ZN4core3ptr57drop_in_place$LT$slab..Slab$LT$quiche..path..Path$GT$$GT$17h381f81cfee4a644cE', symObjAddr: 0x4AD0, symBinAddr: 0x100058000, symSize: 0x20 }
  - { offset: 0xB5048, size: 0x8, addend: 0x0, symName: '__ZN4core3ptr57drop_in_place$LT$std..io..error..repr_bitpacked..Repr$GT$17h3b8d1075c7d807faE', symObjAddr: 0x4AF0, symBinAddr: 0x100058020, symSize: 0x20 }
  - { offset: 0xB5077, size: 0x8, addend: 0x0, symName: '__ZN4core3ptr58drop_in_place$LT$$u5b$quiche..range_buf..RangeBuf$u5d$$GT$17h107b99f1474704b2E', symObjAddr: 0x4B10, symBinAddr: 0x100058040, symSize: 0xA0 }
  - { offset: 0xB50A6, size: 0x8, addend: 0x0, symName: '__ZN4core3ptr58drop_in_place$LT$alloc..boxed..Box$LT$$u5b$u8$u5d$$GT$$GT$17h463404bdd8bf71c0E', symObjAddr: 0x4BB0, symBinAddr: 0x1000580E0, symSize: 0x20 }
  - { offset: 0xB50D5, size: 0x8, addend: 0x0, symName: '__ZN4core3ptr58drop_in_place$LT$slab..Entry$LT$quiche..path..Path$GT$$GT$17h4ae724b01bcb652dE', symObjAddr: 0x4BD0, symBinAddr: 0x100058100, symSize: 0x40 }
  - { offset: 0xB5104, size: 0x8, addend: 0x0, symName: '__ZN4core3ptr59drop_in_place$LT$$u5b$quiche..packet..ConnectionId$u5d$$GT$17h3e1140848415150dE', symObjAddr: 0x4C10, symBinAddr: 0x100058140, symSize: 0xA0 }
  - { offset: 0xB5133, size: 0x8, addend: 0x0, symName: '__ZN4core3ptr59drop_in_place$LT$quiche..cid..BoundedConnectionIdSeqSet$GT$17h0f4ede940c253f00E', symObjAddr: 0x4CB0, symBinAddr: 0x1000581E0, symSize: 0x20 }
  - { offset: 0xB5162, size: 0x8, addend: 0x0, symName: '__ZN4core3ptr600drop_in_place$LT$core..iter..adapters..map..map_fold$LT$$RF$$RF$$u5b$u8$u5d$$C$alloc..vec..Vec$LT$u8$GT$$C$$LP$$RP$$C$quiche..Config..set_application_protos..$u7b$$u7b$closure$u7d$$u7d$$C$core..iter..traits..iterator..Iterator..for_each..call$LT$alloc..vec..Vec$LT$u8$GT$$C$alloc..vec..Vec$LT$alloc..vec..Vec$LT$u8$GT$$GT$..extend_trusted$LT$core..iter..adapters..map..Map$LT$core..slice..iter..Iter$LT$$RF$$u5b$u8$u5d$$GT$$C$quiche..Config..set_application_protos..$u7b$$u7b$closure$u7d$$u7d$$GT$$GT$..$u7b$$u7b$closure$u7d$$u7d$$GT$..$u7b$$u7b$closure$u7d$$u7d$$GT$..$u7b$$u7b$closure$u7d$$u7d$$GT$17h7aee505a87985bdfE', symObjAddr: 0x4CD0, symBinAddr: 0x100058200, symSize: 0x20 }
  - { offset: 0xB5191, size: 0x8, addend: 0x0, symName: '__ZN4core3ptr60drop_in_place$LT$alloc..boxed..Box$LT$quiche..Config$GT$$GT$17h80f9e49b854393dcE', symObjAddr: 0x4CF0, symBinAddr: 0x100058220, symSize: 0x50 }
  - { offset: 0xB51C0, size: 0x8, addend: 0x0, symName: '__ZN4core3ptr60drop_in_place$LT$alloc..vec..Vec$LT$$RF$$u5b$u8$u5d$$GT$$GT$17h8f67e69e1c5b68baE', symObjAddr: 0x4D40, symBinAddr: 0x100058270, symSize: 0x50 }
  - { offset: 0xB51EF, size: 0x8, addend: 0x0, symName: '__ZN4core3ptr61drop_in_place$LT$$LP$u64$C$quiche..h3..stream..Stream$RP$$GT$17hcdcb5b629d3d07c2E', symObjAddr: 0x4D90, symBinAddr: 0x1000582C0, symSize: 0x20 }
  - { offset: 0xB521E, size: 0x8, addend: 0x0, symName: '__ZN4core3ptr61drop_in_place$LT$$u5b$quiche..cid..ConnectionIdEntry$u5d$$GT$17h0880ed6134304e32E', symObjAddr: 0x4DB0, symBinAddr: 0x1000582E0, symSize: 0xA0 }
  - { offset: 0xB524D, size: 0x8, addend: 0x0, symName: '__ZN4core3ptr61drop_in_place$LT$alloc..vec..Vec$LT$$LP$u64$C$u64$RP$$GT$$GT$17h2ca0637fa3352031E', symObjAddr: 0x4E50, symBinAddr: 0x100058380, symSize: 0x50 }
  - { offset: 0xB527C, size: 0x8, addend: 0x0, symName: '__ZN4core3ptr62drop_in_place$LT$$LP$u64$C$quiche..range_buf..RangeBuf$RP$$GT$17h1a151b447ccaf0feE', symObjAddr: 0x4EA0, symBinAddr: 0x1000583D0, symSize: 0x20 }
  - { offset: 0xB52AB, size: 0x8, addend: 0x0, symName: '__ZN4core3ptr62drop_in_place$LT$alloc..vec..Vec$LT$quiche..h3..Header$GT$$GT$17h579cdfab6cd1a177E', symObjAddr: 0x4EC0, symBinAddr: 0x1000583F0, symSize: 0x50 }
  - { offset: 0xB52DA, size: 0x8, addend: 0x0, symName: '__ZN4core3ptr62drop_in_place$LT$alloc..vec..set_len_on_drop..SetLenOnDrop$GT$17h992333e6e9809f2eE', symObjAddr: 0x4F10, symBinAddr: 0x100058440, symSize: 0x20 }
  - { offset: 0xB5309, size: 0x8, addend: 0x0, symName: '__ZN4core3ptr62drop_in_place$LT$std..sync..lazy_lock..LazyLock$LT$i32$GT$$GT$17ha87eab7ccfc66899E', symObjAddr: 0x4F30, symBinAddr: 0x100058460, symSize: 0x20 }
  - { offset: 0xB5338, size: 0x8, addend: 0x0, symName: '__ZN4core3ptr63drop_in_place$LT$alloc..boxed..Box$LT$quiche..h3..Event$GT$$GT$17h9a1adb3df315150cE', symObjAddr: 0x4F50, symBinAddr: 0x100058480, symSize: 0x50 }
  - { offset: 0xB5367, size: 0x8, addend: 0x0, symName: '__ZN4core3ptr63drop_in_place$LT$alloc..vec..Vec$LT$$LP$u64$C$usize$RP$$GT$$GT$17h336e44dabfed3790E', symObjAddr: 0x4FA0, symBinAddr: 0x1000584D0, symSize: 0x50 }
  - { offset: 0xB5396, size: 0x8, addend: 0x0, symName: '__ZN4core3ptr63drop_in_place$LT$quiche..recovery..gcongestion..bbr2..BBRv2$GT$17h4a32b2d20ccc66beE', symObjAddr: 0x4FF0, symBinAddr: 0x100058520, symSize: 0x20 }
  - { offset: 0xB53C5, size: 0x8, addend: 0x0, symName: '__ZN4core3ptr64drop_in_place$LT$alloc..boxed..Box$LT$quiche..Connection$GT$$GT$17h7c5a57a04c8aaf05E', symObjAddr: 0x5010, symBinAddr: 0x100058540, symSize: 0x50 }
  - { offset: 0xB53F4, size: 0x8, addend: 0x0, symName: '__ZN4core3ptr64drop_in_place$LT$alloc..boxed..Box$LT$quiche..h3..Config$GT$$GT$17h876992e3f751aa21E', symObjAddr: 0x5060, symBinAddr: 0x100058590, symSize: 0x50 }
  - { offset: 0xB5423, size: 0x8, addend: 0x0, symName: '__ZN4core3ptr64drop_in_place$LT$alloc..vec..Vec$LT$quiche..frame..Frame$GT$$GT$17hea0b25f8d8e7b046E', symObjAddr: 0x50B0, symBinAddr: 0x1000585E0, symSize: 0x50 }
  - { offset: 0xB5452, size: 0x8, addend: 0x0, symName: '__ZN4core3ptr64drop_in_place$LT$quiche..recovery..gcongestion..pacer..Pacer$GT$17h7e1606f5e437bbddE', symObjAddr: 0x5100, symBinAddr: 0x100058630, symSize: 0x20 }
  - { offset: 0xB5481, size: 0x8, addend: 0x0, symName: '__ZN4core3ptr65drop_in_place$LT$alloc..vec..Vec$LT$alloc..string..String$GT$$GT$17h2b2365663d649b7aE', symObjAddr: 0x5120, symBinAddr: 0x100058650, symSize: 0x50 }
  - { offset: 0xB54B0, size: 0x8, addend: 0x0, symName: '__ZN4core3ptr65drop_in_place$LT$alloc..vec..Vec$LT$quiche..h3..HeaderRef$GT$$GT$17haa1b96802904840bE', symObjAddr: 0x5170, symBinAddr: 0x1000586A0, symSize: 0x50 }
  - { offset: 0xB54DF, size: 0x8, addend: 0x0, symName: '__ZN4core3ptr67drop_in_place$LT$alloc..raw_vec..RawVec$LT$$RF$$u5b$u8$u5d$$GT$$GT$17h9741d959f0a3c8a6E', symObjAddr: 0x51C0, symBinAddr: 0x1000586F0, symSize: 0x20 }
  - { offset: 0xB550E, size: 0x8, addend: 0x0, symName: '__ZN4core3ptr67drop_in_place$LT$hashbrown..map..IntoIter$LT$u64$C$$LP$$RP$$GT$$GT$17hc1b2b9d8bcf5ddecE', symObjAddr: 0x51E0, symBinAddr: 0x100058710, symSize: 0x20 }
  - { offset: 0xB553D, size: 0x8, addend: 0x0, symName: '__ZN4core3ptr67drop_in_place$LT$quiche..crypto..boringssl..HeaderProtectionKey$GT$17h58fce149abea5d52E', symObjAddr: 0x5200, symBinAddr: 0x100058730, symSize: 0x30 }
  - { offset: 0xB556C, size: 0x8, addend: 0x0, symName: '__ZN4core3ptr68drop_in_place$LT$$u5b$slab..Entry$LT$quiche..path..Path$GT$$u5d$$GT$17hb1feaa0ca4167bb8E', symObjAddr: 0x5230, symBinAddr: 0x100058760, symSize: 0xA0 }
  - { offset: 0xB559B, size: 0x8, addend: 0x0, symName: '__ZN4core3ptr68drop_in_place$LT$alloc..boxed..Box$LT$quiche..h3..Connection$GT$$GT$17hf0e2f07510d3ff9cE', symObjAddr: 0x52D0, symBinAddr: 0x100058800, symSize: 0x50 }
  - { offset: 0xB55CA, size: 0x8, addend: 0x0, symName: '__ZN4core3ptr68drop_in_place$LT$alloc..boxed..Box$LT$std..io..error..Custom$GT$$GT$17hdfa1533350ca6e2aE', symObjAddr: 0x5320, symBinAddr: 0x100058850, symSize: 0x50 }
  - { offset: 0xB55F9, size: 0x8, addend: 0x0, symName: '__ZN4core3ptr68drop_in_place$LT$alloc..raw_vec..RawVec$LT$$LP$u64$C$u64$RP$$GT$$GT$17hdef1ff312de2361bE', symObjAddr: 0x5370, symBinAddr: 0x1000588A0, symSize: 0x20 }
  - { offset: 0xB5628, size: 0x8, addend: 0x0, symName: '__ZN4core3ptr68drop_in_place$LT$quiche..recovery..gcongestion..bbr2..mode..Mode$GT$17h1704bfd01a9b7e40E', symObjAddr: 0x5390, symBinAddr: 0x1000588C0, symSize: 0xA0 }
  - { offset: 0xB5657, size: 0x8, addend: 0x0, symName: '__ZN4core3ptr68drop_in_place$LT$std..collections..hash..set..HashSet$LT$u64$GT$$GT$17h9168f7b11e3d8f42E', symObjAddr: 0x5430, symBinAddr: 0x100058960, symSize: 0x20 }
  - { offset: 0xB5686, size: 0x8, addend: 0x0, symName: '__ZN4core3ptr69drop_in_place$LT$$u5b$quiche..packet..PktNumSpace$u3b$$u20$3$u5d$$GT$17h6a2dfc2b43977eb6E', symObjAddr: 0x5450, symBinAddr: 0x100058980, symSize: 0x90 }
  - { offset: 0xB56B5, size: 0x8, addend: 0x0, symName: '__ZN4core3ptr69drop_in_place$LT$alloc..boxed..Box$LT$quiche..path..PathEvent$GT$$GT$17h8fed40237a3b6aa7E', symObjAddr: 0x54E0, symBinAddr: 0x100058A10, symSize: 0x20 }
  - { offset: 0xB56E4, size: 0x8, addend: 0x0, symName: '__ZN4core3ptr69drop_in_place$LT$alloc..raw_vec..RawVec$LT$quiche..h3..Header$GT$$GT$17h87d24adab77cfb0dE', symObjAddr: 0x5500, symBinAddr: 0x100058A30, symSize: 0x20 }
  - { offset: 0xB5713, size: 0x8, addend: 0x0, symName: '__ZN4core3ptr69drop_in_place$LT$alloc..vec..Vec$LT$alloc..vec..Vec$LT$u8$GT$$GT$$GT$17hac9d2c70a42d3a05E', symObjAddr: 0x5520, symBinAddr: 0x100058A50, symSize: 0x50 }
  - { offset: 0xB5742, size: 0x8, addend: 0x0, symName: '__ZN4core3ptr69drop_in_place$LT$core..array..iter..IntoIter$LT$u64$C$6_usize$GT$$GT$17h9e8ea489216fa27aE', symObjAddr: 0x5570, symBinAddr: 0x100058AA0, symSize: 0x50 }
  - { offset: 0xB5771, size: 0x8, addend: 0x0, symName: '__ZN4core3ptr69drop_in_place$LT$core..option..Option$LT$quiche..crypto..Open$GT$$GT$17h919d8cf757a8c5b3E', symObjAddr: 0x55C0, symBinAddr: 0x100058AF0, symSize: 0x40 }
  - { offset: 0xB57A0, size: 0x8, addend: 0x0, symName: '__ZN4core3ptr69drop_in_place$LT$core..option..Option$LT$quiche..crypto..Seal$GT$$GT$17h626dc01f6dfbdbc5E', symObjAddr: 0x5600, symBinAddr: 0x100058B30, symSize: 0x40 }
  - { offset: 0xB57CF, size: 0x8, addend: 0x0, symName: '__ZN4core3ptr69drop_in_place$LT$core..option..Option$LT$quiche..frame..Frame$GT$$GT$17h8d1ce81ff3d13b5dE', symObjAddr: 0x5640, symBinAddr: 0x100058B70, symSize: 0x40 }
  - { offset: 0xB57FE, size: 0x8, addend: 0x0, symName: '__ZN4core3ptr69drop_in_place$LT$quiche..cid..BoundedNonEmptyConnectionIdVecDeque$GT$17hf3e2d5a88a85968cE', symObjAddr: 0x5680, symBinAddr: 0x100058BB0, symSize: 0x20 }
  - { offset: 0xB582D, size: 0x8, addend: 0x0, symName: '__ZN4core3ptr69drop_in_place$LT$std..collections..hash..set..IntoIter$LT$u64$GT$$GT$17ha8392f9107e94150E', symObjAddr: 0x56A0, symBinAddr: 0x100058BD0, symSize: 0x20 }
  - { offset: 0xB585C, size: 0x8, addend: 0x0, symName: '__ZN4core3ptr70drop_in_place$LT$alloc..raw_vec..RawVec$LT$$LP$u64$C$usize$RP$$GT$$GT$17h049a37d04aee0d75E', symObjAddr: 0x56C0, symBinAddr: 0x100058BF0, symSize: 0x20 }
  - { offset: 0xB588B, size: 0x8, addend: 0x0, symName: '__ZN4core3ptr70drop_in_place$LT$core..option..Option$LT$alloc..string..String$GT$$GT$17h6b72920bd83acedbE', symObjAddr: 0x56E0, symBinAddr: 0x100058C10, symSize: 0x40 }
  - { offset: 0xB58BA, size: 0x8, addend: 0x0, symName: '__ZN4core3ptr70drop_in_place$LT$hashbrown..raw..RawTable$LT$$LP$u64$C$u64$RP$$GT$$GT$17h72420d31130eabc3E', symObjAddr: 0x5720, symBinAddr: 0x100058C50, symSize: 0x20 }
  - { offset: 0xB58E9, size: 0x8, addend: 0x0, symName: '__ZN4core3ptr70drop_in_place$LT$quiche..recovery..gcongestion..bbr2..drain..Drain$GT$17hd8bf6c9cc7add5efE', symObjAddr: 0x5740, symBinAddr: 0x100058C70, symSize: 0x20 }
  - { offset: 0xB5918, size: 0x8, addend: 0x0, symName: '__ZN4core3ptr711drop_in_place$LT$core..iter..adapters..map..map_fold$LT$$RF$quiche..packet..ConnectionId$C$quiche..packet..ConnectionId$C$$LP$$RP$$C$$LT$quiche..packet..ConnectionId$u20$as$u20$core..clone..Clone$GT$..clone$C$core..iter..traits..iterator..Iterator..for_each..call$LT$quiche..packet..ConnectionId$C$alloc..vec..Vec$LT$quiche..packet..ConnectionId$GT$..extend_trusted$LT$core..iter..adapters..cloned..Cloned$LT$core..iter..adapters..map..Map$LT$alloc..collections..vec_deque..iter..Iter$LT$quiche..cid..ConnectionIdEntry$GT$$C$quiche..cid..ConnectionIdentifiers..scids_iter..$u7b$$u7b$closure$u7d$$u7d$$GT$$GT$$GT$..$u7b$$u7b$closure$u7d$$u7d$$GT$..$u7b$$u7b$closure$u7d$$u7d$$GT$..$u7b$$u7b$closure$u7d$$u7d$$GT$17h367c38beb8782950E', symObjAddr: 0x5760, symBinAddr: 0x100058C90, symSize: 0x20 }
  - { offset: 0xB5947, size: 0x8, addend: 0x0, symName: '__ZN4core3ptr71drop_in_place$LT$$u5b$quiche..packet..CryptoContext$u3b$$u20$3$u5d$$GT$17h10a355f1373fc89aE', symObjAddr: 0x5780, symBinAddr: 0x100058CB0, symSize: 0x90 }
  - { offset: 0xB5976, size: 0x8, addend: 0x0, symName: '__ZN4core3ptr71drop_in_place$LT$alloc..collections..vec_deque..VecDeque$LT$u64$GT$$GT$17he344f074bb5ff083E', symObjAddr: 0x5810, symBinAddr: 0x100058D40, symSize: 0x50 }
  - { offset: 0xB59A5, size: 0x8, addend: 0x0, symName: '__ZN4core3ptr71drop_in_place$LT$alloc..raw_vec..RawVec$LT$quiche..frame..Frame$GT$$GT$17hbc5810b0ef929a1fE', symObjAddr: 0x5860, symBinAddr: 0x100058D90, symSize: 0x20 }
  - { offset: 0xB59D4, size: 0x8, addend: 0x0, symName: '__ZN4core3ptr71drop_in_place$LT$core..array..iter..IntoIter$LT$usize$C$2_usize$GT$$GT$17h2299ac4c3598bb8cE', symObjAddr: 0x5880, symBinAddr: 0x100058DB0, symSize: 0x50 }
  - { offset: 0xB5A03, size: 0x8, addend: 0x0, symName: '__ZN4core3ptr71drop_in_place$LT$core..option..Option$LT$quiche..recovery..Sent$GT$$GT$17hdfa536d7b0d1fcc5E', symObjAddr: 0x58D0, symBinAddr: 0x100058E00, symSize: 0x40 }
  - { offset: 0xB5A32, size: 0x8, addend: 0x0, symName: '__ZN4core3ptr71drop_in_place$LT$quiche..recovery..gcongestion..recovery..GRecovery$GT$17h4fa90614a960cbfdE', symObjAddr: 0x5910, symBinAddr: 0x100058E40, symSize: 0xC0 }
  - { offset: 0xB5A61, size: 0x8, addend: 0x0, symName: '__ZN4core3ptr71drop_in_place$LT$smallvec..IntoIter$LT$$u5b$u64$u3b$$u20$1$u5d$$GT$$GT$17h2e75dc56af7e1788E', symObjAddr: 0x59D0, symBinAddr: 0x100058F00, symSize: 0x50 }
  - { offset: 0xB5A90, size: 0x8, addend: 0x0, symName: '__ZN4core3ptr71drop_in_place$LT$smallvec..SmallVec$LT$$u5b$u64$u3b$$u20$1$u5d$$GT$$GT$17h26ed8b8dced719bbE', symObjAddr: 0x5A20, symBinAddr: 0x100058F50, symSize: 0x20 }
  - { offset: 0xB5ABF, size: 0x8, addend: 0x0, symName: '__ZN4core3ptr71drop_in_place$LT$smallvec..SmallVec$LT$$u5b$u64$u3b$$u20$8$u5d$$GT$$GT$17heea8e2b709c76799E', symObjAddr: 0x5A40, symBinAddr: 0x100058F70, symSize: 0x20 }
  - { offset: 0xB5AEE, size: 0x8, addend: 0x0, symName: '__ZN4core3ptr72drop_in_place$LT$$LP$quiche..crypto..Open$C$quiche..crypto..Seal$RP$$GT$17hb6584ebce679f000E', symObjAddr: 0x5A60, symBinAddr: 0x100058F90, symSize: 0x60 }
  - { offset: 0xB5B1D, size: 0x8, addend: 0x0, symName: '__ZN4core3ptr72drop_in_place$LT$alloc..boxed..Box$LT$quiche..stream..StreamIter$GT$$GT$17h4cde45ea239df68dE', symObjAddr: 0x5AC0, symBinAddr: 0x100058FF0, symSize: 0x50 }
  - { offset: 0xB5B4C, size: 0x8, addend: 0x0, symName: '__ZN4core3ptr72drop_in_place$LT$alloc..collections..btree..mem..replace..PanicGuard$GT$17hff1baf792f3e627dE', symObjAddr: 0x5B10, symBinAddr: 0x100059040, symSize: 0x20 }
  - { offset: 0xB5B7B, size: 0x8, addend: 0x0, symName: '__ZN4core3ptr72drop_in_place$LT$alloc..raw_vec..RawVec$LT$alloc..string..String$GT$$GT$17h0a65b72a48efd53fE', symObjAddr: 0x5B30, symBinAddr: 0x100059060, symSize: 0x20 }
  - { offset: 0xB5BAA, size: 0x8, addend: 0x0, symName: '__ZN4core3ptr72drop_in_place$LT$alloc..raw_vec..RawVec$LT$quiche..h3..HeaderRef$GT$$GT$17hca5d3b8b2186a0bbE', symObjAddr: 0x5B50, symBinAddr: 0x100059080, symSize: 0x20 }
  - { offset: 0xB5BD9, size: 0x8, addend: 0x0, symName: '__ZN4core3ptr72drop_in_place$LT$alloc..vec..Vec$LT$quiche..packet..ConnectionId$GT$$GT$17h1bfb8e159f187749E', symObjAddr: 0x5B70, symBinAddr: 0x1000590A0, symSize: 0x50 }
  - { offset: 0xB5C08, size: 0x8, addend: 0x0, symName: '__ZN4core3ptr72drop_in_place$LT$core..option..Option$LT$quiche..ConnectionError$GT$$GT$17he55e5d8b323b9021E', symObjAddr: 0x5BC0, symBinAddr: 0x1000590F0, symSize: 0x40 }
  - { offset: 0xB5C37, size: 0x8, addend: 0x0, symName: '__ZN4core3ptr72drop_in_place$LT$quiche..recovery..gcongestion..recovery..SentPacket$GT$17h04ac3c0705eca230E', symObjAddr: 0x5C00, symBinAddr: 0x100059130, symSize: 0x20 }
  - { offset: 0xB5C66, size: 0x8, addend: 0x0, symName: '__ZN4core3ptr72drop_in_place$LT$quiche..recovery..gcongestion..recovery..SentStatus$GT$17h3a6c50c64013c377E', symObjAddr: 0x5C20, symBinAddr: 0x100059150, symSize: 0x50 }
  - { offset: 0xB5C95, size: 0x8, addend: 0x0, symName: '__ZN4core3ptr73drop_in_place$LT$$LP$alloc..vec..Vec$LT$u8$GT$$C$quiche..RecvInfo$RP$$GT$17h540d5f8d6ceeb4aaE', symObjAddr: 0x5C70, symBinAddr: 0x1000591A0, symSize: 0x20 }
  - { offset: 0xB5CC4, size: 0x8, addend: 0x0, symName: '__ZN4core3ptr73drop_in_place$LT$$LP$alloc..vec..Vec$LT$u8$GT$$C$quiche..SendInfo$RP$$GT$17haedcfb7b473bfc8fE', symObjAddr: 0x5C90, symBinAddr: 0x1000591C0, symSize: 0x20 }
  - { offset: 0xB5CF3, size: 0x8, addend: 0x0, symName: '__ZN4core3ptr73drop_in_place$LT$alloc..raw_vec..RawVec$LT$quiche..recovery..Sent$GT$$GT$17h6bc9d5dbc3a3e7ffE', symObjAddr: 0x5CB0, symBinAddr: 0x1000591E0, symSize: 0x20 }
  - { offset: 0xB5D22, size: 0x8, addend: 0x0, symName: '__ZN4core3ptr74drop_in_place$LT$alloc..boxed..Box$LT$quiche..path..SocketAddrIter$GT$$GT$17h48a32c3982bc97f7E', symObjAddr: 0x5CD0, symBinAddr: 0x100059200, symSize: 0x50 }
  - { offset: 0xB5D51, size: 0x8, addend: 0x0, symName: '__ZN4core3ptr74drop_in_place$LT$alloc..raw_vec..RawVec$LT$$u5b$u8$u3b$$u20$8$u5d$$GT$$GT$17h62629305e2fe477aE', symObjAddr: 0x5D20, symBinAddr: 0x100059250, symSize: 0x20 }
  - { offset: 0xB5D80, size: 0x8, addend: 0x0, symName: '__ZN4core3ptr74drop_in_place$LT$alloc..raw_vec..RawVec$LT$quiche..path..PathEvent$GT$$GT$17h20190c68023c707cE', symObjAddr: 0x5D40, symBinAddr: 0x100059270, symSize: 0x20 }
  - { offset: 0xB5DAF, size: 0x8, addend: 0x0, symName: '__ZN4core3ptr74drop_in_place$LT$core..option..Option$LT$alloc..vec..Vec$LT$u8$GT$$GT$$GT$17h4750bcc6277ab081E', symObjAddr: 0x5D60, symBinAddr: 0x100059290, symSize: 0x40 }
  - { offset: 0xB5DDE, size: 0x8, addend: 0x0, symName: '__ZN4core3ptr74drop_in_place$LT$core..option..Option$LT$quiche..packet..KeyUpdate$GT$$GT$17h36a5cf2dc0229732E', symObjAddr: 0x5DA0, symBinAddr: 0x1000592D0, symSize: 0x40 }
  - { offset: 0xB5E0D, size: 0x8, addend: 0x0, symName: '__ZN4core3ptr74drop_in_place$LT$quiche..recovery..congestion..recovery..RecoveryEpoch$GT$17hf3343673ae259fe4E', symObjAddr: 0x5DE0, symBinAddr: 0x100059310, symSize: 0x90 }
  - { offset: 0xB5E3C, size: 0x8, addend: 0x0, symName: '__ZN4core3ptr74drop_in_place$LT$quiche..recovery..gcongestion..bbr2..startup..Startup$GT$17h5e8b8c4b52cd9cf0E', symObjAddr: 0x5E70, symBinAddr: 0x1000593A0, symSize: 0x20 }
  - { offset: 0xB5E6B, size: 0x8, addend: 0x0, symName: '__ZN4core3ptr75drop_in_place$LT$alloc..boxed..Box$LT$quiche..ffi..ConnectionIdIter$GT$$GT$17h03a88f83b60cc392E', symObjAddr: 0x5E90, symBinAddr: 0x1000593C0, symSize: 0x50 }
  - { offset: 0xB5E9A, size: 0x8, addend: 0x0, symName: '__ZN4core3ptr75drop_in_place$LT$alloc..vec..Vec$LT$$LP$u64$C$$LP$u64$C$u64$RP$$RP$$GT$$GT$17he1673e1b0e2fde1cE', symObjAddr: 0x5EE0, symBinAddr: 0x100059410, symSize: 0x50 }
  - { offset: 0xB5EC9, size: 0x8, addend: 0x0, symName: '__ZN4core3ptr75drop_in_place$LT$core..option..Option$LT$alloc..vec..Vec$LT$u32$GT$$GT$$GT$17hc5db127c96c457d5E', symObjAddr: 0x5F30, symBinAddr: 0x100059460, symSize: 0x40 }
  - { offset: 0xB5EF8, size: 0x8, addend: 0x0, symName: '__ZN4core3ptr75drop_in_place$LT$core..option..Option$LT$quiche..h3..stream..Stream$GT$$GT$17h19f02cc891322555E', symObjAddr: 0x5F70, symBinAddr: 0x1000594A0, symSize: 0x40 }
  - { offset: 0xB5F27, size: 0x8, addend: 0x0, symName: '__ZN4core3ptr75drop_in_place$LT$hashbrown..raw..RawTable$LT$$LP$u64$C$$LP$$RP$$RP$$GT$$GT$17h63dd02ff211a956aE', symObjAddr: 0x5FB0, symBinAddr: 0x1000594E0, symSize: 0x20 }
  - { offset: 0xB5F56, size: 0x8, addend: 0x0, symName: '__ZN4core3ptr75drop_in_place$LT$quiche..recovery..congestion..recovery..LegacyRecovery$GT$17h0260d615902b29bcE', symObjAddr: 0x5FD0, symBinAddr: 0x100059500, symSize: 0x60 }
  - { offset: 0xB5F85, size: 0x8, addend: 0x0, symName: '__ZN4core3ptr75drop_in_place$LT$quiche..recovery..gcongestion..bbr2..probe_bw..ProbeBW$GT$17he42da3fa9f725bbcE', symObjAddr: 0x6030, symBinAddr: 0x100059560, symSize: 0x20 }
  - { offset: 0xB5FB4, size: 0x8, addend: 0x0, symName: '__ZN4core3ptr75drop_in_place$LT$quiche..recovery..gcongestion..recovery..RecoveryEpoch$GT$17hbca80414f48dd1d6E', symObjAddr: 0x6050, symBinAddr: 0x100059580, symSize: 0x90 }
  - { offset: 0xB5FE3, size: 0x8, addend: 0x0, symName: '__ZN4core3ptr76drop_in_place$LT$alloc..raw_vec..RawVec$LT$alloc..vec..Vec$LT$u8$GT$$GT$$GT$17h6027b40b1cd9dce8E', symObjAddr: 0x60E0, symBinAddr: 0x100059610, symSize: 0x20 }
  - { offset: 0xB6012, size: 0x8, addend: 0x0, symName: '__ZN4core3ptr76drop_in_place$LT$core..option..Option$LT$quiche..range_buf..RangeBuf$GT$$GT$17h31863415f8f8b03eE', symObjAddr: 0x6100, symBinAddr: 0x100059630, symSize: 0x40 }
  - { offset: 0xB6041, size: 0x8, addend: 0x0, symName: '__ZN4core3ptr77drop_in_place$LT$alloc..vec..into_iter..IntoIter$LT$$LP$u64$C$u64$RP$$GT$$GT$17hdf03d715bfcfdf68E', symObjAddr: 0x6140, symBinAddr: 0x100059670, symSize: 0x20 }
  - { offset: 0xB6070, size: 0x8, addend: 0x0, symName: '__ZN4core3ptr77drop_in_place$LT$core..option..Option$LT$quiche..packet..ConnectionId$GT$$GT$17h132f73cf0c7b98a4E', symObjAddr: 0x6160, symBinAddr: 0x100059690, symSize: 0x40 }
  - { offset: 0xB609F, size: 0x8, addend: 0x0, symName: '__ZN4core3ptr77drop_in_place$LT$quiche..recovery..gcongestion..bbr2..probe_rtt..ProbeRTT$GT$17h90ea27dcc44a232eE', symObjAddr: 0x61A0, symBinAddr: 0x1000596D0, symSize: 0x20 }
  - { offset: 0xB60CE, size: 0x8, addend: 0x0, symName: '__ZN4core3ptr78drop_in_place$LT$alloc..collections..btree..map..BTreeMap$LT$u64$C$u64$GT$$GT$17hca4600ffd35c08d9E', symObjAddr: 0x61C0, symBinAddr: 0x1000596F0, symSize: 0x20 }
  - { offset: 0xB60FD, size: 0x8, addend: 0x0, symName: '__ZN4core3ptr78drop_in_place$LT$alloc..collections..btree..map..IntoIter$LT$u64$C$u64$GT$$GT$17h39e2d437a61e2fdeE', symObjAddr: 0x61E0, symBinAddr: 0x100059710, symSize: 0x20 }
  - { offset: 0xB612C, size: 0x8, addend: 0x0, symName: '__ZN4core3ptr78drop_in_place$LT$alloc..raw_vec..RawVec$LT$quiche..range_buf..RangeBuf$GT$$GT$17hbed8d0de7034f271E', symObjAddr: 0x6200, symBinAddr: 0x100059730, symSize: 0x20 }
  - { offset: 0xB615B, size: 0x8, addend: 0x0, symName: '__ZN4core3ptr78drop_in_place$LT$alloc..sync..Arc$LT$quiche..stream..StreamPriorityKey$GT$$GT$17hcffabc565650753bE', symObjAddr: 0x6220, symBinAddr: 0x100059750, symSize: 0x20 }
  - { offset: 0xB618A, size: 0x8, addend: 0x0, symName: '__ZN4core3ptr78drop_in_place$LT$alloc..vec..Vec$LT$core..net..socket_addr..SocketAddr$GT$$GT$17hf1d24a0f4b61e8a8E', symObjAddr: 0x6240, symBinAddr: 0x100059770, symSize: 0x50 }
  - { offset: 0xB61B9, size: 0x8, addend: 0x0, symName: '__ZN4core3ptr78drop_in_place$LT$alloc..vec..Vec$LT$core..ops..range..Range$LT$u64$GT$$GT$$GT$17h8826d79d168299e2E', symObjAddr: 0x6290, symBinAddr: 0x1000597C0, symSize: 0x50 }
  - { offset: 0xB61E8, size: 0x8, addend: 0x0, symName: '__ZN4core3ptr78drop_in_place$LT$core..result..Result$LT$usize$C$std..io..error..Error$GT$$GT$17h94b4201d52a53ac7E', symObjAddr: 0x62E0, symBinAddr: 0x100059810, symSize: 0x30 }
  - { offset: 0xB6217, size: 0x8, addend: 0x0, symName: '__ZN4core3ptr78drop_in_place$LT$hashbrown..raw..RawIntoIter$LT$$LP$u64$C$$LP$$RP$$RP$$GT$$GT$17hca975c8713abc8dcE', symObjAddr: 0x6310, symBinAddr: 0x100059840, symSize: 0x20 }
  - { offset: 0xB6246, size: 0x8, addend: 0x0, symName: '__ZN4core3ptr79drop_in_place$LT$alloc..raw_vec..RawVec$LT$quiche..packet..ConnectionId$GT$$GT$17h4c20d3cb5d5b2584E', symObjAddr: 0x6330, symBinAddr: 0x100059860, symSize: 0x20 }
  - { offset: 0xB6275, size: 0x8, addend: 0x0, symName: '__ZN4core3ptr79drop_in_place$LT$alloc..vec..Vec$LT$quiche..recovery..gcongestion..Lost$GT$$GT$17h12ef8eb6be602a2fE', symObjAddr: 0x6350, symBinAddr: 0x100059880, symSize: 0x50 }
  - { offset: 0xB62A4, size: 0x8, addend: 0x0, symName: '__ZN4core3ptr79drop_in_place$LT$core..option..Option$LT$quiche..cid..ConnectionIdEntry$GT$$GT$17h8e6cb682db93c4dfE', symObjAddr: 0x63A0, symBinAddr: 0x1000598D0, symSize: 0x40 }
  - { offset: 0xB62D3, size: 0x8, addend: 0x0, symName: '__ZN4core3ptr80drop_in_place$LT$alloc..vec..Vec$LT$quiche..recovery..gcongestion..Acked$GT$$GT$17hc9af6ef71ff56e66E', symObjAddr: 0x63E0, symBinAddr: 0x100059910, symSize: 0x50 }
  - { offset: 0xB6302, size: 0x8, addend: 0x0, symName: '__ZN4core3ptr80drop_in_place$LT$alloc..vec..into_iter..IntoIter$LT$quiche..frame..Frame$GT$$GT$17h804d76074a89dcaaE', symObjAddr: 0x6430, symBinAddr: 0x100059960, symSize: 0x20 }
  - { offset: 0xB6331, size: 0x8, addend: 0x0, symName: '__ZN4core3ptr80drop_in_place$LT$core..option..Option$LT$$LP$u64$C$quiche..h3..Event$RP$$GT$$GT$17hd40fc73c7d2f170fE', symObjAddr: 0x6450, symBinAddr: 0x100059980, symSize: 0x40 }
  - { offset: 0xB6360, size: 0x8, addend: 0x0, symName: '__ZN4core3ptr81drop_in_place$LT$alloc..raw_vec..RawVec$LT$quiche..cid..ConnectionIdEntry$GT$$GT$17h9c29a8183713d46eE', symObjAddr: 0x6490, symBinAddr: 0x1000599C0, symSize: 0x20 }
  - { offset: 0xB638F, size: 0x8, addend: 0x0, symName: '__ZN4core3ptr81drop_in_place$LT$alloc..vec..Vec$LT$slab..Entry$LT$quiche..path..Path$GT$$GT$$GT$17hcaaa7596443b5cffE', symObjAddr: 0x64B0, symBinAddr: 0x1000599E0, symSize: 0x50 }
  - { offset: 0xB63BE, size: 0x8, addend: 0x0, symName: '__ZN4core3ptr81drop_in_place$LT$core..result..Result$LT$$LP$$RP$$C$std..io..error..Error$GT$$GT$17h7f57b1b43b479d4bE', symObjAddr: 0x6500, symBinAddr: 0x100059A30, symSize: 0x40 }
  - { offset: 0xB63ED, size: 0x8, addend: 0x0, symName: '__ZN4core3ptr81drop_in_place$LT$std..io..buffered..bufwriter..BufWriter$LT$std..fs..File$GT$$GT$17h50426ee8a16a5b1dE', symObjAddr: 0x6540, symBinAddr: 0x100059A70, symSize: 0x80 }
  - { offset: 0xB641C, size: 0x8, addend: 0x0, symName: '__ZN4core3ptr82drop_in_place$LT$$u5b$quiche..recovery..gcongestion..recovery..SentPacket$u5d$$GT$17h769387b230691e44E', symObjAddr: 0x65C0, symBinAddr: 0x100059AF0, symSize: 0xA0 }
  - { offset: 0xB644B, size: 0x8, addend: 0x0, symName: '__ZN4core3ptr82drop_in_place$LT$alloc..raw_vec..RawVec$LT$$LP$u64$C$$LP$u64$C$u64$RP$$RP$$GT$$GT$17hd6051955238628e5E', symObjAddr: 0x6660, symBinAddr: 0x100059B90, symSize: 0x20 }
  - { offset: 0xB647A, size: 0x8, addend: 0x0, symName: '__ZN4core3ptr82drop_in_place$LT$alloc..sync..Arc$LT$alloc..boxed..Box$LT$$u5b$u8$u5d$$GT$$GT$$GT$17h65cc7dd89bb30f8aE', symObjAddr: 0x6680, symBinAddr: 0x100059BB0, symSize: 0x20 }
  - { offset: 0xB64A9, size: 0x8, addend: 0x0, symName: '__ZN4core3ptr83drop_in_place$LT$$u5b$$LP$alloc..vec..Vec$LT$u8$GT$$C$quiche..RecvInfo$RP$$u5d$$GT$17h5986e768f8199767E', symObjAddr: 0x66A0, symBinAddr: 0x100059BD0, symSize: 0xA0 }
  - { offset: 0xB64D8, size: 0x8, addend: 0x0, symName: '__ZN4core3ptr83drop_in_place$LT$$u5b$$LP$alloc..vec..Vec$LT$u8$GT$$C$quiche..SendInfo$RP$$u5d$$GT$17h53454b8ec7d46f7dE', symObjAddr: 0x6740, symBinAddr: 0x100059C70, symSize: 0xA0 }
  - { offset: 0xB6507, size: 0x8, addend: 0x0, symName: '__ZN4core3ptr83drop_in_place$LT$core..array..iter..IntoIter$LT$$LP$u64$C$u64$RP$$C$4_usize$GT$$GT$17h348df3f7fa01370eE', symObjAddr: 0x67E0, symBinAddr: 0x100059D10, symSize: 0x50 }
  - { offset: 0xB6536, size: 0x8, addend: 0x0, symName: '__ZN4core3ptr83drop_in_place$LT$core..option..Option$LT$quiche..UnknownTransportParameters$GT$$GT$17h781d6a0461fb316dE', symObjAddr: 0x6830, symBinAddr: 0x100059D60, symSize: 0x40 }
  - { offset: 0xB6565, size: 0x8, addend: 0x0, symName: '__ZN4core3ptr84drop_in_place$LT$hashbrown..raw..RawTable$LT$$LP$u64$C$$LP$u64$C$u64$RP$$RP$$GT$$GT$17h479c86c49271e1b3E', symObjAddr: 0x6870, symBinAddr: 0x100059DA0, symSize: 0x20 }
  - { offset: 0xB6594, size: 0x8, addend: 0x0, symName: '__ZN4core3ptr85drop_in_place$LT$alloc..raw_vec..RawVec$LT$core..net..socket_addr..SocketAddr$GT$$GT$17h3f4effbfb083b3d1E', symObjAddr: 0x6890, symBinAddr: 0x100059DC0, symSize: 0x20 }
  - { offset: 0xB65C3, size: 0x8, addend: 0x0, symName: '__ZN4core3ptr85drop_in_place$LT$alloc..raw_vec..RawVec$LT$core..ops..range..Range$LT$u64$GT$$GT$$GT$17h5378380ef9f4bb33E', symObjAddr: 0x68B0, symBinAddr: 0x100059DE0, symSize: 0x20 }
  - { offset: 0xB65F2, size: 0x8, addend: 0x0, symName: '__ZN4core3ptr85drop_in_place$LT$smallvec..Drain$LT$$u5b$quiche..frame..Frame$u3b$$u20$1$u5d$$GT$$GT$17h7aeb352cea84472fE', symObjAddr: 0x68D0, symBinAddr: 0x100059E00, symSize: 0x20 }
  - { offset: 0xB6621, size: 0x8, addend: 0x0, symName: '__ZN4core3ptr85drop_in_place$LT$smallvec..SmallVec$LT$$u5b$$LP$u64$C$u64$RP$$u3b$$u20$4$u5d$$GT$$GT$17he52a6a97396401a2E', symObjAddr: 0x68F0, symBinAddr: 0x100059E20, symSize: 0x20 }
  - { offset: 0xB6650, size: 0x8, addend: 0x0, symName: '__ZN4core3ptr86drop_in_place$LT$alloc..raw_vec..RawVec$LT$quiche..recovery..gcongestion..Lost$GT$$GT$17hecf9328a10e9eb7aE', symObjAddr: 0x6910, symBinAddr: 0x100059E40, symSize: 0x20 }
  - { offset: 0xB667F, size: 0x8, addend: 0x0, symName: '__ZN4core3ptr86drop_in_place$LT$core..result..Result$LT$std..fs..File$C$std..io..error..Error$GT$$GT$17hb0d85e4f8c955274E', symObjAddr: 0x6930, symBinAddr: 0x100059E60, symSize: 0x40 }
  - { offset: 0xB66AE, size: 0x8, addend: 0x0, symName: '__ZN4core3ptr87drop_in_place$LT$alloc..raw_vec..RawVec$LT$quiche..recovery..gcongestion..Acked$GT$$GT$17h525a6c39bfa236f8E', symObjAddr: 0x6970, symBinAddr: 0x100059EA0, symSize: 0x20 }
  - { offset: 0xB66DD, size: 0x8, addend: 0x0, symName: '__ZN4core3ptr87drop_in_place$LT$alloc..sync..ArcInner$LT$alloc..boxed..Box$LT$$u5b$u8$u5d$$GT$$GT$$GT$17had42f1ac1c0674aeE', symObjAddr: 0x6990, symBinAddr: 0x100059EC0, symSize: 0x20 }
  - { offset: 0xB670C, size: 0x8, addend: 0x0, symName: '__ZN4core3ptr87drop_in_place$LT$core..array..iter..IntoIter$LT$quiche..packet..Epoch$C$2_usize$GT$$GT$17h5d7f4a32d1a62db2E', symObjAddr: 0x69B0, symBinAddr: 0x100059EE0, symSize: 0x50 }
  - { offset: 0xB673B, size: 0x8, addend: 0x0, symName: '__ZN4core3ptr87drop_in_place$LT$core..array..iter..IntoIter$LT$quiche..packet..Epoch$C$3_usize$GT$$GT$17h55edd6ee510a117eE', symObjAddr: 0x6A00, symBinAddr: 0x100059F30, symSize: 0x50 }
  - { offset: 0xB676A, size: 0x8, addend: 0x0, symName: '__ZN4core3ptr87drop_in_place$LT$quiche..UnknownTransportParameter$LT$alloc..vec..Vec$LT$u8$GT$$GT$$GT$17h77063cb02d2d8b4dE', symObjAddr: 0x6A50, symBinAddr: 0x100059F80, symSize: 0x20 }
  - { offset: 0xB6799, size: 0x8, addend: 0x0, symName: '__ZN4core3ptr87drop_in_place$LT$smallvec..IntoIter$LT$$u5b$$LP$u64$C$usize$RP$$u3b$$u20$1$u5d$$GT$$GT$17hbaea7a80fec7f1a1E', symObjAddr: 0x6A70, symBinAddr: 0x100059FA0, symSize: 0x50 }
  - { offset: 0xB67C8, size: 0x8, addend: 0x0, symName: '__ZN4core3ptr87drop_in_place$LT$smallvec..SmallVec$LT$$u5b$$LP$u64$C$usize$RP$$u3b$$u20$1$u5d$$GT$$GT$17hba4abe2555ce0184E', symObjAddr: 0x6AC0, symBinAddr: 0x100059FF0, symSize: 0x20 }
  - { offset: 0xB67F7, size: 0x8, addend: 0x0, symName: '__ZN4core3ptr88drop_in_place$LT$alloc..raw_vec..RawVec$LT$slab..Entry$LT$quiche..path..Path$GT$$GT$$GT$17hf56befda1b0a728eE', symObjAddr: 0x6AE0, symBinAddr: 0x10005A010, symSize: 0x20 }
  - { offset: 0xB6826, size: 0x8, addend: 0x0, symName: '__ZN4core3ptr88drop_in_place$LT$hashbrown..set..HashSet$LT$u64$C$std..hash..random..RandomState$GT$$GT$17hf65b160fd79ba5bbE', symObjAddr: 0x6B00, symBinAddr: 0x10005A030, symSize: 0x20 }
  - { offset: 0xB6855, size: 0x8, addend: 0x0, symName: '__ZN4core3ptr88drop_in_place$LT$smallvec..IntoIter$LT$$u5b$quiche..frame..Frame$u3b$$u20$1$u5d$$GT$$GT$17h2d4fbb84d72ee27fE', symObjAddr: 0x6B20, symBinAddr: 0x10005A050, symSize: 0x50 }
  - { offset: 0xB6884, size: 0x8, addend: 0x0, symName: '__ZN4core3ptr88drop_in_place$LT$smallvec..SmallVec$LT$$u5b$quiche..frame..Frame$u3b$$u20$1$u5d$$GT$$GT$17h0342c7e7d7256b00E', symObjAddr: 0x6B70, symBinAddr: 0x10005A0A0, symSize: 0x20 }
  - { offset: 0xB68B3, size: 0x8, addend: 0x0, symName: '__ZN4core3ptr89drop_in_place$LT$alloc..vec..Vec$LT$quiche..recovery..congestion..recovery..Acked$GT$$GT$17h15630472d26ad48aE', symObjAddr: 0x6B90, symBinAddr: 0x10005A0C0, symSize: 0x50 }
  - { offset: 0xB68E2, size: 0x8, addend: 0x0, symName: '__ZN4core3ptr89drop_in_place$LT$core..option..Option$LT$alloc..vec..Vec$LT$$LP$u64$C$u64$RP$$GT$$GT$$GT$17h0d94639f7b6598e1E', symObjAddr: 0x6BE0, symBinAddr: 0x10005A110, symSize: 0x40 }
  - { offset: 0xB6911, size: 0x8, addend: 0x0, symName: '__ZN4core3ptr89drop_in_place$LT$dyn$u20$std..io..Write$u2b$core..marker..Sync$u2b$core..marker..Send$GT$17hca680aa8ca19dec9E', symObjAddr: 0x6C20, symBinAddr: 0x10005A150, symSize: 0x40 }
  - { offset: 0xB6940, size: 0x8, addend: 0x0, symName: '__ZN4core3ptr89drop_in_place$LT$hashbrown..raw..RawTable$LT$$LP$u64$C$quiche..stream..Stream$RP$$GT$$GT$17h61bab74050b2c0f2E', symObjAddr: 0x6C60, symBinAddr: 0x10005A190, symSize: 0x20 }
  - { offset: 0xB696F, size: 0x8, addend: 0x0, symName: '__ZN4core3ptr90drop_in_place$LT$alloc..collections..vec_deque..VecDeque$LT$quiche..recovery..Sent$GT$$GT$17ha91272ca8ad9ce43E', symObjAddr: 0x6C80, symBinAddr: 0x10005A1B0, symSize: 0x50 }
  - { offset: 0xB699E, size: 0x8, addend: 0x0, symName: '__ZN4core3ptr90drop_in_place$LT$core..slice..sort..stable..merge..MergeState$LT$$LP$u64$C$u64$RP$$GT$$GT$17h43a300d851f154f6E', symObjAddr: 0x6CD0, symBinAddr: 0x10005A200, symSize: 0x20 }
  - { offset: 0xB69CD, size: 0x8, addend: 0x0, symName: '__ZN4core3ptr90drop_in_place$LT$quiche..recovery..gcongestion..bbr2..network_model..BBRv2NetworkModel$GT$17h46f07c755a8ea81bE', symObjAddr: 0x6CF0, symBinAddr: 0x10005A220, symSize: 0x20 }
  - { offset: 0xB69FC, size: 0x8, addend: 0x0, symName: '__ZN4core3ptr90drop_in_place$LT$std..io..buffered..bufwriter..BufWriter$LT$W$GT$..flush_buf..BufGuard$GT$17h491fdea2ccf168a7E', symObjAddr: 0x6D10, symBinAddr: 0x10005A240, symSize: 0x20 }
  - { offset: 0xB6A2B, size: 0x8, addend: 0x0, symName: '__ZN4core3ptr91drop_in_place$LT$alloc..collections..vec_deque..VecDeque$LT$$u5b$u8$u3b$$u20$8$u5d$$GT$$GT$17h180f83429fac8c92E', symObjAddr: 0x6D30, symBinAddr: 0x10005A260, symSize: 0x50 }
  - { offset: 0xB6A5A, size: 0x8, addend: 0x0, symName: '__ZN4core3ptr91drop_in_place$LT$alloc..collections..vec_deque..VecDeque$LT$quiche..path..PathEvent$GT$$GT$17h1e6ed986f0e3e182E', symObjAddr: 0x6D80, symBinAddr: 0x10005A2B0, symSize: 0x50 }
  - { offset: 0xB6A89, size: 0x8, addend: 0x0, symName: '__ZN4core3ptr91drop_in_place$LT$alloc..vec..into_iter..IntoIter$LT$$LP$u64$C$$LP$u64$C$u64$RP$$RP$$GT$$GT$17h3fd6b52ef4fa8f95E', symObjAddr: 0x6DD0, symBinAddr: 0x10005A300, symSize: 0x20 }
  - { offset: 0xB6AB8, size: 0x8, addend: 0x0, symName: '__ZN4core3ptr92drop_in_place$LT$quiche..recovery..gcongestion..bbr..bandwidth_sampler..BandwidthSampler$GT$17h1ea9ed68aba54070E', symObjAddr: 0x6DF0, symBinAddr: 0x10005A320, symSize: 0x60 }
  - { offset: 0xB6AE7, size: 0x8, addend: 0x0, symName: '__ZN4core3ptr93drop_in_place$LT$alloc..collections..vec_deque..VecDeque$LT$alloc..vec..Vec$LT$u8$GT$$GT$$GT$17hea35a475b8a9c5acE', symObjAddr: 0x6E50, symBinAddr: 0x10005A380, symSize: 0x50 }
  - { offset: 0xB6B16, size: 0x8, addend: 0x0, symName: '__ZN4core3ptr93drop_in_place$LT$dyn$u20$core..error..Error$u2b$core..marker..Sync$u2b$core..marker..Send$GT$17he4a7fb46e66cf5c0E', symObjAddr: 0x6EA0, symBinAddr: 0x10005A3D0, symSize: 0x40 }
  - { offset: 0xB6B45, size: 0x8, addend: 0x0, symName: '__ZN4core3ptr93drop_in_place$LT$hashbrown..raw..RawTable$LT$$LP$u64$C$quiche..h3..stream..Stream$RP$$GT$$GT$17h97902f7a31a6bb03E', symObjAddr: 0x6EE0, symBinAddr: 0x10005A410, symSize: 0x20 }
  - { offset: 0xB6B74, size: 0x8, addend: 0x0, symName: '__ZN4core3ptr93drop_in_place$LT$std..io..default_write_fmt..Adapter$LT$std..sys..stdio..unix..Stderr$GT$$GT$17h953a1f8e5ffb8e82E', symObjAddr: 0x6F00, symBinAddr: 0x10005A430, symSize: 0x20 }
  - { offset: 0xB6BA3, size: 0x8, addend: 0x0, symName: '__ZN4core3ptr944drop_in_place$LT$core..iter..adapters..map..map_fold$LT$$RF$quiche..cid..ConnectionIdEntry$C$$RF$quiche..packet..ConnectionId$C$$LP$$RP$$C$quiche..cid..ConnectionIdentifiers..scids_iter..$u7b$$u7b$closure$u7d$$u7d$$C$core..iter..adapters..map..map_fold$LT$$RF$quiche..packet..ConnectionId$C$quiche..packet..ConnectionId$C$$LP$$RP$$C$$LT$quiche..packet..ConnectionId$u20$as$u20$core..clone..Clone$GT$..clone$C$core..iter..traits..iterator..Iterator..for_each..call$LT$quiche..packet..ConnectionId$C$alloc..vec..Vec$LT$quiche..packet..ConnectionId$GT$..extend_trusted$LT$core..iter..adapters..cloned..Cloned$LT$core..iter..adapters..map..Map$LT$alloc..collections..vec_deque..iter..Iter$LT$quiche..cid..ConnectionIdEntry$GT$$C$quiche..cid..ConnectionIdentifiers..scids_iter..$u7b$$u7b$closure$u7d$$u7d$$GT$$GT$$GT$..$u7b$$u7b$closure$u7d$$u7d$$GT$..$u7b$$u7b$closure$u7d$$u7d$$GT$..$u7b$$u7b$closure$u7d$$u7d$$GT$..$u7b$$u7b$closure$u7d$$u7d$$GT$17hcbf2bd85a70465eeE', symObjAddr: 0x6F20, symBinAddr: 0x10005A450, symSize: 0x20 }
  - { offset: 0xB6BD2, size: 0x8, addend: 0x0, symName: '__ZN4core3ptr94drop_in_place$LT$alloc..vec..into_iter..IntoIter$LT$core..ops..range..Range$LT$u64$GT$$GT$$GT$17h5fb0d9be0172d39dE', symObjAddr: 0x6F40, symBinAddr: 0x10005A470, symSize: 0x20 }
  - { offset: 0xB6C01, size: 0x8, addend: 0x0, symName: '__ZN4core3ptr94drop_in_place$LT$core..slice..sort..shared..smallsort..CopyOnDrop$LT$$LP$u64$C$u64$RP$$GT$$GT$17h5c4eb8b478e662b3E', symObjAddr: 0x6F60, symBinAddr: 0x10005A490, symSize: 0x20 }
  - { offset: 0xB6C30, size: 0x8, addend: 0x0, symName: '__ZN4core3ptr95drop_in_place$LT$$u5b$quiche..recovery..congestion..recovery..RecoveryEpoch$u3b$$u20$3$u5d$$GT$17h898450ddaaaab47bE', symObjAddr: 0x6F80, symBinAddr: 0x10005A4B0, symSize: 0x90 }
  - { offset: 0xB6C5F, size: 0x8, addend: 0x0, symName: '__ZN4core3ptr95drop_in_place$LT$alloc..collections..vec_deque..VecDeque$LT$quiche..range_buf..RangeBuf$GT$$GT$17h88cb299bbbb56c24E', symObjAddr: 0x7010, symBinAddr: 0x10005A540, symSize: 0x50 }
  - { offset: 0xB6C8E, size: 0x8, addend: 0x0, symName: '__ZN4core3ptr96drop_in_place$LT$$u5b$quiche..recovery..gcongestion..recovery..RecoveryEpoch$u3b$$u20$3$u5d$$GT$17h1f1029bc05155f19E', symObjAddr: 0x7060, symBinAddr: 0x10005A590, symSize: 0x90 }
  - { offset: 0xB6CBD, size: 0x8, addend: 0x0, symName: '__ZN4core3ptr96drop_in_place$LT$alloc..collections..vec_deque..VecDeque$LT$quiche..packet..ConnectionId$GT$$GT$17h2887de03764db353E', symObjAddr: 0x70F0, symBinAddr: 0x10005A620, symSize: 0x50 }
  - { offset: 0xB6CEC, size: 0x8, addend: 0x0, symName: '__ZN4core3ptr96drop_in_place$LT$alloc..raw_vec..RawVec$LT$quiche..recovery..congestion..recovery..Acked$GT$$GT$17hdfee3211ab27b5aaE', symObjAddr: 0x7140, symBinAddr: 0x10005A670, symSize: 0x20 }
  - { offset: 0xB6D1B, size: 0x8, addend: 0x0, symName: '__ZN4core3ptr96drop_in_place$LT$alloc..vec..Vec$LT$$LP$alloc..vec..Vec$LT$u8$GT$$C$quiche..SendInfo$RP$$GT$$GT$17h6b434083d1eaf9deE', symObjAddr: 0x7160, symBinAddr: 0x10005A690, symSize: 0x50 }
  - { offset: 0xB6D4A, size: 0x8, addend: 0x0, symName: '__ZN4core3ptr97drop_in_place$LT$$u5b$quiche..UnknownTransportParameter$LT$alloc..vec..Vec$LT$u8$GT$$GT$$u5d$$GT$17h4504c9e955aa4394E', symObjAddr: 0x71B0, symBinAddr: 0x10005A6E0, symSize: 0xA0 }
  - { offset: 0xB6D79, size: 0x8, addend: 0x0, symName: '__ZN4core3ptr98drop_in_place$LT$alloc..collections..vec_deque..VecDeque$LT$quiche..cid..ConnectionIdEntry$GT$$GT$17hf0a427bbc16ac5c4E', symObjAddr: 0x7250, symBinAddr: 0x10005A780, symSize: 0x50 }
  - { offset: 0xB6DA8, size: 0x8, addend: 0x0, symName: '__ZN4core3ptr98drop_in_place$LT$alloc..vec..drain..Drain$LT$quiche..recovery..congestion..recovery..Acked$GT$$GT$17h713f4dd38fe4c3e3E', symObjAddr: 0x72A0, symBinAddr: 0x10005A7D0, symSize: 0x20 }
  - { offset: 0xB6DD7, size: 0x8, addend: 0x0, symName: '__ZN4core3ptr99drop_in_place$LT$alloc..collections..vec_deque..drain..Drain$LT$quiche..range_buf..RangeBuf$GT$$GT$17h007205d51e42a9ccE', symObjAddr: 0x72C0, symBinAddr: 0x10005A7F0, symSize: 0x20 }
  - { offset: 0xB6E06, size: 0x8, addend: 0x0, symName: '__ZN4core3ptr99drop_in_place$LT$hashbrown..map..HashMap$LT$u64$C$$LP$$RP$$C$std..hash..random..RandomState$GT$$GT$17hcbcf991f79ce4224E', symObjAddr: 0x72E0, symBinAddr: 0x10005A810, symSize: 0x20 }
  - { offset: 0xB7380, size: 0x8, addend: 0x0, symName: __ZN4core3ops8function5FnMut8call_mut17h29697c960360c939E, symObjAddr: 0x1040, symBinAddr: 0x100054570, symSize: 0x30 }
  - { offset: 0xB73C4, size: 0x8, addend: 0x0, symName: __ZN4core3ops8function5FnMut8call_mut17h2ef11c46078fd0ecE, symObjAddr: 0x1070, symBinAddr: 0x1000545A0, symSize: 0x30 }
  - { offset: 0xB7408, size: 0x8, addend: 0x0, symName: __ZN4core3ops8function5FnMut8call_mut17h3720c69c58743549E, symObjAddr: 0x10A0, symBinAddr: 0x1000545D0, symSize: 0x30 }
  - { offset: 0xB744C, size: 0x8, addend: 0x0, symName: __ZN4core3ops8function5FnMut8call_mut17h51a4c16e541c273eE, symObjAddr: 0x10D0, symBinAddr: 0x100054600, symSize: 0x30 }
  - { offset: 0xB7490, size: 0x8, addend: 0x0, symName: __ZN4core3ops8function5FnMut8call_mut17h5939fd510e462503E, symObjAddr: 0x1100, symBinAddr: 0x100054630, symSize: 0x30 }
  - { offset: 0xB74D4, size: 0x8, addend: 0x0, symName: __ZN4core3ops8function5FnMut8call_mut17hcc6e0e16cee6b3a5E, symObjAddr: 0x1130, symBinAddr: 0x100054660, symSize: 0x50 }
  - { offset: 0xB751B, size: 0x8, addend: 0x0, symName: '__ZN4core3ops8function6FnOnce40call_once$u7b$$u7b$vtable.shim$u7d$$u7d$17h26c024b43ce31dcfE', symObjAddr: 0x1180, symBinAddr: 0x1000546B0, symSize: 0x30 }
  - { offset: 0xB755F, size: 0x8, addend: 0x0, symName: '__ZN4core3ops8function6FnOnce40call_once$u7b$$u7b$vtable.shim$u7d$$u7d$17h2723a802207c845aE', symObjAddr: 0x11B0, symBinAddr: 0x1000546E0, symSize: 0x30 }
  - { offset: 0xB75A3, size: 0x8, addend: 0x0, symName: '__ZN4core3ops8function6FnOnce40call_once$u7b$$u7b$vtable.shim$u7d$$u7d$17h2e98d4aa8fe775b1E', symObjAddr: 0x11E0, symBinAddr: 0x100054710, symSize: 0x30 }
  - { offset: 0xB75E7, size: 0x8, addend: 0x0, symName: '__ZN4core3ops8function6FnOnce40call_once$u7b$$u7b$vtable.shim$u7d$$u7d$17h2f18042278d199c4E', symObjAddr: 0x1210, symBinAddr: 0x100054740, symSize: 0x30 }
  - { offset: 0xB762B, size: 0x8, addend: 0x0, symName: '__ZN4core3ops8function6FnOnce40call_once$u7b$$u7b$vtable.shim$u7d$$u7d$17h35b417989e54e3b4E', symObjAddr: 0x1240, symBinAddr: 0x100054770, symSize: 0x30 }
  - { offset: 0xB766F, size: 0x8, addend: 0x0, symName: '__ZN4core3ops8function6FnOnce40call_once$u7b$$u7b$vtable.shim$u7d$$u7d$17h379e2d950b97afb8E', symObjAddr: 0x1270, symBinAddr: 0x1000547A0, symSize: 0x30 }
  - { offset: 0xB76B3, size: 0x8, addend: 0x0, symName: '__ZN4core3ops8function6FnOnce40call_once$u7b$$u7b$vtable.shim$u7d$$u7d$17h3b3ac9bc20e2140aE', symObjAddr: 0x12A0, symBinAddr: 0x1000547D0, symSize: 0x30 }
  - { offset: 0xB76F7, size: 0x8, addend: 0x0, symName: '__ZN4core3ops8function6FnOnce40call_once$u7b$$u7b$vtable.shim$u7d$$u7d$17h3e55b539f2786fb6E', symObjAddr: 0x12D0, symBinAddr: 0x100054800, symSize: 0x30 }
  - { offset: 0xB773B, size: 0x8, addend: 0x0, symName: '__ZN4core3ops8function6FnOnce40call_once$u7b$$u7b$vtable.shim$u7d$$u7d$17h4407fed141a01148E', symObjAddr: 0x1300, symBinAddr: 0x100054830, symSize: 0x30 }
  - { offset: 0xB777F, size: 0x8, addend: 0x0, symName: '__ZN4core3ops8function6FnOnce40call_once$u7b$$u7b$vtable.shim$u7d$$u7d$17h57c145a4652868bdE', symObjAddr: 0x1330, symBinAddr: 0x100054860, symSize: 0x30 }
  - { offset: 0xB77C3, size: 0x8, addend: 0x0, symName: '__ZN4core3ops8function6FnOnce40call_once$u7b$$u7b$vtable.shim$u7d$$u7d$17h6fe9f3375b036122E', symObjAddr: 0x1360, symBinAddr: 0x100054890, symSize: 0x30 }
  - { offset: 0xB7807, size: 0x8, addend: 0x0, symName: '__ZN4core3ops8function6FnOnce40call_once$u7b$$u7b$vtable.shim$u7d$$u7d$17h702249febdd3a5b2E', symObjAddr: 0x1390, symBinAddr: 0x1000548C0, symSize: 0x30 }
  - { offset: 0xB784B, size: 0x8, addend: 0x0, symName: '__ZN4core3ops8function6FnOnce40call_once$u7b$$u7b$vtable.shim$u7d$$u7d$17h9724a8b695ad465eE', symObjAddr: 0x13C0, symBinAddr: 0x1000548F0, symSize: 0x30 }
  - { offset: 0xB788B, size: 0x8, addend: 0x0, symName: '__ZN4core3ops8function6FnOnce40call_once$u7b$$u7b$vtable.shim$u7d$$u7d$17hbf8a0ad0d04dea10E', symObjAddr: 0x13F0, symBinAddr: 0x100054920, symSize: 0x30 }
  - { offset: 0xB78CF, size: 0x8, addend: 0x0, symName: '__ZN4core3ops8function6FnOnce40call_once$u7b$$u7b$vtable.shim$u7d$$u7d$17hc0e57e6455f67ebfE', symObjAddr: 0x1420, symBinAddr: 0x100054950, symSize: 0x30 }
  - { offset: 0xB7913, size: 0x8, addend: 0x0, symName: '__ZN4core3ops8function6FnOnce40call_once$u7b$$u7b$vtable.shim$u7d$$u7d$17hcb9fb65a2ec363f3E', symObjAddr: 0x1450, symBinAddr: 0x100054980, symSize: 0x30 }
  - { offset: 0xB7957, size: 0x8, addend: 0x0, symName: '__ZN4core3ops8function6FnOnce40call_once$u7b$$u7b$vtable.shim$u7d$$u7d$17hcebe9073db40ebe8E', symObjAddr: 0x1480, symBinAddr: 0x1000549B0, symSize: 0x30 }
  - { offset: 0xB799B, size: 0x8, addend: 0x0, symName: '__ZN4core3ops8function6FnOnce40call_once$u7b$$u7b$vtable.shim$u7d$$u7d$17hd222a09d81edc6f4E', symObjAddr: 0x14B0, symBinAddr: 0x1000549E0, symSize: 0x30 }
  - { offset: 0xB79DF, size: 0x8, addend: 0x0, symName: '__ZN4core3ops8function6FnOnce40call_once$u7b$$u7b$vtable.shim$u7d$$u7d$17hf175cdd841cce78bE', symObjAddr: 0x14E0, symBinAddr: 0x100054A10, symSize: 0x30 }
  - { offset: 0xB7A23, size: 0x8, addend: 0x0, symName: __ZN4core3ops8function6FnOnce9call_once17h02ca84aa4e2b48b9E, symObjAddr: 0x1510, symBinAddr: 0x100054A40, symSize: 0x20 }
  - { offset: 0xB7A67, size: 0x8, addend: 0x0, symName: __ZN4core3ops8function6FnOnce9call_once17h04a54887fe89211bE, symObjAddr: 0x1530, symBinAddr: 0x100054A60, symSize: 0x50 }
  - { offset: 0xB7AAB, size: 0x8, addend: 0x0, symName: __ZN4core3ops8function6FnOnce9call_once17h0b799e4d19f06dfbE, symObjAddr: 0x1580, symBinAddr: 0x100054AB0, symSize: 0x50 }
  - { offset: 0xB7AEF, size: 0x8, addend: 0x0, symName: __ZN4core3ops8function6FnOnce9call_once17h15f35c79c2470d8bE, symObjAddr: 0x15D0, symBinAddr: 0x100054B00, symSize: 0x20 }
  - { offset: 0xB7B33, size: 0x8, addend: 0x0, symName: __ZN4core3ops8function6FnOnce9call_once17h261a8acad29ba318E, symObjAddr: 0x15F0, symBinAddr: 0x100054B20, symSize: 0x50 }
  - { offset: 0xB7B77, size: 0x8, addend: 0x0, symName: __ZN4core3ops8function6FnOnce9call_once17h2868c466e55ba288E, symObjAddr: 0x1640, symBinAddr: 0x100054B70, symSize: 0x40 }
  - { offset: 0xB7BBB, size: 0x8, addend: 0x0, symName: __ZN4core3ops8function6FnOnce9call_once17h2a0001248513c640E, symObjAddr: 0x1680, symBinAddr: 0x100054BB0, symSize: 0x30 }
  - { offset: 0xB7BFF, size: 0x8, addend: 0x0, symName: __ZN4core3ops8function6FnOnce9call_once17h2efe671ee0595aceE, symObjAddr: 0x16B0, symBinAddr: 0x100054BE0, symSize: 0x50 }
  - { offset: 0xB7C43, size: 0x8, addend: 0x0, symName: __ZN4core3ops8function6FnOnce9call_once17h32b3e7a980d1dd8dE, symObjAddr: 0x1700, symBinAddr: 0x100054C30, symSize: 0x50 }
  - { offset: 0xB7C87, size: 0x8, addend: 0x0, symName: __ZN4core3ops8function6FnOnce9call_once17h3f5adcf899912505E, symObjAddr: 0x1750, symBinAddr: 0x100054C80, symSize: 0x50 }
  - { offset: 0xB7CCB, size: 0x8, addend: 0x0, symName: __ZN4core3ops8function6FnOnce9call_once17h40a83a261043fce4E, symObjAddr: 0x17A0, symBinAddr: 0x100054CD0, symSize: 0x50 }
  - { offset: 0xB7D0F, size: 0x8, addend: 0x0, symName: __ZN4core3ops8function6FnOnce9call_once17h43eea1c82f9aad20E, symObjAddr: 0x17F0, symBinAddr: 0x100054D20, symSize: 0x40 }
  - { offset: 0xB7D4F, size: 0x8, addend: 0x0, symName: __ZN4core3ops8function6FnOnce9call_once17h47cc3d89a84cdb80E, symObjAddr: 0x1830, symBinAddr: 0x100054D60, symSize: 0x50 }
  - { offset: 0xB7D93, size: 0x8, addend: 0x0, symName: __ZN4core3ops8function6FnOnce9call_once17h49044cfe8414717bE, symObjAddr: 0x1880, symBinAddr: 0x100054DB0, symSize: 0x30 }
  - { offset: 0xB7DD7, size: 0x8, addend: 0x0, symName: __ZN4core3ops8function6FnOnce9call_once17h4c7d2b1aea00deefE, symObjAddr: 0x18B0, symBinAddr: 0x100054DE0, symSize: 0x40 }
  - { offset: 0xB7E1B, size: 0x8, addend: 0x0, symName: __ZN4core3ops8function6FnOnce9call_once17h5b47de89497c84ecE, symObjAddr: 0x18F0, symBinAddr: 0x100054E20, symSize: 0x20 }
  - { offset: 0xB7E5F, size: 0x8, addend: 0x0, symName: __ZN4core3ops8function6FnOnce9call_once17h5e0573b9c3861c80E, symObjAddr: 0x1910, symBinAddr: 0x100054E40, symSize: 0x20 }
  - { offset: 0xB7EA3, size: 0x8, addend: 0x0, symName: __ZN4core3ops8function6FnOnce9call_once17h628254ae8e7a4e6aE, symObjAddr: 0x1930, symBinAddr: 0x100054E60, symSize: 0x20 }
  - { offset: 0xB7EE7, size: 0x8, addend: 0x0, symName: __ZN4core3ops8function6FnOnce9call_once17h77f9fb05aa39a5b1E, symObjAddr: 0x1950, symBinAddr: 0x100054E80, symSize: 0x50 }
  - { offset: 0xB7F2B, size: 0x8, addend: 0x0, symName: __ZN4core3ops8function6FnOnce9call_once17h7a44402933fca2d8E, symObjAddr: 0x19A0, symBinAddr: 0x100054ED0, symSize: 0x50 }
  - { offset: 0xB7F6F, size: 0x8, addend: 0x0, symName: __ZN4core3ops8function6FnOnce9call_once17h84d55d4801c777ddE, symObjAddr: 0x19F0, symBinAddr: 0x100054F20, symSize: 0x40 }
  - { offset: 0xB7FAF, size: 0x8, addend: 0x0, symName: __ZN4core3ops8function6FnOnce9call_once17h8b1871548c4507edE, symObjAddr: 0x1A30, symBinAddr: 0x100054F60, symSize: 0x30 }
  - { offset: 0xB7FF3, size: 0x8, addend: 0x0, symName: __ZN4core3ops8function6FnOnce9call_once17h991e7ac1b445caf6E, symObjAddr: 0x1A60, symBinAddr: 0x100054F90, symSize: 0x20 }
  - { offset: 0xB8037, size: 0x8, addend: 0x0, symName: __ZN4core3ops8function6FnOnce9call_once17h9cb2e3ecb0ea803fE, symObjAddr: 0x1A80, symBinAddr: 0x100054FB0, symSize: 0x50 }
  - { offset: 0xB807B, size: 0x8, addend: 0x0, symName: __ZN4core3ops8function6FnOnce9call_once17ha82c977b90df2188E, symObjAddr: 0x1AD0, symBinAddr: 0x100055000, symSize: 0x40 }
  - { offset: 0xB80BB, size: 0x8, addend: 0x0, symName: __ZN4core3ops8function6FnOnce9call_once17haac438d77ccdbb0cE, symObjAddr: 0x1B10, symBinAddr: 0x100055040, symSize: 0x50 }
  - { offset: 0xB80FF, size: 0x8, addend: 0x0, symName: __ZN4core3ops8function6FnOnce9call_once17habd646c5d514b03bE, symObjAddr: 0x1B60, symBinAddr: 0x100055090, symSize: 0x20 }
  - { offset: 0xB8143, size: 0x8, addend: 0x0, symName: __ZN4core3ops8function6FnOnce9call_once17hb7d11fc9d66d50d7E, symObjAddr: 0x1B80, symBinAddr: 0x1000550B0, symSize: 0x50 }
  - { offset: 0xB8187, size: 0x8, addend: 0x0, symName: __ZN4core3ops8function6FnOnce9call_once17hbb5294309986262dE, symObjAddr: 0x1BD0, symBinAddr: 0x100055100, symSize: 0x50 }
  - { offset: 0xB81CB, size: 0x8, addend: 0x0, symName: __ZN4core3ops8function6FnOnce9call_once17hc84190773f64b385E, symObjAddr: 0x1C20, symBinAddr: 0x100055150, symSize: 0x20 }
  - { offset: 0xB820F, size: 0x8, addend: 0x0, symName: __ZN4core3ops8function6FnOnce9call_once17hca52ad18599b1f2aE, symObjAddr: 0x1C40, symBinAddr: 0x100055170, symSize: 0x50 }
  - { offset: 0xB8253, size: 0x8, addend: 0x0, symName: __ZN4core3ops8function6FnOnce9call_once17hcb66994899a5b651E, symObjAddr: 0x1C90, symBinAddr: 0x1000551C0, symSize: 0x20 }
  - { offset: 0xB8297, size: 0x8, addend: 0x0, symName: __ZN4core3ops8function6FnOnce9call_once17hcf19fda4a3aed426E, symObjAddr: 0x1CB0, symBinAddr: 0x1000551E0, symSize: 0x20 }
  - { offset: 0xB82DB, size: 0x8, addend: 0x0, symName: __ZN4core3ops8function6FnOnce9call_once17hdbf2665cbaa78cbbE, symObjAddr: 0x1CD0, symBinAddr: 0x100055200, symSize: 0x20 }
  - { offset: 0xB831F, size: 0x8, addend: 0x0, symName: __ZN4core3ops8function6FnOnce9call_once17he4e080873f09d440E, symObjAddr: 0x1CF0, symBinAddr: 0x100055220, symSize: 0x50 }
  - { offset: 0xB8363, size: 0x8, addend: 0x0, symName: __ZN4core3ops8function6FnOnce9call_once17hf7639222d4b76afaE, symObjAddr: 0x1D40, symBinAddr: 0x100055270, symSize: 0x50 }
  - { offset: 0xB83A7, size: 0x8, addend: 0x0, symName: __ZN4core3ops8function6FnOnce9call_once17hf8e296322eacca0cE, symObjAddr: 0x1D90, symBinAddr: 0x1000552C0, symSize: 0x50 }
  - { offset: 0xB83EB, size: 0x8, addend: 0x0, symName: __ZN4core3ops8function6FnOnce9call_once17hfe0b2bb4ff77bc2fE, symObjAddr: 0x1DE0, symBinAddr: 0x100055310, symSize: 0x50 }
  - { offset: 0xB84BF, size: 0x8, addend: 0x0, symName: '__ZN100_$LT$core..array..iter..iter_inner..PolymorphicIter$LT$DATA$GT$$u20$as$u20$core..ops..drop..Drop$GT$4drop17h08397a6465354c60E', symObjAddr: 0x0, symBinAddr: 0x100053530, symSize: 0x30 }
  - { offset: 0xB850D, size: 0x8, addend: 0x0, symName: '__ZN100_$LT$core..array..iter..iter_inner..PolymorphicIter$LT$DATA$GT$$u20$as$u20$core..ops..drop..Drop$GT$4drop17h818906077c21fd68E', symObjAddr: 0x30, symBinAddr: 0x100053560, symSize: 0x30 }
  - { offset: 0xB855B, size: 0x8, addend: 0x0, symName: '__ZN100_$LT$core..array..iter..iter_inner..PolymorphicIter$LT$DATA$GT$$u20$as$u20$core..ops..drop..Drop$GT$4drop17h8a3901e7545a0ca6E', symObjAddr: 0x60, symBinAddr: 0x100053590, symSize: 0x30 }
  - { offset: 0xB85A9, size: 0x8, addend: 0x0, symName: '__ZN100_$LT$core..array..iter..iter_inner..PolymorphicIter$LT$DATA$GT$$u20$as$u20$core..ops..drop..Drop$GT$4drop17h9df894732a96b5e1E', symObjAddr: 0x90, symBinAddr: 0x1000535C0, symSize: 0x30 }
  - { offset: 0xB85F7, size: 0x8, addend: 0x0, symName: '__ZN100_$LT$core..array..iter..iter_inner..PolymorphicIter$LT$DATA$GT$$u20$as$u20$core..ops..drop..Drop$GT$4drop17hc43773865c2c4541E', symObjAddr: 0xC0, symBinAddr: 0x1000535F0, symSize: 0x30 }
  - { offset: 0xB871E, size: 0x8, addend: 0x0, symName: '__ZN82_$LT$core..array..iter..IntoIter$LT$T$C$_$GT$$u20$as$u20$core..ops..drop..Drop$GT$4drop17h0ced7c152ae319e1E', symObjAddr: 0x9880, symBinAddr: 0x10005CDB0, symSize: 0x10 }
  - { offset: 0xB8751, size: 0x8, addend: 0x0, symName: '__ZN82_$LT$core..array..iter..IntoIter$LT$T$C$_$GT$$u20$as$u20$core..ops..drop..Drop$GT$4drop17h3a53db63e921a15eE', symObjAddr: 0x9890, symBinAddr: 0x10005CDC0, symSize: 0x10 }
  - { offset: 0xB8784, size: 0x8, addend: 0x0, symName: '__ZN82_$LT$core..array..iter..IntoIter$LT$T$C$_$GT$$u20$as$u20$core..ops..drop..Drop$GT$4drop17hc8aa477e387d745bE', symObjAddr: 0x98A0, symBinAddr: 0x10005CDD0, symSize: 0x10 }
  - { offset: 0xB87B7, size: 0x8, addend: 0x0, symName: '__ZN82_$LT$core..array..iter..IntoIter$LT$T$C$_$GT$$u20$as$u20$core..ops..drop..Drop$GT$4drop17he531fb4a18f35ddfE', symObjAddr: 0x98B0, symBinAddr: 0x10005CDE0, symSize: 0x10 }
  - { offset: 0xB87EA, size: 0x8, addend: 0x0, symName: '__ZN82_$LT$core..array..iter..IntoIter$LT$T$C$_$GT$$u20$as$u20$core..ops..drop..Drop$GT$4drop17hf111b05340f809ceE', symObjAddr: 0x98C0, symBinAddr: 0x10005CDF0, symSize: 0x10 }
  - { offset: 0xBB7E6, size: 0x8, addend: 0x0, symName: __ZN4core5clone5Clone5clone17h7026e87974c47fbbE, symObjAddr: 0x7300, symBinAddr: 0x10005A830, symSize: 0x30 }
  - { offset: 0xBBA6D, size: 0x8, addend: 0x0, symName: '__ZN95_$LT$core..slice..sort..stable..merge..MergeState$LT$T$GT$$u20$as$u20$core..ops..drop..Drop$GT$4drop17h10fb04d675a90e2bE', symObjAddr: 0xA790, symBinAddr: 0x10005DCC0, symSize: 0xD0 }
  - { offset: 0xBBBA7, size: 0x8, addend: 0x0, symName: '__ZN99_$LT$core..slice..sort..shared..smallsort..CopyOnDrop$LT$T$GT$$u20$as$u20$core..ops..drop..Drop$GT$4drop17he5dd478d8b7c0254E', symObjAddr: 0xADD0, symBinAddr: 0x10005E300, symSize: 0x70 }
  - { offset: 0xBC7CD, size: 0x8, addend: 0x0, symName: '__ZN78_$LT$std..io..error..repr_bitpacked..Repr$u20$as$u20$core..ops..drop..Drop$GT$4drop17ha31d4faeabbe0650E', symObjAddr: 0x9480, symBinAddr: 0x10005C9B0, symSize: 0x30 }
  - { offset: 0xBC924, size: 0x8, addend: 0x0, symName: '__ZN90_$LT$std..io..buffered..bufwriter..BufWriter$LT$W$GT$$u20$as$u20$core..ops..drop..Drop$GT$4drop17h7f1d80c4d9c8e2d2E', symObjAddr: 0x9DB0, symBinAddr: 0x10005D2E0, symSize: 0x40 }
  - { offset: 0xBCAB0, size: 0x8, addend: 0x0, symName: '__ZN85_$LT$std..sync..lazy_lock..LazyLock$LT$T$C$F$GT$$u20$as$u20$core..ops..drop..Drop$GT$4drop17h216fa8ce4f987d4fE', symObjAddr: 0x9960, symBinAddr: 0x10005CE90, symSize: 0x100 }
  - { offset: 0xBCD0E, size: 0x8, addend: 0x0, symName: '__ZN69_$LT$std..os..fd..owned..OwnedFd$u20$as$u20$core..ops..drop..Drop$GT$4drop17ha8a9f1b4fb914f0bE', symObjAddr: 0x7930, symBinAddr: 0x10005AE60, symSize: 0x30 }
  - { offset: 0xBCF77, size: 0x8, addend: 0x0, symName: '__ZN122_$LT$alloc..collections..vec_deque..VecDeque$LT$T$C$A$GT$..truncate..Dropper$LT$T$GT$$u20$as$u20$core..ops..drop..Drop$GT$4drop17h1aa76675b10b22beE', symObjAddr: 0xF0, symBinAddr: 0x100053620, symSize: 0x30 }
  - { offset: 0xBCFAA, size: 0x8, addend: 0x0, symName: '__ZN122_$LT$alloc..collections..vec_deque..VecDeque$LT$T$C$A$GT$..truncate..Dropper$LT$T$GT$$u20$as$u20$core..ops..drop..Drop$GT$4drop17h361c837ae2d414b2E', symObjAddr: 0x120, symBinAddr: 0x100053650, symSize: 0x30 }
  - { offset: 0xBCFDD, size: 0x8, addend: 0x0, symName: '__ZN122_$LT$alloc..collections..vec_deque..VecDeque$LT$T$C$A$GT$..truncate..Dropper$LT$T$GT$$u20$as$u20$core..ops..drop..Drop$GT$4drop17h40fce17e1cce3c28E', symObjAddr: 0x150, symBinAddr: 0x100053680, symSize: 0x30 }
  - { offset: 0xBD010, size: 0x8, addend: 0x0, symName: '__ZN122_$LT$alloc..collections..vec_deque..VecDeque$LT$T$C$A$GT$..truncate..Dropper$LT$T$GT$$u20$as$u20$core..ops..drop..Drop$GT$4drop17h841b4619976d8536E', symObjAddr: 0x180, symBinAddr: 0x1000536B0, symSize: 0x30 }
  - { offset: 0xBD043, size: 0x8, addend: 0x0, symName: '__ZN122_$LT$alloc..collections..vec_deque..VecDeque$LT$T$C$A$GT$..truncate..Dropper$LT$T$GT$$u20$as$u20$core..ops..drop..Drop$GT$4drop17h88ce3fd9dd86e294E', symObjAddr: 0x1B0, symBinAddr: 0x1000536E0, symSize: 0x10 }
  - { offset: 0xBD076, size: 0x8, addend: 0x0, symName: '__ZN122_$LT$alloc..collections..vec_deque..VecDeque$LT$T$C$A$GT$..truncate..Dropper$LT$T$GT$$u20$as$u20$core..ops..drop..Drop$GT$4drop17ha30fdde6a89e62a4E', symObjAddr: 0x1C0, symBinAddr: 0x1000536F0, symSize: 0x10 }
  - { offset: 0xBD0A9, size: 0x8, addend: 0x0, symName: '__ZN122_$LT$alloc..collections..vec_deque..VecDeque$LT$T$C$A$GT$..truncate..Dropper$LT$T$GT$$u20$as$u20$core..ops..drop..Drop$GT$4drop17hb2dce989bead39eeE', symObjAddr: 0x1D0, symBinAddr: 0x100053700, symSize: 0x30 }
  - { offset: 0xBD1C0, size: 0x8, addend: 0x0, symName: '__ZN159_$LT$$LT$alloc..collections..vec_deque..VecDeque$LT$T$C$A$GT$$u20$as$u20$core..ops..drop..Drop$GT$..drop..Dropper$LT$T$GT$$u20$as$u20$core..ops..drop..Drop$GT$4drop17h048a88e18fa9ff16E', symObjAddr: 0x5B0, symBinAddr: 0x100053AE0, symSize: 0x30 }
  - { offset: 0xBD1F1, size: 0x8, addend: 0x0, symName: '__ZN159_$LT$$LT$alloc..collections..vec_deque..VecDeque$LT$T$C$A$GT$$u20$as$u20$core..ops..drop..Drop$GT$..drop..Dropper$LT$T$GT$$u20$as$u20$core..ops..drop..Drop$GT$4drop17h120f98797d8cc5b3E', symObjAddr: 0x5E0, symBinAddr: 0x100053B10, symSize: 0x10 }
  - { offset: 0xBD222, size: 0x8, addend: 0x0, symName: '__ZN159_$LT$$LT$alloc..collections..vec_deque..VecDeque$LT$T$C$A$GT$$u20$as$u20$core..ops..drop..Drop$GT$..drop..Dropper$LT$T$GT$$u20$as$u20$core..ops..drop..Drop$GT$4drop17h2a93842395131f2dE', symObjAddr: 0x5F0, symBinAddr: 0x100053B20, symSize: 0x30 }
  - { offset: 0xBD253, size: 0x8, addend: 0x0, symName: '__ZN159_$LT$$LT$alloc..collections..vec_deque..VecDeque$LT$T$C$A$GT$$u20$as$u20$core..ops..drop..Drop$GT$..drop..Dropper$LT$T$GT$$u20$as$u20$core..ops..drop..Drop$GT$4drop17h2c7c5878b23d8b38E', symObjAddr: 0x620, symBinAddr: 0x100053B50, symSize: 0x10 }
  - { offset: 0xBD284, size: 0x8, addend: 0x0, symName: '__ZN159_$LT$$LT$alloc..collections..vec_deque..VecDeque$LT$T$C$A$GT$$u20$as$u20$core..ops..drop..Drop$GT$..drop..Dropper$LT$T$GT$$u20$as$u20$core..ops..drop..Drop$GT$4drop17h2d1bb536d3b4f27fE', symObjAddr: 0x630, symBinAddr: 0x100053B60, symSize: 0x30 }
  - { offset: 0xBD2B5, size: 0x8, addend: 0x0, symName: '__ZN159_$LT$$LT$alloc..collections..vec_deque..VecDeque$LT$T$C$A$GT$$u20$as$u20$core..ops..drop..Drop$GT$..drop..Dropper$LT$T$GT$$u20$as$u20$core..ops..drop..Drop$GT$4drop17h32d2370e97d49539E', symObjAddr: 0x660, symBinAddr: 0x100053B90, symSize: 0x10 }
  - { offset: 0xBD2E6, size: 0x8, addend: 0x0, symName: '__ZN159_$LT$$LT$alloc..collections..vec_deque..VecDeque$LT$T$C$A$GT$$u20$as$u20$core..ops..drop..Drop$GT$..drop..Dropper$LT$T$GT$$u20$as$u20$core..ops..drop..Drop$GT$4drop17h6bb78f67d0ff4b1aE', symObjAddr: 0x670, symBinAddr: 0x100053BA0, symSize: 0x10 }
  - { offset: 0xBD317, size: 0x8, addend: 0x0, symName: '__ZN159_$LT$$LT$alloc..collections..vec_deque..VecDeque$LT$T$C$A$GT$$u20$as$u20$core..ops..drop..Drop$GT$..drop..Dropper$LT$T$GT$$u20$as$u20$core..ops..drop..Drop$GT$4drop17h8fa46af8884a8fcfE', symObjAddr: 0x680, symBinAddr: 0x100053BB0, symSize: 0x30 }
  - { offset: 0xBD348, size: 0x8, addend: 0x0, symName: '__ZN159_$LT$$LT$alloc..collections..vec_deque..VecDeque$LT$T$C$A$GT$$u20$as$u20$core..ops..drop..Drop$GT$..drop..Dropper$LT$T$GT$$u20$as$u20$core..ops..drop..Drop$GT$4drop17ha979d0a7dea85861E', symObjAddr: 0x6B0, symBinAddr: 0x100053BE0, symSize: 0x10 }
  - { offset: 0xBD379, size: 0x8, addend: 0x0, symName: '__ZN159_$LT$$LT$alloc..collections..vec_deque..VecDeque$LT$T$C$A$GT$$u20$as$u20$core..ops..drop..Drop$GT$..drop..Dropper$LT$T$GT$$u20$as$u20$core..ops..drop..Drop$GT$4drop17hb143bed5d3789e3eE', symObjAddr: 0x6C0, symBinAddr: 0x100053BF0, symSize: 0x30 }
  - { offset: 0xBD3AA, size: 0x8, addend: 0x0, symName: '__ZN159_$LT$$LT$alloc..collections..vec_deque..VecDeque$LT$T$C$A$GT$$u20$as$u20$core..ops..drop..Drop$GT$..drop..Dropper$LT$T$GT$$u20$as$u20$core..ops..drop..Drop$GT$4drop17hcb28666bf945fe91E', symObjAddr: 0x6F0, symBinAddr: 0x100053C20, symSize: 0x30 }
  - { offset: 0xBD3DB, size: 0x8, addend: 0x0, symName: '__ZN159_$LT$$LT$alloc..collections..vec_deque..VecDeque$LT$T$C$A$GT$$u20$as$u20$core..ops..drop..Drop$GT$..drop..Dropper$LT$T$GT$$u20$as$u20$core..ops..drop..Drop$GT$4drop17hd959dd55221a921cE', symObjAddr: 0x720, symBinAddr: 0x100053C50, symSize: 0x10 }
  - { offset: 0xBD40C, size: 0x8, addend: 0x0, symName: '__ZN159_$LT$$LT$alloc..collections..vec_deque..VecDeque$LT$T$C$A$GT$$u20$as$u20$core..ops..drop..Drop$GT$..drop..Dropper$LT$T$GT$$u20$as$u20$core..ops..drop..Drop$GT$4drop17hfcc4dfaa342e2fd0E', symObjAddr: 0x730, symBinAddr: 0x100053C60, symSize: 0x30 }
  - { offset: 0xBD5C5, size: 0x8, addend: 0x0, symName: '__ZN94_$LT$alloc..collections..vec_deque..VecDeque$LT$T$C$A$GT$$u20$as$u20$core..ops..drop..Drop$GT$4drop17h11280e2efede0ad6E', symObjAddr: 0x9DF0, symBinAddr: 0x10005D320, symSize: 0xD0 }
  - { offset: 0xBD7D9, size: 0x8, addend: 0x0, symName: '__ZN94_$LT$alloc..collections..vec_deque..VecDeque$LT$T$C$A$GT$$u20$as$u20$core..ops..drop..Drop$GT$4drop17h12f1c82b2cb13b92E', symObjAddr: 0x9EC0, symBinAddr: 0x10005D3F0, symSize: 0xA0 }
  - { offset: 0xBD90F, size: 0x8, addend: 0x0, symName: '__ZN94_$LT$alloc..collections..vec_deque..VecDeque$LT$T$C$A$GT$$u20$as$u20$core..ops..drop..Drop$GT$4drop17h1ff1cd3e3115271bE', symObjAddr: 0x9F60, symBinAddr: 0x10005D490, symSize: 0xA0 }
  - { offset: 0xBDA45, size: 0x8, addend: 0x0, symName: '__ZN94_$LT$alloc..collections..vec_deque..VecDeque$LT$T$C$A$GT$$u20$as$u20$core..ops..drop..Drop$GT$4drop17h53af59c4a3b0a8b2E', symObjAddr: 0xA000, symBinAddr: 0x10005D530, symSize: 0xA0 }
  - { offset: 0xBDB7B, size: 0x8, addend: 0x0, symName: '__ZN94_$LT$alloc..collections..vec_deque..VecDeque$LT$T$C$A$GT$$u20$as$u20$core..ops..drop..Drop$GT$4drop17h6ba91784087f1c76E', symObjAddr: 0xA0A0, symBinAddr: 0x10005D5D0, symSize: 0xE0 }
  - { offset: 0xBDD8F, size: 0x8, addend: 0x0, symName: '__ZN94_$LT$alloc..collections..vec_deque..VecDeque$LT$T$C$A$GT$$u20$as$u20$core..ops..drop..Drop$GT$4drop17h75b7a6618b93b0baE', symObjAddr: 0xA180, symBinAddr: 0x10005D6B0, symSize: 0xE0 }
  - { offset: 0xBDFA3, size: 0x8, addend: 0x0, symName: '__ZN94_$LT$alloc..collections..vec_deque..VecDeque$LT$T$C$A$GT$$u20$as$u20$core..ops..drop..Drop$GT$4drop17habcd431803db9609E', symObjAddr: 0xA260, symBinAddr: 0x10005D790, symSize: 0xD0 }
  - { offset: 0xBE1B7, size: 0x8, addend: 0x0, symName: '__ZN94_$LT$alloc..collections..vec_deque..VecDeque$LT$T$C$A$GT$$u20$as$u20$core..ops..drop..Drop$GT$4drop17hae27deb0bebb0f5fE', symObjAddr: 0xA330, symBinAddr: 0x10005D860, symSize: 0xE0 }
  - { offset: 0xBE3CB, size: 0x8, addend: 0x0, symName: '__ZN94_$LT$alloc..collections..vec_deque..VecDeque$LT$T$C$A$GT$$u20$as$u20$core..ops..drop..Drop$GT$4drop17hc094afd1eba238eeE', symObjAddr: 0xA410, symBinAddr: 0x10005D940, symSize: 0xA0 }
  - { offset: 0xBE501, size: 0x8, addend: 0x0, symName: '__ZN94_$LT$alloc..collections..vec_deque..VecDeque$LT$T$C$A$GT$$u20$as$u20$core..ops..drop..Drop$GT$4drop17hc1fd09d25668ba74E', symObjAddr: 0xA4B0, symBinAddr: 0x10005D9E0, symSize: 0xD0 }
  - { offset: 0xBE715, size: 0x8, addend: 0x0, symName: '__ZN94_$LT$alloc..collections..vec_deque..VecDeque$LT$T$C$A$GT$$u20$as$u20$core..ops..drop..Drop$GT$4drop17he113d009fa78ae59E', symObjAddr: 0xA580, symBinAddr: 0x10005DAB0, symSize: 0xD0 }
  - { offset: 0xBE929, size: 0x8, addend: 0x0, symName: '__ZN94_$LT$alloc..collections..vec_deque..VecDeque$LT$T$C$A$GT$$u20$as$u20$core..ops..drop..Drop$GT$4drop17he4d89e50a68f5755E', symObjAddr: 0xA650, symBinAddr: 0x10005DB80, symSize: 0xA0 }
  - { offset: 0xBEA5F, size: 0x8, addend: 0x0, symName: '__ZN94_$LT$alloc..collections..vec_deque..VecDeque$LT$T$C$A$GT$$u20$as$u20$core..ops..drop..Drop$GT$4drop17hfab004a57735d033E', symObjAddr: 0xA6F0, symBinAddr: 0x10005DC20, symSize: 0xA0 }
  - { offset: 0xBED13, size: 0x8, addend: 0x0, symName: '__ZN169_$LT$$LT$alloc..collections..vec_deque..drain..Drain$LT$T$C$A$GT$$u20$as$u20$core..ops..drop..Drop$GT$..drop..DropGuard$LT$T$C$A$GT$$u20$as$u20$core..ops..drop..Drop$GT$4drop17h163dfe056dba9dc1E', symObjAddr: 0x7A0, symBinAddr: 0x100053CD0, symSize: 0x250 }
  - { offset: 0xBEF51, size: 0x8, addend: 0x0, symName: '__ZN169_$LT$$LT$alloc..collections..vec_deque..drain..Drain$LT$T$C$A$GT$$u20$as$u20$core..ops..drop..Drop$GT$..drop..DropGuard$LT$T$C$A$GT$$u20$as$u20$core..ops..drop..Drop$GT$4drop17h95a796544fc22b85E', symObjAddr: 0x9F0, symBinAddr: 0x100053F20, symSize: 0x250 }
  - { offset: 0xBF18F, size: 0x8, addend: 0x0, symName: '__ZN169_$LT$$LT$alloc..collections..vec_deque..drain..Drain$LT$T$C$A$GT$$u20$as$u20$core..ops..drop..Drop$GT$..drop..DropGuard$LT$T$C$A$GT$$u20$as$u20$core..ops..drop..Drop$GT$4drop17hb155d78d7ce82357E', symObjAddr: 0xC40, symBinAddr: 0x100054170, symSize: 0x250 }
  - { offset: 0xBF444, size: 0x8, addend: 0x0, symName: '__ZN98_$LT$alloc..collections..vec_deque..drain..Drain$LT$T$C$A$GT$$u20$as$u20$core..ops..drop..Drop$GT$4drop17h307e76a0d0624f24E', symObjAddr: 0xA860, symBinAddr: 0x10005DD90, symSize: 0xF0 }
  - { offset: 0xBF4D4, size: 0x8, addend: 0x0, symName: '__ZN98_$LT$alloc..collections..vec_deque..drain..Drain$LT$T$C$A$GT$$u20$as$u20$core..ops..drop..Drop$GT$4drop17hc0b3e4eb9664bb71E', symObjAddr: 0xA950, symBinAddr: 0x10005DE80, symSize: 0xF0 }
  - { offset: 0xBF564, size: 0x8, addend: 0x0, symName: '__ZN98_$LT$alloc..collections..vec_deque..drain..Drain$LT$T$C$A$GT$$u20$as$u20$core..ops..drop..Drop$GT$4drop17hc46dcfc864a2c744E', symObjAddr: 0xAA40, symBinAddr: 0x10005DF70, symSize: 0xF0 }
  - { offset: 0xC00B9, size: 0x8, addend: 0x0, symName: '__ZN174_$LT$$LT$alloc..collections..btree..map..IntoIter$LT$K$C$V$C$A$GT$$u20$as$u20$core..ops..drop..Drop$GT$..drop..DropGuard$LT$K$C$V$C$A$GT$$u20$as$u20$core..ops..drop..Drop$GT$4drop17hac34f5b813b1aedcE', symObjAddr: 0xE90, symBinAddr: 0x1000543C0, symSize: 0x70 }
  - { offset: 0xC011C, size: 0x8, addend: 0x0, symName: '__ZN174_$LT$$LT$alloc..collections..btree..map..IntoIter$LT$K$C$V$C$A$GT$$u20$as$u20$core..ops..drop..Drop$GT$..drop..DropGuard$LT$K$C$V$C$A$GT$$u20$as$u20$core..ops..drop..Drop$GT$4drop17hce261fe41cb3af94E', symObjAddr: 0xF00, symBinAddr: 0x100054430, symSize: 0x70 }
  - { offset: 0xC017F, size: 0x8, addend: 0x0, symName: '__ZN174_$LT$$LT$alloc..collections..btree..map..IntoIter$LT$K$C$V$C$A$GT$$u20$as$u20$core..ops..drop..Drop$GT$..drop..DropGuard$LT$K$C$V$C$A$GT$$u20$as$u20$core..ops..drop..Drop$GT$4drop17hfd72143f437732e2E', symObjAddr: 0xF70, symBinAddr: 0x1000544A0, symSize: 0x70 }
  - { offset: 0xC0274, size: 0x8, addend: 0x0, symName: '__ZN99_$LT$alloc..collections..btree..map..IntoIter$LT$K$C$V$C$A$GT$$u20$as$u20$core..ops..drop..Drop$GT$4drop17h15e4564b42f1ba49E', symObjAddr: 0xABF0, symBinAddr: 0x10005E120, symSize: 0xA0 }
  - { offset: 0xC02E5, size: 0x8, addend: 0x0, symName: '__ZN99_$LT$alloc..collections..btree..map..IntoIter$LT$K$C$V$C$A$GT$$u20$as$u20$core..ops..drop..Drop$GT$4drop17h8c565d9b59bd41f5E', symObjAddr: 0xAC90, symBinAddr: 0x10005E1C0, symSize: 0xA0 }
  - { offset: 0xC0356, size: 0x8, addend: 0x0, symName: '__ZN99_$LT$alloc..collections..btree..map..IntoIter$LT$K$C$V$C$A$GT$$u20$as$u20$core..ops..drop..Drop$GT$4drop17ha2a6f60b4a4f8363E', symObjAddr: 0xAD30, symBinAddr: 0x10005E260, symSize: 0xA0 }
  - { offset: 0xC04BD, size: 0x8, addend: 0x0, symName: '__ZN99_$LT$alloc..collections..btree..map..BTreeMap$LT$K$C$V$C$A$GT$$u20$as$u20$core..ops..drop..Drop$GT$4drop17h64840355e08db3f9E', symObjAddr: 0xAB30, symBinAddr: 0x10005E060, symSize: 0x40 }
  - { offset: 0xC053B, size: 0x8, addend: 0x0, symName: '__ZN99_$LT$alloc..collections..btree..map..BTreeMap$LT$K$C$V$C$A$GT$$u20$as$u20$core..ops..drop..Drop$GT$4drop17h8879fefdebc6462cE', symObjAddr: 0xAB70, symBinAddr: 0x10005E0A0, symSize: 0x40 }
  - { offset: 0xC05B9, size: 0x8, addend: 0x0, symName: '__ZN99_$LT$alloc..collections..btree..map..BTreeMap$LT$K$C$V$C$A$GT$$u20$as$u20$core..ops..drop..Drop$GT$4drop17he7e0272da3dd3255E', symObjAddr: 0xABB0, symBinAddr: 0x10005E0E0, symSize: 0x40 }
  - { offset: 0xC081A, size: 0x8, addend: 0x0, symName: '__ZN280_$LT$alloc..collections..btree..node..Handle$LT$alloc..collections..btree..node..NodeRef$LT$alloc..collections..btree..node..marker..Dying$C$K$C$V$C$NodeType$GT$$C$alloc..collections..btree..node..marker..KV$GT$..drop_key_val..Dropper$LT$T$GT$$u20$as$u20$core..ops..drop..Drop$GT$4drop17h31bdccb1c4430591E', symObjAddr: 0xFE0, symBinAddr: 0x100054510, symSize: 0x20 }
  - { offset: 0xC084D, size: 0x8, addend: 0x0, symName: '__ZN280_$LT$alloc..collections..btree..node..Handle$LT$alloc..collections..btree..node..NodeRef$LT$alloc..collections..btree..node..marker..Dying$C$K$C$V$C$NodeType$GT$$C$alloc..collections..btree..node..marker..KV$GT$..drop_key_val..Dropper$LT$T$GT$$u20$as$u20$core..ops..drop..Drop$GT$4drop17hc797604be6d5596bE', symObjAddr: 0x1000, symBinAddr: 0x100054530, symSize: 0x20 }
  - { offset: 0xC0880, size: 0x8, addend: 0x0, symName: '__ZN280_$LT$alloc..collections..btree..node..Handle$LT$alloc..collections..btree..node..NodeRef$LT$alloc..collections..btree..node..marker..Dying$C$K$C$V$C$NodeType$GT$$C$alloc..collections..btree..node..marker..KV$GT$..drop_key_val..Dropper$LT$T$GT$$u20$as$u20$core..ops..drop..Drop$GT$4drop17hfffd52b690f70d1bE', symObjAddr: 0x1020, symBinAddr: 0x100054550, symSize: 0x20 }
  - { offset: 0xC13CD, size: 0x8, addend: 0x0, symName: '__ZN150_$LT$$LT$alloc..vec..drain..Drain$LT$T$C$A$GT$$u20$as$u20$core..ops..drop..Drop$GT$..drop..DropGuard$LT$T$C$A$GT$$u20$as$u20$core..ops..drop..Drop$GT$4drop17hfdc736459a456608E', symObjAddr: 0x240, symBinAddr: 0x100053770, symSize: 0x140 }
  - { offset: 0xC166F, size: 0x8, addend: 0x0, symName: '__ZN79_$LT$alloc..vec..drain..Drain$LT$T$C$A$GT$$u20$as$u20$core..ops..drop..Drop$GT$4drop17h23f91aa2376e4eb3E', symObjAddr: 0x94B0, symBinAddr: 0x10005C9E0, symSize: 0x2E0 }
  - { offset: 0xC1BAD, size: 0x8, addend: 0x0, symName: '__ZN157_$LT$$LT$alloc..vec..into_iter..IntoIter$LT$T$C$A$GT$$u20$as$u20$core..ops..drop..Drop$GT$..drop..DropGuard$LT$T$C$A$GT$$u20$as$u20$core..ops..drop..Drop$GT$4drop17h068565e63037330eE', symObjAddr: 0x380, symBinAddr: 0x1000538B0, symSize: 0x70 }
  - { offset: 0xC1CBA, size: 0x8, addend: 0x0, symName: '__ZN157_$LT$$LT$alloc..vec..into_iter..IntoIter$LT$T$C$A$GT$$u20$as$u20$core..ops..drop..Drop$GT$..drop..DropGuard$LT$T$C$A$GT$$u20$as$u20$core..ops..drop..Drop$GT$4drop17h06ac4890b5dd554fE', symObjAddr: 0x3F0, symBinAddr: 0x100053920, symSize: 0x70 }
  - { offset: 0xC1DC7, size: 0x8, addend: 0x0, symName: '__ZN157_$LT$$LT$alloc..vec..into_iter..IntoIter$LT$T$C$A$GT$$u20$as$u20$core..ops..drop..Drop$GT$..drop..DropGuard$LT$T$C$A$GT$$u20$as$u20$core..ops..drop..Drop$GT$4drop17h0b4263f174d6f468E', symObjAddr: 0x460, symBinAddr: 0x100053990, symSize: 0x70 }
  - { offset: 0xC1ED4, size: 0x8, addend: 0x0, symName: '__ZN157_$LT$$LT$alloc..vec..into_iter..IntoIter$LT$T$C$A$GT$$u20$as$u20$core..ops..drop..Drop$GT$..drop..DropGuard$LT$T$C$A$GT$$u20$as$u20$core..ops..drop..Drop$GT$4drop17h4385ffcddbec44d1E', symObjAddr: 0x4D0, symBinAddr: 0x100053A00, symSize: 0x70 }
  - { offset: 0xC1FE1, size: 0x8, addend: 0x0, symName: '__ZN157_$LT$$LT$alloc..vec..into_iter..IntoIter$LT$T$C$A$GT$$u20$as$u20$core..ops..drop..Drop$GT$..drop..DropGuard$LT$T$C$A$GT$$u20$as$u20$core..ops..drop..Drop$GT$4drop17h75fb2a606d69aca1E', symObjAddr: 0x540, symBinAddr: 0x100053A70, symSize: 0x70 }
  - { offset: 0xC21B3, size: 0x8, addend: 0x0, symName: '__ZN86_$LT$alloc..vec..into_iter..IntoIter$LT$T$C$A$GT$$u20$as$u20$core..ops..drop..Drop$GT$4drop17h29e520501a6a960eE', symObjAddr: 0x9A60, symBinAddr: 0x10005CF90, symSize: 0x90 }
  - { offset: 0xC224E, size: 0x8, addend: 0x0, symName: '__ZN86_$LT$alloc..vec..into_iter..IntoIter$LT$T$C$A$GT$$u20$as$u20$core..ops..drop..Drop$GT$4drop17ha812639a3b20413aE', symObjAddr: 0x9AF0, symBinAddr: 0x10005D020, symSize: 0x80 }
  - { offset: 0xC22E9, size: 0x8, addend: 0x0, symName: '__ZN86_$LT$alloc..vec..into_iter..IntoIter$LT$T$C$A$GT$$u20$as$u20$core..ops..drop..Drop$GT$4drop17he7323d013ed25335E', symObjAddr: 0x9B70, symBinAddr: 0x10005D0A0, symSize: 0x80 }
  - { offset: 0xC2384, size: 0x8, addend: 0x0, symName: '__ZN86_$LT$alloc..vec..into_iter..IntoIter$LT$T$C$A$GT$$u20$as$u20$core..ops..drop..Drop$GT$4drop17hfc599f5c1fd9b061E', symObjAddr: 0x9BF0, symBinAddr: 0x10005D120, symSize: 0x90 }
  - { offset: 0xC241F, size: 0x8, addend: 0x0, symName: '__ZN86_$LT$alloc..vec..into_iter..IntoIter$LT$T$C$A$GT$$u20$as$u20$core..ops..drop..Drop$GT$4drop17hff1388b17f52cdfaE', symObjAddr: 0x9C80, symBinAddr: 0x10005D1B0, symSize: 0x80 }
  - { offset: 0xC28D6, size: 0x8, addend: 0x0, symName: '__ZN70_$LT$alloc..vec..Vec$LT$T$C$A$GT$$u20$as$u20$core..ops..drop..Drop$GT$4drop17h02f6cf25395858c4E', symObjAddr: 0x7960, symBinAddr: 0x10005AE90, symSize: 0x30 }
  - { offset: 0xC2986, size: 0x8, addend: 0x0, symName: '__ZN70_$LT$alloc..vec..Vec$LT$T$C$A$GT$$u20$as$u20$core..ops..drop..Drop$GT$4drop17h19684602053deebaE', symObjAddr: 0x7990, symBinAddr: 0x10005AEC0, symSize: 0x30 }
  - { offset: 0xC2A36, size: 0x8, addend: 0x0, symName: '__ZN70_$LT$alloc..vec..Vec$LT$T$C$A$GT$$u20$as$u20$core..ops..drop..Drop$GT$4drop17h3f7950bd70975ae4E', symObjAddr: 0x79C0, symBinAddr: 0x10005AEF0, symSize: 0x20 }
  - { offset: 0xC2AE6, size: 0x8, addend: 0x0, symName: '__ZN70_$LT$alloc..vec..Vec$LT$T$C$A$GT$$u20$as$u20$core..ops..drop..Drop$GT$4drop17h451eed6041571679E', symObjAddr: 0x79E0, symBinAddr: 0x10005AF10, symSize: 0x20 }
  - { offset: 0xC2B96, size: 0x8, addend: 0x0, symName: '__ZN70_$LT$alloc..vec..Vec$LT$T$C$A$GT$$u20$as$u20$core..ops..drop..Drop$GT$4drop17h4c1e257dfbcbfc88E', symObjAddr: 0x7A00, symBinAddr: 0x10005AF30, symSize: 0x30 }
  - { offset: 0xC2C46, size: 0x8, addend: 0x0, symName: '__ZN70_$LT$alloc..vec..Vec$LT$T$C$A$GT$$u20$as$u20$core..ops..drop..Drop$GT$4drop17h4c5c3ba65b16be4cE', symObjAddr: 0x7A30, symBinAddr: 0x10005AF60, symSize: 0x20 }
  - { offset: 0xC2CF6, size: 0x8, addend: 0x0, symName: '__ZN70_$LT$alloc..vec..Vec$LT$T$C$A$GT$$u20$as$u20$core..ops..drop..Drop$GT$4drop17h5094784fb2a847edE', symObjAddr: 0x7A50, symBinAddr: 0x10005AF80, symSize: 0x30 }
  - { offset: 0xC2DA6, size: 0x8, addend: 0x0, symName: '__ZN70_$LT$alloc..vec..Vec$LT$T$C$A$GT$$u20$as$u20$core..ops..drop..Drop$GT$4drop17h63b3bc694310969fE', symObjAddr: 0x7A80, symBinAddr: 0x10005AFB0, symSize: 0x20 }
  - { offset: 0xC2E56, size: 0x8, addend: 0x0, symName: '__ZN70_$LT$alloc..vec..Vec$LT$T$C$A$GT$$u20$as$u20$core..ops..drop..Drop$GT$4drop17h6da7c816bd87b1f1E', symObjAddr: 0x7AA0, symBinAddr: 0x10005AFD0, symSize: 0x20 }
  - { offset: 0xC2F06, size: 0x8, addend: 0x0, symName: '__ZN70_$LT$alloc..vec..Vec$LT$T$C$A$GT$$u20$as$u20$core..ops..drop..Drop$GT$4drop17h6fafa9d3e820532bE', symObjAddr: 0x7AC0, symBinAddr: 0x10005AFF0, symSize: 0x20 }
  - { offset: 0xC2FB6, size: 0x8, addend: 0x0, symName: '__ZN70_$LT$alloc..vec..Vec$LT$T$C$A$GT$$u20$as$u20$core..ops..drop..Drop$GT$4drop17h7569d7cd5f923fb7E', symObjAddr: 0x7AE0, symBinAddr: 0x10005B010, symSize: 0x20 }
  - { offset: 0xC3066, size: 0x8, addend: 0x0, symName: '__ZN70_$LT$alloc..vec..Vec$LT$T$C$A$GT$$u20$as$u20$core..ops..drop..Drop$GT$4drop17h78473828c4bd4d04E', symObjAddr: 0x7B00, symBinAddr: 0x10005B030, symSize: 0x20 }
  - { offset: 0xC3116, size: 0x8, addend: 0x0, symName: '__ZN70_$LT$alloc..vec..Vec$LT$T$C$A$GT$$u20$as$u20$core..ops..drop..Drop$GT$4drop17h9edc66c963acfab1E', symObjAddr: 0x7B20, symBinAddr: 0x10005B050, symSize: 0x30 }
  - { offset: 0xC31C6, size: 0x8, addend: 0x0, symName: '__ZN70_$LT$alloc..vec..Vec$LT$T$C$A$GT$$u20$as$u20$core..ops..drop..Drop$GT$4drop17ha812f9188d73271bE', symObjAddr: 0x7B50, symBinAddr: 0x10005B080, symSize: 0x20 }
  - { offset: 0xC3276, size: 0x8, addend: 0x0, symName: '__ZN70_$LT$alloc..vec..Vec$LT$T$C$A$GT$$u20$as$u20$core..ops..drop..Drop$GT$4drop17hb50ab64097b65053E', symObjAddr: 0x7B70, symBinAddr: 0x10005B0A0, symSize: 0x20 }
  - { offset: 0xC3326, size: 0x8, addend: 0x0, symName: '__ZN70_$LT$alloc..vec..Vec$LT$T$C$A$GT$$u20$as$u20$core..ops..drop..Drop$GT$4drop17hbc6fd61eba5fec82E', symObjAddr: 0x7B90, symBinAddr: 0x10005B0C0, symSize: 0x20 }
  - { offset: 0xC33D6, size: 0x8, addend: 0x0, symName: '__ZN70_$LT$alloc..vec..Vec$LT$T$C$A$GT$$u20$as$u20$core..ops..drop..Drop$GT$4drop17hcf93c528d83e7da6E', symObjAddr: 0x7BB0, symBinAddr: 0x10005B0E0, symSize: 0x20 }
  - { offset: 0xC3486, size: 0x8, addend: 0x0, symName: '__ZN70_$LT$alloc..vec..Vec$LT$T$C$A$GT$$u20$as$u20$core..ops..drop..Drop$GT$4drop17hd905d355a98d0d2eE', symObjAddr: 0x7BD0, symBinAddr: 0x10005B100, symSize: 0x30 }
  - { offset: 0xC3536, size: 0x8, addend: 0x0, symName: '__ZN70_$LT$alloc..vec..Vec$LT$T$C$A$GT$$u20$as$u20$core..ops..drop..Drop$GT$4drop17he0f23ca6b5f94603E', symObjAddr: 0x7C00, symBinAddr: 0x10005B130, symSize: 0x30 }
  - { offset: 0xC35E6, size: 0x8, addend: 0x0, symName: '__ZN70_$LT$alloc..vec..Vec$LT$T$C$A$GT$$u20$as$u20$core..ops..drop..Drop$GT$4drop17he6a21e95f4240e69E', symObjAddr: 0x7C30, symBinAddr: 0x10005B160, symSize: 0x30 }
  - { offset: 0xC3C51, size: 0x8, addend: 0x0, symName: '__ZN83_$LT$alloc..vec..set_len_on_drop..SetLenOnDrop$u20$as$u20$core..ops..drop..Drop$GT$4drop17hb54e23a28210199fE', symObjAddr: 0x9940, symBinAddr: 0x10005CE70, symSize: 0x20 }
  - { offset: 0xC51A3, size: 0x8, addend: 0x0, symName: '__ZN77_$LT$alloc..raw_vec..RawVec$LT$T$C$A$GT$$u20$as$u20$core..ops..drop..Drop$GT$4drop17h17b2706516c033dfE', symObjAddr: 0x8F00, symBinAddr: 0x10005C430, symSize: 0x30 }
  - { offset: 0xC51DF, size: 0x8, addend: 0x0, symName: '__ZN77_$LT$alloc..raw_vec..RawVec$LT$T$C$A$GT$$u20$as$u20$core..ops..drop..Drop$GT$4drop17h324f2d2db2e6c2d8E', symObjAddr: 0x8F30, symBinAddr: 0x10005C460, symSize: 0x30 }
  - { offset: 0xC521B, size: 0x8, addend: 0x0, symName: '__ZN77_$LT$alloc..raw_vec..RawVec$LT$T$C$A$GT$$u20$as$u20$core..ops..drop..Drop$GT$4drop17h3d6dc310dee43b44E', symObjAddr: 0x8F60, symBinAddr: 0x10005C490, symSize: 0x30 }
  - { offset: 0xC5257, size: 0x8, addend: 0x0, symName: '__ZN77_$LT$alloc..raw_vec..RawVec$LT$T$C$A$GT$$u20$as$u20$core..ops..drop..Drop$GT$4drop17h3f4a71109128ee1bE', symObjAddr: 0x8F90, symBinAddr: 0x10005C4C0, symSize: 0x30 }
  - { offset: 0xC5293, size: 0x8, addend: 0x0, symName: '__ZN77_$LT$alloc..raw_vec..RawVec$LT$T$C$A$GT$$u20$as$u20$core..ops..drop..Drop$GT$4drop17h404c8bc7aed20cc2E', symObjAddr: 0x8FC0, symBinAddr: 0x10005C4F0, symSize: 0x30 }
  - { offset: 0xC52CF, size: 0x8, addend: 0x0, symName: '__ZN77_$LT$alloc..raw_vec..RawVec$LT$T$C$A$GT$$u20$as$u20$core..ops..drop..Drop$GT$4drop17h42471b7e1eed446eE', symObjAddr: 0x8FF0, symBinAddr: 0x10005C520, symSize: 0x30 }
  - { offset: 0xC530B, size: 0x8, addend: 0x0, symName: '__ZN77_$LT$alloc..raw_vec..RawVec$LT$T$C$A$GT$$u20$as$u20$core..ops..drop..Drop$GT$4drop17h4730899a9f85a16aE', symObjAddr: 0x9020, symBinAddr: 0x10005C550, symSize: 0x30 }
  - { offset: 0xC5347, size: 0x8, addend: 0x0, symName: '__ZN77_$LT$alloc..raw_vec..RawVec$LT$T$C$A$GT$$u20$as$u20$core..ops..drop..Drop$GT$4drop17h47988d5d1b0b7b8dE', symObjAddr: 0x9050, symBinAddr: 0x10005C580, symSize: 0x20 }
  - { offset: 0xC5383, size: 0x8, addend: 0x0, symName: '__ZN77_$LT$alloc..raw_vec..RawVec$LT$T$C$A$GT$$u20$as$u20$core..ops..drop..Drop$GT$4drop17h547d56069349eb84E', symObjAddr: 0x9070, symBinAddr: 0x10005C5A0, symSize: 0x30 }
  - { offset: 0xC53BF, size: 0x8, addend: 0x0, symName: '__ZN77_$LT$alloc..raw_vec..RawVec$LT$T$C$A$GT$$u20$as$u20$core..ops..drop..Drop$GT$4drop17h56ce51ee89ac7747E', symObjAddr: 0x90A0, symBinAddr: 0x10005C5D0, symSize: 0x30 }
  - { offset: 0xC53FB, size: 0x8, addend: 0x0, symName: '__ZN77_$LT$alloc..raw_vec..RawVec$LT$T$C$A$GT$$u20$as$u20$core..ops..drop..Drop$GT$4drop17h5a03d191bfe1c686E', symObjAddr: 0x90D0, symBinAddr: 0x10005C600, symSize: 0x30 }
  - { offset: 0xC5437, size: 0x8, addend: 0x0, symName: '__ZN77_$LT$alloc..raw_vec..RawVec$LT$T$C$A$GT$$u20$as$u20$core..ops..drop..Drop$GT$4drop17h5aa45b3a6a13631dE', symObjAddr: 0x9100, symBinAddr: 0x10005C630, symSize: 0x30 }
  - { offset: 0xC5473, size: 0x8, addend: 0x0, symName: '__ZN77_$LT$alloc..raw_vec..RawVec$LT$T$C$A$GT$$u20$as$u20$core..ops..drop..Drop$GT$4drop17h6dfaed5d06b25198E', symObjAddr: 0x9130, symBinAddr: 0x10005C660, symSize: 0x30 }
  - { offset: 0xC54AF, size: 0x8, addend: 0x0, symName: '__ZN77_$LT$alloc..raw_vec..RawVec$LT$T$C$A$GT$$u20$as$u20$core..ops..drop..Drop$GT$4drop17h701e7cf1c628fabfE', symObjAddr: 0x9160, symBinAddr: 0x10005C690, symSize: 0x30 }
  - { offset: 0xC54EB, size: 0x8, addend: 0x0, symName: '__ZN77_$LT$alloc..raw_vec..RawVec$LT$T$C$A$GT$$u20$as$u20$core..ops..drop..Drop$GT$4drop17h7107e1574dea5c1eE', symObjAddr: 0x9190, symBinAddr: 0x10005C6C0, symSize: 0x30 }
  - { offset: 0xC5527, size: 0x8, addend: 0x0, symName: '__ZN77_$LT$alloc..raw_vec..RawVec$LT$T$C$A$GT$$u20$as$u20$core..ops..drop..Drop$GT$4drop17h93ba0d01b36b1594E', symObjAddr: 0x91C0, symBinAddr: 0x10005C6F0, symSize: 0x30 }
  - { offset: 0xC5563, size: 0x8, addend: 0x0, symName: '__ZN77_$LT$alloc..raw_vec..RawVec$LT$T$C$A$GT$$u20$as$u20$core..ops..drop..Drop$GT$4drop17h99646ac05c4f4e0cE', symObjAddr: 0x91F0, symBinAddr: 0x10005C720, symSize: 0x30 }
  - { offset: 0xC559F, size: 0x8, addend: 0x0, symName: '__ZN77_$LT$alloc..raw_vec..RawVec$LT$T$C$A$GT$$u20$as$u20$core..ops..drop..Drop$GT$4drop17haddd9292407f90d8E', symObjAddr: 0x9220, symBinAddr: 0x10005C750, symSize: 0x30 }
  - { offset: 0xC55DB, size: 0x8, addend: 0x0, symName: '__ZN77_$LT$alloc..raw_vec..RawVec$LT$T$C$A$GT$$u20$as$u20$core..ops..drop..Drop$GT$4drop17haf62b19dcf7e0c32E', symObjAddr: 0x9250, symBinAddr: 0x10005C780, symSize: 0x30 }
  - { offset: 0xC5617, size: 0x8, addend: 0x0, symName: '__ZN77_$LT$alloc..raw_vec..RawVec$LT$T$C$A$GT$$u20$as$u20$core..ops..drop..Drop$GT$4drop17hb13d85de13c84ee0E', symObjAddr: 0x9280, symBinAddr: 0x10005C7B0, symSize: 0x30 }
  - { offset: 0xC5653, size: 0x8, addend: 0x0, symName: '__ZN77_$LT$alloc..raw_vec..RawVec$LT$T$C$A$GT$$u20$as$u20$core..ops..drop..Drop$GT$4drop17hbda28a452e2fcfb7E', symObjAddr: 0x92B0, symBinAddr: 0x10005C7E0, symSize: 0x30 }
  - { offset: 0xC568F, size: 0x8, addend: 0x0, symName: '__ZN77_$LT$alloc..raw_vec..RawVec$LT$T$C$A$GT$$u20$as$u20$core..ops..drop..Drop$GT$4drop17hcf26f536a72adff6E', symObjAddr: 0x92E0, symBinAddr: 0x10005C810, symSize: 0x30 }
  - { offset: 0xC56CB, size: 0x8, addend: 0x0, symName: '__ZN77_$LT$alloc..raw_vec..RawVec$LT$T$C$A$GT$$u20$as$u20$core..ops..drop..Drop$GT$4drop17hd54db698674cf5acE', symObjAddr: 0x9310, symBinAddr: 0x10005C840, symSize: 0x20 }
  - { offset: 0xC5707, size: 0x8, addend: 0x0, symName: '__ZN77_$LT$alloc..raw_vec..RawVec$LT$T$C$A$GT$$u20$as$u20$core..ops..drop..Drop$GT$4drop17he3e47c19893a9632E', symObjAddr: 0x9330, symBinAddr: 0x10005C860, symSize: 0x30 }
  - { offset: 0xC5743, size: 0x8, addend: 0x0, symName: '__ZN77_$LT$alloc..raw_vec..RawVec$LT$T$C$A$GT$$u20$as$u20$core..ops..drop..Drop$GT$4drop17he996e79ce52f9e1eE', symObjAddr: 0x9360, symBinAddr: 0x10005C890, symSize: 0x30 }
  - { offset: 0xC577F, size: 0x8, addend: 0x0, symName: '__ZN77_$LT$alloc..raw_vec..RawVec$LT$T$C$A$GT$$u20$as$u20$core..ops..drop..Drop$GT$4drop17hea2ef8f2bd4f3498E', symObjAddr: 0x9390, symBinAddr: 0x10005C8C0, symSize: 0x30 }
  - { offset: 0xC57BB, size: 0x8, addend: 0x0, symName: '__ZN77_$LT$alloc..raw_vec..RawVec$LT$T$C$A$GT$$u20$as$u20$core..ops..drop..Drop$GT$4drop17hee2ce9917b58b88eE', symObjAddr: 0x93C0, symBinAddr: 0x10005C8F0, symSize: 0x30 }
  - { offset: 0xC57F7, size: 0x8, addend: 0x0, symName: '__ZN77_$LT$alloc..raw_vec..RawVec$LT$T$C$A$GT$$u20$as$u20$core..ops..drop..Drop$GT$4drop17hf0e3413308af1cd8E', symObjAddr: 0x93F0, symBinAddr: 0x10005C920, symSize: 0x30 }
  - { offset: 0xC5833, size: 0x8, addend: 0x0, symName: '__ZN77_$LT$alloc..raw_vec..RawVec$LT$T$C$A$GT$$u20$as$u20$core..ops..drop..Drop$GT$4drop17hfd244fb38867c3e0E', symObjAddr: 0x9420, symBinAddr: 0x10005C950, symSize: 0x30 }
  - { offset: 0xC586F, size: 0x8, addend: 0x0, symName: '__ZN77_$LT$alloc..raw_vec..RawVec$LT$T$C$A$GT$$u20$as$u20$core..ops..drop..Drop$GT$4drop17hfeac1896896441e6E', symObjAddr: 0x9450, symBinAddr: 0x10005C980, symSize: 0x30 }
  - { offset: 0xC5954, size: 0x8, addend: 0x0, symName: '__ZN71_$LT$alloc..sync..Arc$LT$T$C$A$GT$$u20$as$u20$core..ops..drop..Drop$GT$4drop17h6b5110093ac3956aE', symObjAddr: 0x7C60, symBinAddr: 0x10005B190, symSize: 0x80 }
  - { offset: 0xC5A8A, size: 0x8, addend: 0x0, symName: '__ZN71_$LT$alloc..sync..Arc$LT$T$C$A$GT$$u20$as$u20$core..ops..drop..Drop$GT$4drop17h86e8de1ad732c3b3E', symObjAddr: 0x7CE0, symBinAddr: 0x10005B210, symSize: 0x80 }
  - { offset: 0xC5CDF, size: 0x8, addend: 0x0, symName: '__ZN72_$LT$alloc..sync..Weak$LT$T$C$A$GT$$u20$as$u20$core..ops..drop..Drop$GT$4drop17h8c52e2c715148902E', symObjAddr: 0x8C00, symBinAddr: 0x10005C130, symSize: 0x180 }
  - { offset: 0xC5F24, size: 0x8, addend: 0x0, symName: '__ZN72_$LT$alloc..sync..Weak$LT$T$C$A$GT$$u20$as$u20$core..ops..drop..Drop$GT$4drop17hd9a34ab364b3ef27E', symObjAddr: 0x8D80, symBinAddr: 0x10005C2B0, symSize: 0x180 }
  - { offset: 0xC61E4, size: 0x8, addend: 0x0, symName: '__ZN160_$LT$$LT$T$u20$as$u20$alloc..slice..$LT$impl$u20$$u5b$T$u5d$$GT$..to_vec_in..ConvertVec$GT$..to_vec..DropGuard$LT$T$C$A$GT$$u20$as$u20$core..ops..drop..Drop$GT$4drop17h5b7a63434947cd70E', symObjAddr: 0x760, symBinAddr: 0x100053C90, symSize: 0x20 }
  - { offset: 0xC6235, size: 0x8, addend: 0x0, symName: '__ZN160_$LT$$LT$T$u20$as$u20$alloc..slice..$LT$impl$u20$$u5b$T$u5d$$GT$..to_vec_in..ConvertVec$GT$..to_vec..DropGuard$LT$T$C$A$GT$$u20$as$u20$core..ops..drop..Drop$GT$4drop17h6cebd5e1231583bdE', symObjAddr: 0x780, symBinAddr: 0x100053CB0, symSize: 0x20 }
  - { offset: 0xC6301, size: 0x8, addend: 0x0, symName: '__ZN68_$LT$alloc..ffi..c_str..CString$u20$as$u20$core..ops..drop..Drop$GT$4drop17hdb2a112e0a364eedE', symObjAddr: 0x74E0, symBinAddr: 0x10005AA10, symSize: 0x60 }
  - { offset: 0xC63C5, size: 0x8, addend: 0x0, symName: '__ZN72_$LT$alloc..boxed..Box$LT$T$C$A$GT$$u20$as$u20$core..ops..drop..Drop$GT$4drop17h14aa2cc5ad9294d4E', symObjAddr: 0x7D60, symBinAddr: 0x10005B290, symSize: 0xB0 }
  - { offset: 0xC64FC, size: 0x8, addend: 0x0, symName: '__ZN72_$LT$alloc..boxed..Box$LT$T$C$A$GT$$u20$as$u20$core..ops..drop..Drop$GT$4drop17h279c117dcfb007aeE', symObjAddr: 0x7E10, symBinAddr: 0x10005B340, symSize: 0xB0 }
  - { offset: 0xC6633, size: 0x8, addend: 0x0, symName: '__ZN72_$LT$alloc..boxed..Box$LT$T$C$A$GT$$u20$as$u20$core..ops..drop..Drop$GT$4drop17h3099e8662c0ffb8dE', symObjAddr: 0x7EC0, symBinAddr: 0x10005B3F0, symSize: 0xB0 }
  - { offset: 0xC676A, size: 0x8, addend: 0x0, symName: '__ZN72_$LT$alloc..boxed..Box$LT$T$C$A$GT$$u20$as$u20$core..ops..drop..Drop$GT$4drop17h35c674a7cc088783E', symObjAddr: 0x7F70, symBinAddr: 0x10005B4A0, symSize: 0xB0 }
  - { offset: 0xC68A1, size: 0x8, addend: 0x0, symName: '__ZN72_$LT$alloc..boxed..Box$LT$T$C$A$GT$$u20$as$u20$core..ops..drop..Drop$GT$4drop17h3ab911e33c8a1046E', symObjAddr: 0x8020, symBinAddr: 0x10005B550, symSize: 0xB0 }
  - { offset: 0xC69D8, size: 0x8, addend: 0x0, symName: '__ZN72_$LT$alloc..boxed..Box$LT$T$C$A$GT$$u20$as$u20$core..ops..drop..Drop$GT$4drop17h3b01a61ef383cf5dE', symObjAddr: 0x80D0, symBinAddr: 0x10005B600, symSize: 0xB0 }
  - { offset: 0xC6B0F, size: 0x8, addend: 0x0, symName: '__ZN72_$LT$alloc..boxed..Box$LT$T$C$A$GT$$u20$as$u20$core..ops..drop..Drop$GT$4drop17h3fbfd707c00057d5E', symObjAddr: 0x8180, symBinAddr: 0x10005B6B0, symSize: 0xC0 }
  - { offset: 0xC6C48, size: 0x8, addend: 0x0, symName: '__ZN72_$LT$alloc..boxed..Box$LT$T$C$A$GT$$u20$as$u20$core..ops..drop..Drop$GT$4drop17h4381b92508e92110E', symObjAddr: 0x8240, symBinAddr: 0x10005B770, symSize: 0xB0 }
  - { offset: 0xC6D7F, size: 0x8, addend: 0x0, symName: '__ZN72_$LT$alloc..boxed..Box$LT$T$C$A$GT$$u20$as$u20$core..ops..drop..Drop$GT$4drop17h4434b39ebbaf619cE', symObjAddr: 0x82F0, symBinAddr: 0x10005B820, symSize: 0xB0 }
  - { offset: 0xC6EB6, size: 0x8, addend: 0x0, symName: '__ZN72_$LT$alloc..boxed..Box$LT$T$C$A$GT$$u20$as$u20$core..ops..drop..Drop$GT$4drop17h49b41e99435157cbE', symObjAddr: 0x83A0, symBinAddr: 0x10005B8D0, symSize: 0xB0 }
  - { offset: 0xC6FED, size: 0x8, addend: 0x0, symName: '__ZN72_$LT$alloc..boxed..Box$LT$T$C$A$GT$$u20$as$u20$core..ops..drop..Drop$GT$4drop17h5649da188c3d2d83E', symObjAddr: 0x8450, symBinAddr: 0x10005B980, symSize: 0xC0 }
  - { offset: 0xC7126, size: 0x8, addend: 0x0, symName: '__ZN72_$LT$alloc..boxed..Box$LT$T$C$A$GT$$u20$as$u20$core..ops..drop..Drop$GT$4drop17h5d3ace92f1b40eebE', symObjAddr: 0x8510, symBinAddr: 0x10005BA40, symSize: 0xB0 }
  - { offset: 0xC725D, size: 0x8, addend: 0x0, symName: '__ZN72_$LT$alloc..boxed..Box$LT$T$C$A$GT$$u20$as$u20$core..ops..drop..Drop$GT$4drop17h67a11100ea55dee9E', symObjAddr: 0x85C0, symBinAddr: 0x10005BAF0, symSize: 0xB0 }
  - { offset: 0xC7394, size: 0x8, addend: 0x0, symName: '__ZN72_$LT$alloc..boxed..Box$LT$T$C$A$GT$$u20$as$u20$core..ops..drop..Drop$GT$4drop17h684cd072f94c7685E', symObjAddr: 0x8670, symBinAddr: 0x10005BBA0, symSize: 0xB0 }
  - { offset: 0xC74CB, size: 0x8, addend: 0x0, symName: '__ZN72_$LT$alloc..boxed..Box$LT$T$C$A$GT$$u20$as$u20$core..ops..drop..Drop$GT$4drop17h77b61173a4826591E', symObjAddr: 0x8720, symBinAddr: 0x10005BC50, symSize: 0xB0 }
  - { offset: 0xC7602, size: 0x8, addend: 0x0, symName: '__ZN72_$LT$alloc..boxed..Box$LT$T$C$A$GT$$u20$as$u20$core..ops..drop..Drop$GT$4drop17h7b34176e21adc717E', symObjAddr: 0x87D0, symBinAddr: 0x10005BD00, symSize: 0xB0 }
  - { offset: 0xC7739, size: 0x8, addend: 0x0, symName: '__ZN72_$LT$alloc..boxed..Box$LT$T$C$A$GT$$u20$as$u20$core..ops..drop..Drop$GT$4drop17h990708501e1f0335E', symObjAddr: 0x8880, symBinAddr: 0x10005BDB0, symSize: 0xC0 }
  - { offset: 0xC7872, size: 0x8, addend: 0x0, symName: '__ZN72_$LT$alloc..boxed..Box$LT$T$C$A$GT$$u20$as$u20$core..ops..drop..Drop$GT$4drop17h9acf9fdb7077ce8aE', symObjAddr: 0x8940, symBinAddr: 0x10005BE70, symSize: 0xB0 }
  - { offset: 0xC79A9, size: 0x8, addend: 0x0, symName: '__ZN72_$LT$alloc..boxed..Box$LT$T$C$A$GT$$u20$as$u20$core..ops..drop..Drop$GT$4drop17ha3a41d1b84ee6eb1E', symObjAddr: 0x89F0, symBinAddr: 0x10005BF20, symSize: 0xB0 }
  - { offset: 0xC7AE0, size: 0x8, addend: 0x0, symName: '__ZN72_$LT$alloc..boxed..Box$LT$T$C$A$GT$$u20$as$u20$core..ops..drop..Drop$GT$4drop17hd27066c4cbbd981fE', symObjAddr: 0x8AA0, symBinAddr: 0x10005BFD0, symSize: 0xB0 }
  - { offset: 0xC7C17, size: 0x8, addend: 0x0, symName: '__ZN72_$LT$alloc..boxed..Box$LT$T$C$A$GT$$u20$as$u20$core..ops..drop..Drop$GT$4drop17hfb831e55303dcb70E', symObjAddr: 0x8B50, symBinAddr: 0x10005C080, symSize: 0xB0 }
  - { offset: 0xC7DB9, size: 0x8, addend: 0x0, symName: '__ZN123_$LT$intrusive_collections..pointer_ops..clone_pointer_from_raw..PointerGuard$LT$T$GT$$u20$as$u20$core..ops..drop..Drop$GT$4drop17h68ec7bf78462afaaE', symObjAddr: 0x200, symBinAddr: 0x100053730, symSize: 0x40 }
  - { offset: 0xC7EF2, size: 0x8, addend: 0x0, symName: '__ZN88_$LT$intrusive_collections..rbtree..RBTree$LT$A$GT$$u20$as$u20$core..ops..drop..Drop$GT$4drop17h07ac91cc10fa13a1E', symObjAddr: 0x9D50, symBinAddr: 0x10005D280, symSize: 0x20 }
  - { offset: 0xC7F25, size: 0x8, addend: 0x0, symName: '__ZN88_$LT$intrusive_collections..rbtree..RBTree$LT$A$GT$$u20$as$u20$core..ops..drop..Drop$GT$4drop17h6fb515b65932e8d9E', symObjAddr: 0x9D70, symBinAddr: 0x10005D2A0, symSize: 0x20 }
  - { offset: 0xC7F58, size: 0x8, addend: 0x0, symName: '__ZN88_$LT$intrusive_collections..rbtree..RBTree$LT$A$GT$$u20$as$u20$core..ops..drop..Drop$GT$4drop17hecb85661904b43fbE', symObjAddr: 0x9D90, symBinAddr: 0x10005D2C0, symSize: 0x20 }
  - { offset: 0xC82D6, size: 0x8, addend: 0x0, symName: '__ZN64_$LT$smallvec..SetLenOnDrop$u20$as$u20$core..ops..drop..Drop$GT$4drop17hc71246e5dba1a0cfE', symObjAddr: 0x7330, symBinAddr: 0x10005A860, symSize: 0x20 }
  - { offset: 0xC8306, size: 0x8, addend: 0x0, symName: '__ZN66_$LT$smallvec..Drain$LT$T$GT$$u20$as$u20$core..ops..drop..Drop$GT$4drop17h0be1ed2ca8e31e4dE', symObjAddr: 0x7350, symBinAddr: 0x10005A880, symSize: 0x190 }
  - { offset: 0xC8492, size: 0x8, addend: 0x0, symName: '__ZN69_$LT$smallvec..IntoIter$LT$A$GT$$u20$as$u20$core..ops..drop..Drop$GT$4drop17h49fb3c9752f1b567E', symObjAddr: 0x7540, symBinAddr: 0x10005AA70, symSize: 0x30 }
  - { offset: 0xC84E3, size: 0x8, addend: 0x0, symName: '__ZN69_$LT$smallvec..IntoIter$LT$A$GT$$u20$as$u20$core..ops..drop..Drop$GT$4drop17h720b517a924db063E', symObjAddr: 0x7570, symBinAddr: 0x10005AAA0, symSize: 0x40 }
  - { offset: 0xC8534, size: 0x8, addend: 0x0, symName: '__ZN69_$LT$smallvec..IntoIter$LT$A$GT$$u20$as$u20$core..ops..drop..Drop$GT$4drop17h87679fd6939772c4E', symObjAddr: 0x75B0, symBinAddr: 0x10005AAE0, symSize: 0x70 }
  - { offset: 0xC858C, size: 0x8, addend: 0x0, symName: '__ZN69_$LT$smallvec..SmallVec$LT$A$GT$$u20$as$u20$core..ops..drop..Drop$GT$4drop17h082da94247dc20a5E', symObjAddr: 0x7620, symBinAddr: 0x10005AB50, symSize: 0x80 }
  - { offset: 0xC85ED, size: 0x8, addend: 0x0, symName: '__ZN69_$LT$smallvec..SmallVec$LT$A$GT$$u20$as$u20$core..ops..drop..Drop$GT$4drop17h17418c1de10a3ed7E', symObjAddr: 0x76A0, symBinAddr: 0x10005ABD0, symSize: 0x80 }
  - { offset: 0xC864E, size: 0x8, addend: 0x0, symName: '__ZN69_$LT$smallvec..SmallVec$LT$A$GT$$u20$as$u20$core..ops..drop..Drop$GT$4drop17h471fc1ff42ffe0dbE', symObjAddr: 0x7720, symBinAddr: 0x10005AC50, symSize: 0x80 }
  - { offset: 0xC86AF, size: 0x8, addend: 0x0, symName: '__ZN69_$LT$smallvec..SmallVec$LT$A$GT$$u20$as$u20$core..ops..drop..Drop$GT$4drop17h4a488e2c59b40cb3E', symObjAddr: 0x77A0, symBinAddr: 0x10005ACD0, symSize: 0x80 }
  - { offset: 0xC8710, size: 0x8, addend: 0x0, symName: '__ZN69_$LT$smallvec..SmallVec$LT$A$GT$$u20$as$u20$core..ops..drop..Drop$GT$4drop17h92ab4c7442937c8bE', symObjAddr: 0x7820, symBinAddr: 0x10005AD50, symSize: 0x80 }
  - { offset: 0xC8771, size: 0x8, addend: 0x0, symName: '__ZN69_$LT$smallvec..SmallVec$LT$A$GT$$u20$as$u20$core..ops..drop..Drop$GT$4drop17hf5772b7f40fb59e9E', symObjAddr: 0x78A0, symBinAddr: 0x10005ADD0, symSize: 0x90 }
  - { offset: 0xCACD9, size: 0x8, addend: 0x0, symName: '__ZN79_$LT$hashbrown..raw..RawTable$LT$T$C$A$GT$$u20$as$u20$core..ops..drop..Drop$GT$4drop17h22c0a24f9cfc4832E', symObjAddr: 0x9790, symBinAddr: 0x10005CCC0, symSize: 0x30 }
  - { offset: 0xCAD15, size: 0x8, addend: 0x0, symName: '__ZN79_$LT$hashbrown..raw..RawTable$LT$T$C$A$GT$$u20$as$u20$core..ops..drop..Drop$GT$4drop17h588ecae3e58b8fccE', symObjAddr: 0x97C0, symBinAddr: 0x10005CCF0, symSize: 0x30 }
  - { offset: 0xCAD51, size: 0x8, addend: 0x0, symName: '__ZN79_$LT$hashbrown..raw..RawTable$LT$T$C$A$GT$$u20$as$u20$core..ops..drop..Drop$GT$4drop17h988dd4bda6e5239fE', symObjAddr: 0x97F0, symBinAddr: 0x10005CD20, symSize: 0x30 }
  - { offset: 0xCAD8D, size: 0x8, addend: 0x0, symName: '__ZN79_$LT$hashbrown..raw..RawTable$LT$T$C$A$GT$$u20$as$u20$core..ops..drop..Drop$GT$4drop17ha2710d19781b6263E', symObjAddr: 0x9820, symBinAddr: 0x10005CD50, symSize: 0x30 }
  - { offset: 0xCADC9, size: 0x8, addend: 0x0, symName: '__ZN79_$LT$hashbrown..raw..RawTable$LT$T$C$A$GT$$u20$as$u20$core..ops..drop..Drop$GT$4drop17ha84ea86f47a59d9dE', symObjAddr: 0x9850, symBinAddr: 0x10005CD80, symSize: 0x30 }
  - { offset: 0xCAE0B, size: 0x8, addend: 0x0, symName: '__ZN82_$LT$hashbrown..raw..RawIntoIter$LT$T$C$A$GT$$u20$as$u20$core..ops..drop..Drop$GT$4drop17hc4052cd6cdd2b46aE', symObjAddr: 0x98D0, symBinAddr: 0x10005CE00, symSize: 0x70 }
  - { offset: 0xCB1C9, size: 0x8, addend: 0x0, symName: '__ZN88_$LT$hashbrown..scopeguard..ScopeGuard$LT$T$C$F$GT$$u20$as$u20$core..ops..drop..Drop$GT$4drop17h57865da0bc1a4872E', symObjAddr: 0x9D00, symBinAddr: 0x10005D230, symSize: 0x20 }
  - { offset: 0xCB203, size: 0x8, addend: 0x0, symName: '__ZN88_$LT$hashbrown..scopeguard..ScopeGuard$LT$T$C$F$GT$$u20$as$u20$core..ops..drop..Drop$GT$4drop17hac8c482521cc28f6E', symObjAddr: 0x9D20, symBinAddr: 0x10005D250, symSize: 0x30 }
  - { offset: 0xCFB47, size: 0x8, addend: 0x0, symName: __ZN4core3cmp9PartialEq2ne17h9e10b64c34b1bccbE, symObjAddr: 0x0, symBinAddr: 0x10005E420, symSize: 0x20 }
  - { offset: 0xCFB63, size: 0x8, addend: 0x0, symName: __ZN4core3cmp9PartialEq2ne17h9e10b64c34b1bccbE, symObjAddr: 0x0, symBinAddr: 0x10005E420, symSize: 0x20 }
  - { offset: 0xD05DD, size: 0x8, addend: 0x0, symName: '__ZN78_$LT$core..ptr..non_null..NonNull$LT$T$GT$$u20$as$u20$core..cmp..PartialEq$GT$2eq17he805fef16e4f8da7E', symObjAddr: 0x9F0, symBinAddr: 0x10005EE10, symSize: 0x19 }
  - { offset: 0xD1A1F, size: 0x8, addend: 0x0, symName: '__ZN4core3ptr8non_null16NonNull$LT$T$GT$13new_unchecked17h8692ef9d3cc60269E', symObjAddr: 0x20, symBinAddr: 0x10005E440, symSize: 0x30 }
  - { offset: 0xD286C, size: 0x8, addend: 0x0, symName: '__ZN4core3ptr8non_null16NonNull$LT$T$GT$13new_unchecked17h997f24d5bb59ee74E', symObjAddr: 0x50, symBinAddr: 0x10005E470, symSize: 0x30 }
  - { offset: 0xD28CD, size: 0x8, addend: 0x0, symName: '__ZN4core3ptr8non_null16NonNull$LT$T$GT$20offset_from_unsigned17h0267b072a120df41E', symObjAddr: 0x80, symBinAddr: 0x10005E4A0, symSize: 0x70 }
  - { offset: 0xD29F1, size: 0x8, addend: 0x0, symName: '__ZN4core3ptr8non_null16NonNull$LT$T$GT$20offset_from_unsigned17h3adad05c095c11feE', symObjAddr: 0xF0, symBinAddr: 0x10005E510, symSize: 0x70 }
  - { offset: 0xD2B98, size: 0x8, addend: 0x0, symName: '__ZN4core3ptr8non_null16NonNull$LT$T$GT$20offset_from_unsigned17h4f8b54db46e8eaacE', symObjAddr: 0x160, symBinAddr: 0x10005E580, symSize: 0x70 }
  - { offset: 0xD2C9E, size: 0x8, addend: 0x0, symName: '__ZN4core3ptr8non_null16NonNull$LT$T$GT$20offset_from_unsigned17h4ff90d6c6e988e95E', symObjAddr: 0x1D0, symBinAddr: 0x10005E5F0, symSize: 0x60 }
  - { offset: 0xD2DAB, size: 0x8, addend: 0x0, symName: '__ZN4core3ptr8non_null16NonNull$LT$T$GT$20offset_from_unsigned17h55fec6c7e3b98c25E', symObjAddr: 0x230, symBinAddr: 0x10005E650, symSize: 0x70 }
  - { offset: 0xD2EB1, size: 0x8, addend: 0x0, symName: '__ZN4core3ptr8non_null16NonNull$LT$T$GT$20offset_from_unsigned17h5e78d95fc3d11455E', symObjAddr: 0x2A0, symBinAddr: 0x10005E6C0, symSize: 0x60 }
  - { offset: 0xD2FAA, size: 0x8, addend: 0x0, symName: '__ZN4core3ptr8non_null16NonNull$LT$T$GT$20offset_from_unsigned17h63fb1d1988d26658E', symObjAddr: 0x300, symBinAddr: 0x10005E720, symSize: 0x60 }
  - { offset: 0xD30A3, size: 0x8, addend: 0x0, symName: '__ZN4core3ptr8non_null16NonNull$LT$T$GT$20offset_from_unsigned17h85a97de22ee1f384E', symObjAddr: 0x360, symBinAddr: 0x10005E780, symSize: 0x60 }
  - { offset: 0xD31A9, size: 0x8, addend: 0x0, symName: '__ZN4core3ptr8non_null16NonNull$LT$T$GT$20offset_from_unsigned17h8b2f77f50e8c8647E', symObjAddr: 0x3C0, symBinAddr: 0x10005E7E0, symSize: 0x70 }
  - { offset: 0xD32AF, size: 0x8, addend: 0x0, symName: '__ZN4core3ptr8non_null16NonNull$LT$T$GT$20offset_from_unsigned17h928a5c872bbf88adE', symObjAddr: 0x430, symBinAddr: 0x10005E850, symSize: 0x70 }
  - { offset: 0xD33B5, size: 0x8, addend: 0x0, symName: '__ZN4core3ptr8non_null16NonNull$LT$T$GT$20offset_from_unsigned17ha978d2bf0f366506E', symObjAddr: 0x4A0, symBinAddr: 0x10005E8C0, symSize: 0x70 }
  - { offset: 0xD34BB, size: 0x8, addend: 0x0, symName: '__ZN4core3ptr8non_null16NonNull$LT$T$GT$20offset_from_unsigned17hacac77e399160b8eE', symObjAddr: 0x510, symBinAddr: 0x10005E930, symSize: 0x70 }
  - { offset: 0xD35B4, size: 0x8, addend: 0x0, symName: '__ZN4core3ptr8non_null16NonNull$LT$T$GT$20offset_from_unsigned17hb179bf8a4e40e607E', symObjAddr: 0x580, symBinAddr: 0x10005E9A0, symSize: 0x60 }
  - { offset: 0xD36BA, size: 0x8, addend: 0x0, symName: '__ZN4core3ptr8non_null16NonNull$LT$T$GT$20offset_from_unsigned17hb42efbfdd00a1246E', symObjAddr: 0x5E0, symBinAddr: 0x10005EA00, symSize: 0x60 }
  - { offset: 0xD37C0, size: 0x8, addend: 0x0, symName: '__ZN4core3ptr8non_null16NonNull$LT$T$GT$20offset_from_unsigned17hca6fb3ddab63b955E', symObjAddr: 0x640, symBinAddr: 0x10005EA60, symSize: 0x60 }
  - { offset: 0xD38C6, size: 0x8, addend: 0x0, symName: '__ZN4core3ptr8non_null16NonNull$LT$T$GT$20offset_from_unsigned17hddd9792d32f3874aE', symObjAddr: 0x6A0, symBinAddr: 0x10005EAC0, symSize: 0x60 }
  - { offset: 0xD39CC, size: 0x8, addend: 0x0, symName: '__ZN4core3ptr8non_null16NonNull$LT$T$GT$20offset_from_unsigned17hfea242b854aca0a1E', symObjAddr: 0x700, symBinAddr: 0x10005EB20, symSize: 0x70 }
  - { offset: 0xD3AD1, size: 0x8, addend: 0x0, symName: '__ZN4core3ptr8non_null16NonNull$LT$T$GT$3new17h0d00141b7f6e714bE', symObjAddr: 0x770, symBinAddr: 0x10005EB90, symSize: 0x50 }
  - { offset: 0xD3B48, size: 0x8, addend: 0x0, symName: '__ZN4core3ptr8non_null16NonNull$LT$T$GT$3new17h35308c025657e8e6E', symObjAddr: 0x7C0, symBinAddr: 0x10005EBE0, symSize: 0x50 }
  - { offset: 0xD3BA5, size: 0x8, addend: 0x0, symName: '__ZN4core3ptr8non_null16NonNull$LT$T$GT$3new17h3e3c4a99370cb5dbE', symObjAddr: 0x810, symBinAddr: 0x10005EC30, symSize: 0x50 }
  - { offset: 0xD3C02, size: 0x8, addend: 0x0, symName: '__ZN4core3ptr8non_null16NonNull$LT$T$GT$3new17h3eeae3794d712a2bE', symObjAddr: 0x860, symBinAddr: 0x10005EC80, symSize: 0x50 }
  - { offset: 0xD3C97, size: 0x8, addend: 0x0, symName: '__ZN4core3ptr8non_null16NonNull$LT$T$GT$3new17h577094ed3f7bb260E', symObjAddr: 0x8B0, symBinAddr: 0x10005ECD0, symSize: 0x50 }
  - { offset: 0xD3CF4, size: 0x8, addend: 0x0, symName: '__ZN4core3ptr8non_null16NonNull$LT$T$GT$3new17h5a5f82066ca09b8fE', symObjAddr: 0x900, symBinAddr: 0x10005ED20, symSize: 0x50 }
  - { offset: 0xD3D51, size: 0x8, addend: 0x0, symName: '__ZN4core3ptr8non_null16NonNull$LT$T$GT$3new17h6939f9eada769180E', symObjAddr: 0x950, symBinAddr: 0x10005ED70, symSize: 0x50 }
  - { offset: 0xD3D93, size: 0x8, addend: 0x0, symName: '__ZN4core3ptr8non_null16NonNull$LT$T$GT$4cast17h12a36d09a850f420E', symObjAddr: 0x9A0, symBinAddr: 0x10005EDC0, symSize: 0x10 }
  - { offset: 0xD3DC8, size: 0x8, addend: 0x0, symName: '__ZN4core3ptr8non_null16NonNull$LT$T$GT$4cast17h7d0b199f722377dcE', symObjAddr: 0x9B0, symBinAddr: 0x10005EDD0, symSize: 0x10 }
  - { offset: 0xD3DFD, size: 0x8, addend: 0x0, symName: '__ZN4core3ptr8non_null16NonNull$LT$T$GT$4cast17hb38f528e1c6a1a74E', symObjAddr: 0x9C0, symBinAddr: 0x10005EDE0, symSize: 0x10 }
  - { offset: 0xD3E32, size: 0x8, addend: 0x0, symName: '__ZN4core3ptr8non_null16NonNull$LT$T$GT$4cast17hbaab13adf50c4210E', symObjAddr: 0x9D0, symBinAddr: 0x10005EDF0, symSize: 0x10 }
  - { offset: 0xD3E67, size: 0x8, addend: 0x0, symName: '__ZN4core3ptr8non_null16NonNull$LT$T$GT$4cast17heb102959061db8f4E', symObjAddr: 0x9E0, symBinAddr: 0x10005EE00, symSize: 0x10 }
  - { offset: 0xD3EC7, size: 0x8, addend: 0x0, symName: __ZN6quiche8recovery11gcongestion4bbr29probe_rtt8ProbeRTT3new17h4139941e78a07b34E, symObjAddr: 0x0, symBinAddr: 0x10005EE30, symSize: 0x70 }
  - { offset: 0xD42FB, size: 0x8, addend: 0x0, symName: '__ZN128_$LT$quiche..recovery..gcongestion..bbr2..probe_rtt..ProbeRTT$u20$as$u20$quiche..recovery..gcongestion..bbr2..mode..ModeImpl$GT$24is_probing_for_bandwidth17h70ba5284d5ec1fafE', symObjAddr: 0x230, symBinAddr: 0x10005F060, symSize: 0x10 }
  - { offset: 0xD4327, size: 0x8, addend: 0x0, symName: '__ZN128_$LT$quiche..recovery..gcongestion..bbr2..probe_rtt..ProbeRTT$u20$as$u20$quiche..recovery..gcongestion..bbr2..mode..ModeImpl$GT$19on_congestion_event17h67441a2be4f18c44E', symObjAddr: 0x240, symBinAddr: 0x10005F070, symSize: 0x2D0 }
  - { offset: 0xD43EB, size: 0x8, addend: 0x0, symName: '__ZN128_$LT$quiche..recovery..gcongestion..bbr2..probe_rtt..ProbeRTT$u20$as$u20$quiche..recovery..gcongestion..bbr2..mode..ModeImpl$GT$15get_cwnd_limits17hdad20a506456b652E', symObjAddr: 0x510, symBinAddr: 0x10005F340, symSize: 0x70 }
  - { offset: 0xD4442, size: 0x8, addend: 0x0, symName: '__ZN128_$LT$quiche..recovery..gcongestion..bbr2..probe_rtt..ProbeRTT$u20$as$u20$quiche..recovery..gcongestion..bbr2..mode..ModeImpl$GT$18on_exit_quiescence17hac7e0c64e3a33e07E', symObjAddr: 0x580, symBinAddr: 0x10005F3B0, symSize: 0x1F0 }
  - { offset: 0xD44C6, size: 0x8, addend: 0x0, symName: '__ZN128_$LT$quiche..recovery..gcongestion..bbr2..probe_rtt..ProbeRTT$u20$as$u20$quiche..recovery..gcongestion..bbr2..mode..ModeImpl$GT$5enter17hcc62f21f7434a3ddE', symObjAddr: 0x770, symBinAddr: 0x10005F5A0, symSize: 0x70 }
  - { offset: 0xD4518, size: 0x8, addend: 0x0, symName: '__ZN128_$LT$quiche..recovery..gcongestion..bbr2..probe_rtt..ProbeRTT$u20$as$u20$quiche..recovery..gcongestion..bbr2..mode..ModeImpl$GT$5leave17h7a1ef143d8071a8dE', symObjAddr: 0x7E0, symBinAddr: 0x10005F610, symSize: 0x20 }
  - { offset: 0xD4562, size: 0x8, addend: 0x0, symName: '__ZN93_$LT$quiche..recovery..gcongestion..bbr2..probe_rtt..ProbeRTT$u20$as$u20$core..fmt..Debug$GT$3fmt17ha663595e05ecd842E', symObjAddr: 0x800, symBinAddr: 0x10005F630, symSize: 0xC1 }
  - { offset: 0xD548F, size: 0x8, addend: 0x0, symName: __ZN6quiche8recovery11gcongestion4bbr29probe_rtt8ProbeRTT3new17h4139941e78a07b34E, symObjAddr: 0x0, symBinAddr: 0x10005EE30, symSize: 0x70 }
  - { offset: 0xD54DB, size: 0x8, addend: 0x0, symName: __ZN6quiche8recovery11gcongestion4bbr29probe_rtt8ProbeRTT13into_probe_bw17hfc73170d14dde28bE, symObjAddr: 0x70, symBinAddr: 0x10005EEA0, symSize: 0x180 }
  - { offset: 0xD554C, size: 0x8, addend: 0x0, symName: __ZN6quiche8recovery11gcongestion4bbr29probe_rtt8ProbeRTT15inflight_target17h5b060dd0db2516b2E, symObjAddr: 0x1F0, symBinAddr: 0x10005F020, symSize: 0x40 }
  - { offset: 0xD5678, size: 0x8, addend: 0x0, symName: '__ZN69_$LT$quiche..stream..StreamIdHasher$u20$as$u20$core..hash..Hasher$GT$6finish17h78355a9faae9ed0eE', symObjAddr: 0x0, symBinAddr: 0x10005F700, symSize: 0x10 }
  - { offset: 0xD5B0F, size: 0x8, addend: 0x0, symName: '__ZN69_$LT$quiche..stream..StreamIdHasher$u20$as$u20$core..hash..Hasher$GT$6finish17h78355a9faae9ed0eE', symObjAddr: 0x0, symBinAddr: 0x10005F700, symSize: 0x10 }
  - { offset: 0xD5B3B, size: 0x8, addend: 0x0, symName: '__ZN69_$LT$quiche..stream..StreamIdHasher$u20$as$u20$core..hash..Hasher$GT$9write_u6417h17aaf6e08ad4cd3eE', symObjAddr: 0x10, symBinAddr: 0x10005F710, symSize: 0x20 }
  - { offset: 0xD5B72, size: 0x8, addend: 0x0, symName: __ZN6quiche6stream8is_local17hc3be935e2e0d1118E, symObjAddr: 0x30, symBinAddr: 0x10005F730, symSize: 0x30 }
  - { offset: 0xD5BAF, size: 0x8, addend: 0x0, symName: __ZN6quiche6stream7is_bidi17h6b48490e23f0b56aE, symObjAddr: 0x60, symBinAddr: 0x10005F760, symSize: 0x20 }
  - { offset: 0xD5BE2, size: 0x8, addend: 0x0, symName: '__ZN76_$LT$quiche..stream..StreamPriorityKey$u20$as$u20$core..default..Default$GT$7default17h161a2e7f8b2c9d6aE', symObjAddr: 0x80, symBinAddr: 0x10005F780, symSize: 0x90 }
  - { offset: 0xD5C06, size: 0x8, addend: 0x0, symName: '__ZN74_$LT$quiche..stream..StreamPriorityKey$u20$as$u20$core..cmp..PartialEq$GT$2eq17hc219a6d679372a1eE', symObjAddr: 0x110, symBinAddr: 0x10005F810, symSize: 0x20 }
  - { offset: 0xD5C49, size: 0x8, addend: 0x0, symName: '__ZN75_$LT$quiche..stream..StreamPriorityKey$u20$as$u20$core..cmp..PartialOrd$GT$11partial_cmp17h262cabc7076a3dd4E', symObjAddr: 0x130, symBinAddr: 0x10005F830, symSize: 0xE0 }
  - { offset: 0xD5C8C, size: 0x8, addend: 0x0, symName: '__ZN68_$LT$quiche..stream..StreamPriorityKey$u20$as$u20$core..cmp..Ord$GT$3cmp17h7a24074c03471b9eE', symObjAddr: 0x210, symBinAddr: 0x10005F910, symSize: 0x50 }
  - { offset: 0xD5CED, size: 0x8, addend: 0x0, symName: '__ZN112_$LT$quiche..stream..StreamWritablePriorityAdapter$u20$as$u20$intrusive_collections..key_adapter..KeyAdapter$GT$7get_key17h3c1afaa82b0e7518E', symObjAddr: 0x260, symBinAddr: 0x10005F960, symSize: 0x40 }
  - { offset: 0xD5D30, size: 0x8, addend: 0x0, symName: '__ZN112_$LT$quiche..stream..StreamReadablePriorityAdapter$u20$as$u20$intrusive_collections..key_adapter..KeyAdapter$GT$7get_key17h346e5cbd7562ebc5E', symObjAddr: 0x2A0, symBinAddr: 0x10005F9A0, symSize: 0x40 }
  - { offset: 0xD5D73, size: 0x8, addend: 0x0, symName: '__ZN113_$LT$quiche..stream..StreamFlushablePriorityAdapter$u20$as$u20$intrusive_collections..key_adapter..KeyAdapter$GT$7get_key17h00d257c79f703c2fE', symObjAddr: 0x2E0, symBinAddr: 0x10005F9E0, symSize: 0x40 }
  - { offset: 0xD5E02, size: 0x8, addend: 0x0, symName: '__ZN85_$LT$quiche..stream..StreamIter$u20$as$u20$core..iter..traits..iterator..Iterator$GT$4next17h0837007f64096f45E', symObjAddr: 0x3A0, symBinAddr: 0x10005FAA0, symSize: 0xC0 }
  - { offset: 0xD5E6A, size: 0x8, addend: 0x0, symName: '__ZN73_$LT$quiche..stream..StreamIdHasher$u20$as$u20$core..default..Default$GT$7default17hc0e96e1a09f3b49cE', symObjAddr: 0x460, symBinAddr: 0x10005FB60, symSize: 0x10 }
  - { offset: 0xD5E8D, size: 0x8, addend: 0x0, symName: '__ZN72_$LT$quiche..stream..StreamPriorityKey$u20$as$u20$core..clone..Clone$GT$5clone17h9820976538077a4eE', symObjAddr: 0x470, symBinAddr: 0x10005FB70, symSize: 0xD0 }
  - { offset: 0xD5EC1, size: 0x8, addend: 0x0, symName: '__ZN88_$LT$quiche..stream..StreamWritablePriorityAdapter$u20$as$u20$core..default..Default$GT$7default17hbad39dcb561defa4E', symObjAddr: 0x540, symBinAddr: 0x10005FC40, symSize: 0x10 }
  - { offset: 0xD5EE0, size: 0x8, addend: 0x0, symName: '__ZN105_$LT$quiche..stream..StreamWritablePriorityAdapter$u20$as$u20$intrusive_collections..adapter..Adapter$GT$9get_value17hb48e4c098bf9b3d7E', symObjAddr: 0x550, symBinAddr: 0x10005FC50, symSize: 0x30 }
  - { offset: 0xD5F3F, size: 0x8, addend: 0x0, symName: '__ZN105_$LT$quiche..stream..StreamWritablePriorityAdapter$u20$as$u20$intrusive_collections..adapter..Adapter$GT$8get_link17h2e20c87bc8d92aa3E', symObjAddr: 0x580, symBinAddr: 0x10005FC80, symSize: 0x50 }
  - { offset: 0xD5FBB, size: 0x8, addend: 0x0, symName: '__ZN105_$LT$quiche..stream..StreamWritablePriorityAdapter$u20$as$u20$intrusive_collections..adapter..Adapter$GT$8link_ops17h7e78c2028aa6db13E', symObjAddr: 0x5D0, symBinAddr: 0x10005FCD0, symSize: 0x10 }
  - { offset: 0xD5FE7, size: 0x8, addend: 0x0, symName: '__ZN105_$LT$quiche..stream..StreamWritablePriorityAdapter$u20$as$u20$intrusive_collections..adapter..Adapter$GT$12link_ops_mut17hec60e97919263aacE', symObjAddr: 0x5E0, symBinAddr: 0x10005FCE0, symSize: 0x10 }
  - { offset: 0xD6013, size: 0x8, addend: 0x0, symName: '__ZN105_$LT$quiche..stream..StreamWritablePriorityAdapter$u20$as$u20$intrusive_collections..adapter..Adapter$GT$11pointer_ops17hd3d299ea061f1cc2E', symObjAddr: 0x5F0, symBinAddr: 0x10005FCF0, symSize: 0x10 }
  - { offset: 0xD6045, size: 0x8, addend: 0x0, symName: '__ZN88_$LT$quiche..stream..StreamReadablePriorityAdapter$u20$as$u20$core..default..Default$GT$7default17h09b49c268680ab29E', symObjAddr: 0x600, symBinAddr: 0x10005FD00, symSize: 0x10 }
  - { offset: 0xD6064, size: 0x8, addend: 0x0, symName: '__ZN105_$LT$quiche..stream..StreamReadablePriorityAdapter$u20$as$u20$intrusive_collections..adapter..Adapter$GT$9get_value17hbfd32f5d78c994a4E', symObjAddr: 0x610, symBinAddr: 0x10005FD10, symSize: 0x30 }
  - { offset: 0xD60C3, size: 0x8, addend: 0x0, symName: '__ZN105_$LT$quiche..stream..StreamReadablePriorityAdapter$u20$as$u20$intrusive_collections..adapter..Adapter$GT$8get_link17h7559b80e4f5e3bcbE', symObjAddr: 0x640, symBinAddr: 0x10005FD40, symSize: 0x50 }
  - { offset: 0xD613F, size: 0x8, addend: 0x0, symName: '__ZN105_$LT$quiche..stream..StreamReadablePriorityAdapter$u20$as$u20$intrusive_collections..adapter..Adapter$GT$8link_ops17h23f2fd927ff075c6E', symObjAddr: 0x690, symBinAddr: 0x10005FD90, symSize: 0x10 }
  - { offset: 0xD616B, size: 0x8, addend: 0x0, symName: '__ZN105_$LT$quiche..stream..StreamReadablePriorityAdapter$u20$as$u20$intrusive_collections..adapter..Adapter$GT$12link_ops_mut17h30ca1a94e812d676E', symObjAddr: 0x6A0, symBinAddr: 0x10005FDA0, symSize: 0x10 }
  - { offset: 0xD6197, size: 0x8, addend: 0x0, symName: '__ZN105_$LT$quiche..stream..StreamReadablePriorityAdapter$u20$as$u20$intrusive_collections..adapter..Adapter$GT$11pointer_ops17h3bb25fb67851a8bdE', symObjAddr: 0x6B0, symBinAddr: 0x10005FDB0, symSize: 0x10 }
  - { offset: 0xD61C9, size: 0x8, addend: 0x0, symName: '__ZN89_$LT$quiche..stream..StreamFlushablePriorityAdapter$u20$as$u20$core..default..Default$GT$7default17h9d9602225ad8ee22E', symObjAddr: 0x6C0, symBinAddr: 0x10005FDC0, symSize: 0x10 }
  - { offset: 0xD61E8, size: 0x8, addend: 0x0, symName: '__ZN106_$LT$quiche..stream..StreamFlushablePriorityAdapter$u20$as$u20$intrusive_collections..adapter..Adapter$GT$9get_value17h66f719eec9c151cbE', symObjAddr: 0x6D0, symBinAddr: 0x10005FDD0, symSize: 0x30 }
  - { offset: 0xD6247, size: 0x8, addend: 0x0, symName: '__ZN106_$LT$quiche..stream..StreamFlushablePriorityAdapter$u20$as$u20$intrusive_collections..adapter..Adapter$GT$8get_link17h60d5415fd437384fE', symObjAddr: 0x700, symBinAddr: 0x10005FE00, symSize: 0x50 }
  - { offset: 0xD62C3, size: 0x8, addend: 0x0, symName: '__ZN106_$LT$quiche..stream..StreamFlushablePriorityAdapter$u20$as$u20$intrusive_collections..adapter..Adapter$GT$8link_ops17ha3d40c8b44634644E', symObjAddr: 0x750, symBinAddr: 0x10005FE50, symSize: 0x10 }
  - { offset: 0xD62EF, size: 0x8, addend: 0x0, symName: '__ZN106_$LT$quiche..stream..StreamFlushablePriorityAdapter$u20$as$u20$intrusive_collections..adapter..Adapter$GT$12link_ops_mut17h67f9ca64f4ea0b7cE', symObjAddr: 0x760, symBinAddr: 0x10005FE60, symSize: 0x10 }
  - { offset: 0xD631B, size: 0x8, addend: 0x0, symName: '__ZN106_$LT$quiche..stream..StreamFlushablePriorityAdapter$u20$as$u20$intrusive_collections..adapter..Adapter$GT$11pointer_ops17h19bf37aa24e2b079E', symObjAddr: 0x770, symBinAddr: 0x10005FE70, symSize: 0x10 }
  - { offset: 0xD634D, size: 0x8, addend: 0x0, symName: '__ZN69_$LT$quiche..stream..StreamIter$u20$as$u20$core..default..Default$GT$7default17hf4f08faa0ce4a937E', symObjAddr: 0x780, symBinAddr: 0x10005FE80, symSize: 0x41 }
  - { offset: 0xD6757, size: 0x8, addend: 0x0, symName: __ZN6quiche6stream10StreamIter4from17hfc5b1208c1b6a668E, symObjAddr: 0x320, symBinAddr: 0x10005FA20, symSize: 0x80 }
  - { offset: 0xD68E1, size: 0x8, addend: 0x0, symName: '__ZN55_$LT$u32$u20$as$u20$core..slice..cmp..SliceContains$GT$14slice_contains17h9fca7df04dd9d4afE', symObjAddr: 0x0, symBinAddr: 0x10005FED0, symSize: 0x182 }
  - { offset: 0xD6A1D, size: 0x8, addend: 0x0, symName: '__ZN55_$LT$u32$u20$as$u20$core..slice..cmp..SliceContains$GT$14slice_contains17h9fca7df04dd9d4afE', symObjAddr: 0x0, symBinAddr: 0x10005FED0, symSize: 0x182 }
  - { offset: 0xD6FF1, size: 0x8, addend: 0x0, symName: __ZN3log13__private_api3log17h11fad11b4fdbd424E, symObjAddr: 0x0, symBinAddr: 0x100060060, symSize: 0xC0 }
  - { offset: 0xD7032, size: 0x8, addend: 0x0, symName: __ZN3log13__private_api3log17h11fad11b4fdbd424E, symObjAddr: 0x0, symBinAddr: 0x100060060, symSize: 0xC0 }
  - { offset: 0xD70A9, size: 0x8, addend: 0x0, symName: __ZN3log13__private_api8log_impl17h6c56eb8879dccb0dE, symObjAddr: 0xC0, symBinAddr: 0x100060120, symSize: 0x28C }
  - { offset: 0xD78B9, size: 0x8, addend: 0x0, symName: '__ZN137_$LT$alloc..collections..btree..dedup_sorted_iter..DedupSortedIter$LT$K$C$V$C$I$GT$$u20$as$u20$core..iter..traits..iterator..Iterator$GT$4next17h928841e92759f72eE', symObjAddr: 0x0, symBinAddr: 0x1000603B0, symSize: 0x22A }
  - { offset: 0xD7CEA, size: 0x8, addend: 0x0, symName: '__ZN137_$LT$alloc..collections..btree..dedup_sorted_iter..DedupSortedIter$LT$K$C$V$C$I$GT$$u20$as$u20$core..iter..traits..iterator..Iterator$GT$4next17h928841e92759f72eE', symObjAddr: 0x0, symBinAddr: 0x1000603B0, symSize: 0x22A }
  - { offset: 0xD7EA3, size: 0x8, addend: 0x0, symName: __ZN6quiche2h36stream4Type11deserialize17h84fda78939840c96E, symObjAddr: 0x0, symBinAddr: 0x1000605E0, symSize: 0xC0 }
  - { offset: 0xD8211, size: 0x8, addend: 0x0, symName: '__ZN62_$LT$quiche..h3..stream..State$u20$as$u20$core..fmt..Debug$GT$3fmt17h1e04c671aa8158daE', symObjAddr: 0x14E0, symBinAddr: 0x100061AC0, symSize: 0x130 }
  - { offset: 0xD8251, size: 0x8, addend: 0x0, symName: '__ZN66_$LT$quiche..h3..stream..State$u20$as$u20$core..cmp..PartialEq$GT$2eq17hf372033cd0cc5747E', symObjAddr: 0x1610, symBinAddr: 0x100061BF0, symSize: 0x24 }
  - { offset: 0xD8FFA, size: 0x8, addend: 0x0, symName: __ZN6quiche2h36stream4Type11deserialize17h84fda78939840c96E, symObjAddr: 0x0, symBinAddr: 0x1000605E0, symSize: 0xC0 }
  - { offset: 0xD9159, size: 0x8, addend: 0x0, symName: __ZN6quiche2h36stream6Stream3new17hb2105b6fa7564492E, symObjAddr: 0xC0, symBinAddr: 0x1000606A0, symSize: 0x150 }
  - { offset: 0xD91C2, size: 0x8, addend: 0x0, symName: __ZN6quiche2h36stream6Stream2ty17hc1a6700dcddcaaf6E, symObjAddr: 0x210, symBinAddr: 0x1000607F0, symSize: 0x10 }
  - { offset: 0xD91E4, size: 0x8, addend: 0x0, symName: __ZN6quiche2h36stream6Stream5state17h3e6c7a49bffe0e53E, symObjAddr: 0x220, symBinAddr: 0x100060800, symSize: 0x10 }
  - { offset: 0xD921A, size: 0x8, addend: 0x0, symName: __ZN6quiche2h36stream6Stream6set_ty17hd2680a5f80231a21E, symObjAddr: 0x230, symBinAddr: 0x100060810, symSize: 0x180 }
  - { offset: 0xD92CF, size: 0x8, addend: 0x0, symName: __ZN6quiche2h36stream6Stream11set_push_id17hb5b60de119371f94E, symObjAddr: 0x3B0, symBinAddr: 0x100060990, symSize: 0x110 }
  - { offset: 0xD936C, size: 0x8, addend: 0x0, symName: __ZN6quiche2h36stream6Stream14set_frame_type17h162c02e3744b93b6E, symObjAddr: 0x4C0, symBinAddr: 0x100060AA0, symSize: 0x730 }
  - { offset: 0xD9409, size: 0x8, addend: 0x0, symName: __ZN6quiche2h36stream6Stream10frame_type17hf0e81f89a36bc856E, symObjAddr: 0xBF0, symBinAddr: 0x1000611D0, symSize: 0x20 }
  - { offset: 0xD942C, size: 0x8, addend: 0x0, symName: __ZN6quiche2h36stream6Stream21set_frame_payload_len17he6505af9ded6d4c4E, symObjAddr: 0xC10, symBinAddr: 0x1000611F0, symSize: 0x270 }
  - { offset: 0xD94EF, size: 0x8, addend: 0x0, symName: __ZN6quiche2h36stream6Stream16initialize_local17hc53411456c48c38aE, symObjAddr: 0xE80, symBinAddr: 0x100061460, symSize: 0x10 }
  - { offset: 0xD9512, size: 0x8, addend: 0x0, symName: __ZN6quiche2h36stream6Stream17local_initialized17h462e7852e38567fbE, symObjAddr: 0xE90, symBinAddr: 0x100061470, symSize: 0x10 }
  - { offset: 0xD9535, size: 0x8, addend: 0x0, symName: __ZN6quiche2h36stream6Stream26increment_headers_received17h37cb92bc69596331E, symObjAddr: 0xEA0, symBinAddr: 0x100061480, symSize: 0x40 }
  - { offset: 0xD957E, size: 0x8, addend: 0x0, symName: __ZN6quiche2h36stream6Stream22headers_received_count17h32b30249646673b3E, symObjAddr: 0xEE0, symBinAddr: 0x1000614C0, symSize: 0x10 }
  - { offset: 0xD95A1, size: 0x8, addend: 0x0, symName: __ZN6quiche2h36stream6Stream18mark_trailers_sent17hf327fe8b1abe146cE, symObjAddr: 0xEF0, symBinAddr: 0x1000614D0, symSize: 0x10 }
  - { offset: 0xD95C4, size: 0x8, addend: 0x0, symName: __ZN6quiche2h36stream6Stream13trailers_sent17he7e1ed7825f0533dE, symObjAddr: 0xF00, symBinAddr: 0x1000614E0, symSize: 0x10 }
  - { offset: 0xD95E7, size: 0x8, addend: 0x0, symName: __ZN6quiche2h36stream6Stream18try_consume_varint17hac7a15d5e97008feE, symObjAddr: 0xF10, symBinAddr: 0x1000614F0, symSize: 0x110 }
  - { offset: 0xD96E8, size: 0x8, addend: 0x0, symName: __ZN6quiche2h36stream6Stream17try_consume_frame17h32391608e0f25813E, symObjAddr: 0x1020, symBinAddr: 0x100061600, symSize: 0x2B0 }
  - { offset: 0xD97B3, size: 0x8, addend: 0x0, symName: __ZN6quiche2h36stream6Stream8finished17hdf7f217b424fa865E, symObjAddr: 0x12D0, symBinAddr: 0x1000618B0, symSize: 0x30 }
  - { offset: 0xD97D6, size: 0x8, addend: 0x0, symName: __ZN6quiche2h36stream6Stream22try_trigger_data_event17h0d492005628492b3E, symObjAddr: 0x1300, symBinAddr: 0x1000618E0, symSize: 0x30 }
  - { offset: 0xD97F9, size: 0x8, addend: 0x0, symName: __ZN6quiche2h36stream6Stream16reset_data_event17hb0e2262dca88ceb2E, symObjAddr: 0x1330, symBinAddr: 0x100061910, symSize: 0x10 }
  - { offset: 0xD981C, size: 0x8, addend: 0x0, symName: __ZN6quiche2h36stream6Stream24set_last_priority_update17h5567a5179b2ebb63E, symObjAddr: 0x1340, symBinAddr: 0x100061920, symSize: 0x80 }
  - { offset: 0xD984F, size: 0x8, addend: 0x0, symName: __ZN6quiche2h36stream6Stream25take_last_priority_update17hcec1d9e7403ca072E, symObjAddr: 0x13C0, symBinAddr: 0x1000619A0, symSize: 0x30 }
  - { offset: 0xD9872, size: 0x8, addend: 0x0, symName: __ZN6quiche2h36stream6Stream24has_last_priority_update17h6224d9a586cecc20E, symObjAddr: 0x13F0, symBinAddr: 0x1000619D0, symSize: 0x20 }
  - { offset: 0xD9895, size: 0x8, addend: 0x0, symName: __ZN6quiche2h36stream6Stream21state_buffer_complete17h4b881180e265cb2fE, symObjAddr: 0x1410, symBinAddr: 0x1000619F0, symSize: 0x20 }
  - { offset: 0xD98B8, size: 0x8, addend: 0x0, symName: __ZN6quiche2h36stream6Stream16state_transition17hf4b141cc7a669793E, symObjAddr: 0x1430, symBinAddr: 0x100061A10, symSize: 0xB0 }
  - { offset: 0xD99AB, size: 0x8, addend: 0x0, symName: __ZN3std4sync6poison4once4Once9call_once17h4629dc7c97b97999E, symObjAddr: 0x0, symBinAddr: 0x100061C20, symSize: 0xD0 }
  - { offset: 0xD99E4, size: 0x8, addend: 0x0, symName: '__ZN3std4sync6poison4once4Once9call_once28_$u7b$$u7b$closure$u7d$$u7d$17h475b2c5f2d81f0adE', symObjAddr: 0xD0, symBinAddr: 0x100061CF0, symSize: 0x67 }
  - { offset: 0xD9ED3, size: 0x8, addend: 0x0, symName: __ZN3std4sync6poison4once4Once9call_once17h4629dc7c97b97999E, symObjAddr: 0x0, symBinAddr: 0x100061C20, symSize: 0xD0 }
  - { offset: 0xD9FCF, size: 0x8, addend: 0x0, symName: __ZN4core5slice4sort6stable14driftsort_main17hb60c057bfe52f0e0E, symObjAddr: 0x0, symBinAddr: 0x100061D60, symSize: 0x330 }
  - { offset: 0xDA0CB, size: 0x8, addend: 0x0, symName: __ZN4core5slice4sort6stable14driftsort_main17hb60c057bfe52f0e0E, symObjAddr: 0x0, symBinAddr: 0x100061D60, symSize: 0x330 }
  - { offset: 0xDA54E, size: 0x8, addend: 0x0, symName: '__ZN4core5slice4sort6stable27AlignedStorage$LT$T$C$_$GT$19as_uninit_slice_mut17h6b83dec6db3df2e2E', symObjAddr: 0x330, symBinAddr: 0x100062090, symSize: 0x5A }
  - { offset: 0xDA76E, size: 0x8, addend: 0x0, symName: __ZN6quiche3tls9boringssl17get_session_bytes17h4c6fa1e42359a46bE, symObjAddr: 0x0, symBinAddr: 0x1000620F0, symSize: 0xBA }
  - { offset: 0xDA797, size: 0x8, addend: 0x0, symName: __ZN6quiche3tls9boringssl20QUICHE_STREAM_METHOD17h43e89808fa098a61E, symObjAddr: 0xC0, symBinAddr: 0x10046F5F0, symSize: 0x0 }
  - { offset: 0xDA7E9, size: 0x8, addend: 0x0, symName: __ZN6quiche3tls9boringssl17get_session_bytes17h4c6fa1e42359a46bE, symObjAddr: 0x0, symBinAddr: 0x1000620F0, symSize: 0xBA }
  - { offset: 0xDAFA4, size: 0x8, addend: 0x0, symName: '__ZN104_$LT$core..iter..adapters..copied..Copied$LT$I$GT$$u20$as$u20$core..iter..traits..iterator..Iterator$GT$4next17h12c917d165f48af0E', symObjAddr: 0x0, symBinAddr: 0x1000621B0, symSize: 0x60 }
  - { offset: 0xDB175, size: 0x8, addend: 0x0, symName: '__ZN104_$LT$core..iter..adapters..copied..Copied$LT$I$GT$$u20$as$u20$core..iter..traits..iterator..Iterator$GT$4next17h12c917d165f48af0E', symObjAddr: 0x0, symBinAddr: 0x1000621B0, symSize: 0x60 }
  - { offset: 0xDB1E6, size: 0x8, addend: 0x0, symName: '__ZN104_$LT$core..iter..adapters..copied..Copied$LT$I$GT$$u20$as$u20$core..iter..traits..iterator..Iterator$GT$9size_hint17h99799387f261e775E', symObjAddr: 0x60, symBinAddr: 0x100062210, symSize: 0x30 }
  - { offset: 0xDB254, size: 0x8, addend: 0x0, symName: __ZN4core4iter6traits8iterator8Iterator7collect17hec08015a6b8f656fE, symObjAddr: 0x90, symBinAddr: 0x100062240, symSize: 0x70 }
  - { offset: 0xDB2F6, size: 0x8, addend: 0x0, symName: '__ZN63_$LT$I$u20$as$u20$core..iter..traits..collect..IntoIterator$GT$9into_iter17hfd9a10f5449529beE', symObjAddr: 0x100, symBinAddr: 0x1000622B0, symSize: 0x23 }
  - { offset: 0xDBB3E, size: 0x8, addend: 0x0, symName: '__ZN83_$LT$quiche..recovery..congestion..hystart..Hystart$u20$as$u20$core..fmt..Debug$GT$3fmt17h4498fdc0f75a947aE', symObjAddr: 0x0, symBinAddr: 0x1000622E0, symSize: 0x410 }
  - { offset: 0xDBB64, size: 0x8, addend: 0x0, symName: '__ZN83_$LT$quiche..recovery..congestion..hystart..Hystart$u20$as$u20$core..fmt..Debug$GT$3fmt17h4498fdc0f75a947aE', symObjAddr: 0x0, symBinAddr: 0x1000622E0, symSize: 0x410 }
  - { offset: 0xDBE62, size: 0x8, addend: 0x0, symName: '__ZN89_$LT$quiche..recovery..congestion..hystart..Hystart$u20$as$u20$core..default..Default$GT$7default17h9c3196d4d10b91f9E', symObjAddr: 0x9A0, symBinAddr: 0x100062C80, symSize: 0xB5 }
  - { offset: 0xDC2D4, size: 0x8, addend: 0x0, symName: __ZN6quiche8recovery10congestion7hystart7Hystart3new17hcac01363d36f7153E, symObjAddr: 0x410, symBinAddr: 0x1000626F0, symSize: 0xB0 }
  - { offset: 0xDC303, size: 0x8, addend: 0x0, symName: __ZN6quiche8recovery10congestion7hystart7Hystart7enabled17ha3a1c0bf03e9fb7eE, symObjAddr: 0x4C0, symBinAddr: 0x1000627A0, symSize: 0x10 }
  - { offset: 0xDC325, size: 0x8, addend: 0x0, symName: __ZN6quiche8recovery10congestion7hystart7Hystart14css_start_time17hca3e6740214ef7b2E, symObjAddr: 0x4D0, symBinAddr: 0x1000627B0, symSize: 0x20 }
  - { offset: 0xDC347, size: 0x8, addend: 0x0, symName: __ZN6quiche8recovery10congestion7hystart7Hystart6in_css17h558820e5a8c13f51E, symObjAddr: 0x4F0, symBinAddr: 0x1000627D0, symSize: 0x50 }
  - { offset: 0xDC376, size: 0x8, addend: 0x0, symName: __ZN6quiche8recovery10congestion7hystart7Hystart11start_round17ha3d3a217040a638cE, symObjAddr: 0x540, symBinAddr: 0x100062820, symSize: 0x80 }
  - { offset: 0xDC3B3, size: 0x8, addend: 0x0, symName: __ZN6quiche8recovery10congestion7hystart7Hystart15on_packet_acked17hd615db21c05ea40cE, symObjAddr: 0x5C0, symBinAddr: 0x1000628A0, symSize: 0x380 }
  - { offset: 0xDC451, size: 0x8, addend: 0x0, symName: __ZN6quiche8recovery10congestion7hystart7Hystart12css_cwnd_inc17hce363ca120543a36E, symObjAddr: 0x940, symBinAddr: 0x100062C20, symSize: 0x20 }
  - { offset: 0xDC481, size: 0x8, addend: 0x0, symName: __ZN6quiche8recovery10congestion7hystart7Hystart16congestion_event17h10da5df1e5e275aeE, symObjAddr: 0x960, symBinAddr: 0x100062C40, symSize: 0x40 }
  - { offset: 0xDC576, size: 0x8, addend: 0x0, symName: '__ZN42_$LT$$RF$T$u20$as$u20$core..fmt..Debug$GT$3fmt17hc2707b36433dd47cE', symObjAddr: 0x0, symBinAddr: 0x100062D40, symSize: 0x20 }
  - { offset: 0xDC5CE, size: 0x8, addend: 0x0, symName: '__ZN42_$LT$$RF$T$u20$as$u20$core..fmt..Debug$GT$3fmt17hc2707b36433dd47cE', symObjAddr: 0x0, symBinAddr: 0x100062D40, symSize: 0x20 }
  - { offset: 0xDC685, size: 0x8, addend: 0x0, symName: '__ZN4core4iter8adapters8peekable17Peekable$LT$I$GT$4peek28_$u7b$$u7b$closure$u7d$$u7d$17hee38667c08651011E', symObjAddr: 0x20, symBinAddr: 0x100062D60, symSize: 0x30 }
  - { offset: 0xDC90B, size: 0x8, addend: 0x0, symName: '__ZN70_$LT$alloc..ffi..c_str..CString$u20$as$u20$core..ops..deref..Deref$GT$5deref17h0d65499a04164fe8E', symObjAddr: 0x50, symBinAddr: 0x100062D90, symSize: 0x11 }
  - { offset: 0xDCB01, size: 0x8, addend: 0x0, symName: '__ZN5alloc6borrow12Cow$LT$B$GT$10into_owned17h424bc1b5da16e59bE', symObjAddr: 0x0, symBinAddr: 0x100062DB0, symSize: 0xA0 }
  - { offset: 0xDCD35, size: 0x8, addend: 0x0, symName: '__ZN73_$LT$core..marker..PhantomData$LT$T$GT$$u20$as$u20$core..clone..Clone$GT$5clone17hfee73cc634fd088aE', symObjAddr: 0xA0, symBinAddr: 0x100062E50, symSize: 0x10 }
  - { offset: 0xDCD6E, size: 0x8, addend: 0x0, symName: '__ZN77_$LT$core..marker..PhantomData$LT$T$GT$$u20$as$u20$core..default..Default$GT$7default17h5c44a37f5a33e742E', symObjAddr: 0xB0, symBinAddr: 0x100062E60, symSize: 0x6 }
  - { offset: 0xDCDD5, size: 0x8, addend: 0x0, symName: '__ZN5alloc6borrow12Cow$LT$B$GT$10into_owned17h424bc1b5da16e59bE', symObjAddr: 0x0, symBinAddr: 0x100062DB0, symSize: 0xA0 }
  - { offset: 0xDCE7D, size: 0x8, addend: 0x0, symName: '__ZN4core3ops8function5impls79_$LT$impl$u20$core..ops..function..FnMut$LT$A$GT$$u20$for$u20$$RF$mut$u20$F$GT$8call_mut17h133d42601be245adE', symObjAddr: 0x0, symBinAddr: 0x100062E70, symSize: 0x30 }
  - { offset: 0xDF727, size: 0x8, addend: 0x0, symName: '__ZN4core3ops8function5impls79_$LT$impl$u20$core..ops..function..FnMut$LT$A$GT$$u20$for$u20$$RF$mut$u20$F$GT$8call_mut17h133d42601be245adE', symObjAddr: 0x0, symBinAddr: 0x100062E70, symSize: 0x30 }
  - { offset: 0xDF776, size: 0x8, addend: 0x0, symName: '__ZN4core3ops8function5impls79_$LT$impl$u20$core..ops..function..FnMut$LT$A$GT$$u20$for$u20$$RF$mut$u20$F$GT$8call_mut17h20fe3dab53d81a88E', symObjAddr: 0x30, symBinAddr: 0x100062EA0, symSize: 0x30 }
  - { offset: 0xDF7C5, size: 0x8, addend: 0x0, symName: '__ZN4core3ops8function5impls79_$LT$impl$u20$core..ops..function..FnMut$LT$A$GT$$u20$for$u20$$RF$mut$u20$F$GT$8call_mut17h359fa9c9b6d166b7E', symObjAddr: 0x60, symBinAddr: 0x100062ED0, symSize: 0x30 }
  - { offset: 0xDF814, size: 0x8, addend: 0x0, symName: '__ZN4core3ops8function5impls79_$LT$impl$u20$core..ops..function..FnMut$LT$A$GT$$u20$for$u20$$RF$mut$u20$F$GT$8call_mut17h3f608f644e835696E', symObjAddr: 0x90, symBinAddr: 0x100062F00, symSize: 0x30 }
  - { offset: 0xDF863, size: 0x8, addend: 0x0, symName: '__ZN4core3ops8function5impls79_$LT$impl$u20$core..ops..function..FnMut$LT$A$GT$$u20$for$u20$$RF$mut$u20$F$GT$8call_mut17h68e6538bbd31e28dE', symObjAddr: 0xC0, symBinAddr: 0x100062F30, symSize: 0x30 }
  - { offset: 0xDF8B2, size: 0x8, addend: 0x0, symName: '__ZN4core3ops8function5impls79_$LT$impl$u20$core..ops..function..FnMut$LT$A$GT$$u20$for$u20$$RF$mut$u20$F$GT$8call_mut17h6c581860bc1d735eE', symObjAddr: 0xF0, symBinAddr: 0x100062F60, symSize: 0x30 }
  - { offset: 0xDF901, size: 0x8, addend: 0x0, symName: '__ZN4core3ops8function5impls79_$LT$impl$u20$core..ops..function..FnMut$LT$A$GT$$u20$for$u20$$RF$mut$u20$F$GT$8call_mut17h832a6f338cc7ac1dE', symObjAddr: 0x120, symBinAddr: 0x100062F90, symSize: 0x30 }
  - { offset: 0xDF950, size: 0x8, addend: 0x0, symName: '__ZN4core3ops8function5impls79_$LT$impl$u20$core..ops..function..FnMut$LT$A$GT$$u20$for$u20$$RF$mut$u20$F$GT$8call_mut17h867cc187a84f3c6eE', symObjAddr: 0x150, symBinAddr: 0x100062FC0, symSize: 0x30 }
  - { offset: 0xDF99F, size: 0x8, addend: 0x0, symName: '__ZN4core3ops8function5impls79_$LT$impl$u20$core..ops..function..FnMut$LT$A$GT$$u20$for$u20$$RF$mut$u20$F$GT$8call_mut17h92749b5bf3498bd8E', symObjAddr: 0x180, symBinAddr: 0x100062FF0, symSize: 0x30 }
  - { offset: 0xDF9EE, size: 0x8, addend: 0x0, symName: '__ZN4core3ops8function5impls79_$LT$impl$u20$core..ops..function..FnMut$LT$A$GT$$u20$for$u20$$RF$mut$u20$F$GT$8call_mut17hc12fa43456ac2ee9E', symObjAddr: 0x1B0, symBinAddr: 0x100063020, symSize: 0x30 }
  - { offset: 0xDFA3D, size: 0x8, addend: 0x0, symName: '__ZN4core3ops8function5impls79_$LT$impl$u20$core..ops..function..FnMut$LT$A$GT$$u20$for$u20$$RF$mut$u20$F$GT$8call_mut17hcf43a98737f0ae46E', symObjAddr: 0x1E0, symBinAddr: 0x100063050, symSize: 0x30 }
  - { offset: 0xDFA8C, size: 0x8, addend: 0x0, symName: '__ZN4core3ops8function5impls79_$LT$impl$u20$core..ops..function..FnMut$LT$A$GT$$u20$for$u20$$RF$mut$u20$F$GT$8call_mut17heb9f43a746c47e55E', symObjAddr: 0x210, symBinAddr: 0x100063080, symSize: 0x30 }
  - { offset: 0xE00FD, size: 0x8, addend: 0x0, symName: '__ZN4core4iter6traits8iterator8Iterator3all5check28_$u7b$$u7b$closure$u7d$$u7d$17h11f8b7f895b28a9fE', symObjAddr: 0x240, symBinAddr: 0x1000630B0, symSize: 0x40 }
  - { offset: 0xE0159, size: 0x8, addend: 0x0, symName: '__ZN4core4iter6traits8iterator8Iterator3all5check28_$u7b$$u7b$closure$u7d$$u7d$17h6fa296e2762e7ebfE', symObjAddr: 0x280, symBinAddr: 0x1000630F0, symSize: 0x30 }
  - { offset: 0xE01B5, size: 0x8, addend: 0x0, symName: '__ZN4core4iter6traits8iterator8Iterator3all5check28_$u7b$$u7b$closure$u7d$$u7d$17h8607b79b49f9b188E', symObjAddr: 0x2B0, symBinAddr: 0x100063120, symSize: 0x30 }
  - { offset: 0xE0211, size: 0x8, addend: 0x0, symName: '__ZN4core4iter6traits8iterator8Iterator3all5check28_$u7b$$u7b$closure$u7d$$u7d$17he567e4a527badb69E', symObjAddr: 0x2E0, symBinAddr: 0x100063150, symSize: 0x40 }
  - { offset: 0xE0279, size: 0x8, addend: 0x0, symName: '__ZN4core4iter6traits8iterator8Iterator3any5check28_$u7b$$u7b$closure$u7d$$u7d$17h9050b695ac1c0b11E', symObjAddr: 0x320, symBinAddr: 0x100063190, symSize: 0x40 }
  - { offset: 0xE02D5, size: 0x8, addend: 0x0, symName: '__ZN4core4iter6traits8iterator8Iterator3any5check28_$u7b$$u7b$closure$u7d$$u7d$17haa35ed7d9b2363dcE', symObjAddr: 0x360, symBinAddr: 0x1000631D0, symSize: 0x30 }
  - { offset: 0xE0350, size: 0x8, addend: 0x0, symName: '__ZN4core4iter6traits8iterator8Iterator4find5check28_$u7b$$u7b$closure$u7d$$u7d$17h0131f65f4e452318E', symObjAddr: 0x390, symBinAddr: 0x100063200, symSize: 0x70 }
  - { offset: 0xE03AC, size: 0x8, addend: 0x0, symName: '__ZN4core4iter6traits8iterator8Iterator4find5check28_$u7b$$u7b$closure$u7d$$u7d$17h4068b6b2d47e7b4bE', symObjAddr: 0x400, symBinAddr: 0x100063270, symSize: 0x70 }
  - { offset: 0xE0408, size: 0x8, addend: 0x0, symName: '__ZN4core4iter6traits8iterator8Iterator4find5check28_$u7b$$u7b$closure$u7d$$u7d$17h4b35e8e64549ad68E', symObjAddr: 0x470, symBinAddr: 0x1000632E0, symSize: 0x60 }
  - { offset: 0xE0464, size: 0x8, addend: 0x0, symName: '__ZN4core4iter6traits8iterator8Iterator4find5check28_$u7b$$u7b$closure$u7d$$u7d$17h4ed1f3006e1502c0E', symObjAddr: 0x4D0, symBinAddr: 0x100063340, symSize: 0x60 }
  - { offset: 0xE04C0, size: 0x8, addend: 0x0, symName: '__ZN4core4iter6traits8iterator8Iterator4find5check28_$u7b$$u7b$closure$u7d$$u7d$17h55d995d63466d0c3E', symObjAddr: 0x530, symBinAddr: 0x1000633A0, symSize: 0x60 }
  - { offset: 0xE051C, size: 0x8, addend: 0x0, symName: '__ZN4core4iter6traits8iterator8Iterator4find5check28_$u7b$$u7b$closure$u7d$$u7d$17h56c7186cbefe00a3E', symObjAddr: 0x590, symBinAddr: 0x100063400, symSize: 0x70 }
  - { offset: 0xE0578, size: 0x8, addend: 0x0, symName: '__ZN4core4iter6traits8iterator8Iterator4find5check28_$u7b$$u7b$closure$u7d$$u7d$17h77113868785cd9adE', symObjAddr: 0x600, symBinAddr: 0x100063470, symSize: 0x60 }
  - { offset: 0xE05D4, size: 0x8, addend: 0x0, symName: '__ZN4core4iter6traits8iterator8Iterator4find5check28_$u7b$$u7b$closure$u7d$$u7d$17h7cdcb350a48f4bd5E', symObjAddr: 0x660, symBinAddr: 0x1000634D0, symSize: 0x70 }
  - { offset: 0xE0630, size: 0x8, addend: 0x0, symName: '__ZN4core4iter6traits8iterator8Iterator4find5check28_$u7b$$u7b$closure$u7d$$u7d$17hb27511f9e45df817E', symObjAddr: 0x6D0, symBinAddr: 0x100063540, symSize: 0x60 }
  - { offset: 0xE068C, size: 0x8, addend: 0x0, symName: '__ZN4core4iter6traits8iterator8Iterator4find5check28_$u7b$$u7b$closure$u7d$$u7d$17hc81a634cc39c21fbE', symObjAddr: 0x730, symBinAddr: 0x1000635A0, symSize: 0x60 }
  - { offset: 0xE06E8, size: 0x8, addend: 0x0, symName: '__ZN4core4iter6traits8iterator8Iterator4find5check28_$u7b$$u7b$closure$u7d$$u7d$17hd8105dc3831d7902E', symObjAddr: 0x790, symBinAddr: 0x100063600, symSize: 0x70 }
  - { offset: 0xE0744, size: 0x8, addend: 0x0, symName: '__ZN4core4iter6traits8iterator8Iterator4find5check28_$u7b$$u7b$closure$u7d$$u7d$17hdb004ff646bc0255E', symObjAddr: 0x800, symBinAddr: 0x100063670, symSize: 0x70 }
  - { offset: 0xE07A0, size: 0x8, addend: 0x0, symName: '__ZN4core4iter6traits8iterator8Iterator4find5check28_$u7b$$u7b$closure$u7d$$u7d$17he952324c96a627a2E', symObjAddr: 0x870, symBinAddr: 0x1000636E0, symSize: 0x60 }
  - { offset: 0xE07FC, size: 0x8, addend: 0x0, symName: '__ZN4core4iter6traits8iterator8Iterator4find5check28_$u7b$$u7b$closure$u7d$$u7d$17hf07900d637414d10E', symObjAddr: 0x8D0, symBinAddr: 0x100063740, symSize: 0x70 }
  - { offset: 0xE0858, size: 0x8, addend: 0x0, symName: '__ZN4core4iter6traits8iterator8Iterator4find5check28_$u7b$$u7b$closure$u7d$$u7d$17hf1755b20ad18fab4E', symObjAddr: 0x940, symBinAddr: 0x1000637B0, symSize: 0x60 }
  - { offset: 0xE08B4, size: 0x8, addend: 0x0, symName: '__ZN4core4iter6traits8iterator8Iterator4find5check28_$u7b$$u7b$closure$u7d$$u7d$17hf7c2f64b19d765c8E', symObjAddr: 0x9A0, symBinAddr: 0x100063810, symSize: 0x70 }
  - { offset: 0xE098E, size: 0x8, addend: 0x0, symName: '__ZN4core4iter6traits8iterator8Iterator6min_by4fold28_$u7b$$u7b$closure$u7d$$u7d$17h3ea557ed6f2c158aE', symObjAddr: 0xA10, symBinAddr: 0x100063880, symSize: 0x40 }
  - { offset: 0xE09EE, size: 0x8, addend: 0x0, symName: '__ZN4core4iter6traits8iterator8Iterator6min_by4fold28_$u7b$$u7b$closure$u7d$$u7d$17h94b22310108aecc2E', symObjAddr: 0xA50, symBinAddr: 0x1000638C0, symSize: 0x50 }
  - { offset: 0xE0A5A, size: 0x8, addend: 0x0, symName: '__ZN4core4iter6traits8iterator8Iterator8find_map5check28_$u7b$$u7b$closure$u7d$$u7d$17h298735b55e86f857E', symObjAddr: 0xAA0, symBinAddr: 0x100063910, symSize: 0x70 }
  - { offset: 0xE0ADD, size: 0x8, addend: 0x0, symName: '__ZN4core4iter6traits8iterator8Iterator8find_map5check28_$u7b$$u7b$closure$u7d$$u7d$17h449a9a52641cb8acE', symObjAddr: 0xB10, symBinAddr: 0x100063980, symSize: 0x60 }
  - { offset: 0xE0B60, size: 0x8, addend: 0x0, symName: '__ZN4core4iter6traits8iterator8Iterator8find_map5check28_$u7b$$u7b$closure$u7d$$u7d$17h50ff01413efc3f2cE', symObjAddr: 0xB70, symBinAddr: 0x1000639E0, symSize: 0x90 }
  - { offset: 0xE0BE3, size: 0x8, addend: 0x0, symName: '__ZN4core4iter6traits8iterator8Iterator8find_map5check28_$u7b$$u7b$closure$u7d$$u7d$17hc1a46345d62065aeE', symObjAddr: 0xC00, symBinAddr: 0x100063A70, symSize: 0x60 }
  - { offset: 0xE0CAB, size: 0x8, addend: 0x0, symName: '__ZN4core4iter6traits8iterator8Iterator8for_each4call28_$u7b$$u7b$closure$u7d$$u7d$17h0d249c7b9e76d864E', symObjAddr: 0xC60, symBinAddr: 0x100063AD0, symSize: 0x40 }
  - { offset: 0xE0D04, size: 0x8, addend: 0x0, symName: '__ZN4core4iter6traits8iterator8Iterator8for_each4call28_$u7b$$u7b$closure$u7d$$u7d$17h2b11c95b027e71ebE', symObjAddr: 0xCA0, symBinAddr: 0x100063B10, symSize: 0x20 }
  - { offset: 0xE0D5C, size: 0x8, addend: 0x0, symName: '__ZN4core4iter6traits8iterator8Iterator8for_each4call28_$u7b$$u7b$closure$u7d$$u7d$17h3ea3f37c95225e71E', symObjAddr: 0xCC0, symBinAddr: 0x100063B30, symSize: 0x50 }
  - { offset: 0xE0DB5, size: 0x8, addend: 0x0, symName: '__ZN4core4iter6traits8iterator8Iterator8for_each4call28_$u7b$$u7b$closure$u7d$$u7d$17h4fae38e59a3ac6a3E', symObjAddr: 0xD10, symBinAddr: 0x100063B80, symSize: 0x50 }
  - { offset: 0xE0E0E, size: 0x8, addend: 0x0, symName: '__ZN4core4iter6traits8iterator8Iterator8for_each4call28_$u7b$$u7b$closure$u7d$$u7d$17h7f906a96f75e94c0E', symObjAddr: 0xD60, symBinAddr: 0x100063BD0, symSize: 0x40 }
  - { offset: 0xE0E67, size: 0x8, addend: 0x0, symName: '__ZN4core4iter6traits8iterator8Iterator8for_each4call28_$u7b$$u7b$closure$u7d$$u7d$17hba4fbdaccad28694E', symObjAddr: 0xDA0, symBinAddr: 0x100063C10, symSize: 0x20 }
  - { offset: 0xE0EBF, size: 0x8, addend: 0x0, symName: '__ZN4core4iter6traits8iterator8Iterator8for_each4call28_$u7b$$u7b$closure$u7d$$u7d$17hcbdccdced4b0a22cE', symObjAddr: 0xDC0, symBinAddr: 0x100063C30, symSize: 0x40 }
  - { offset: 0xE0F24, size: 0x8, addend: 0x0, symName: '__ZN4core4iter6traits8iterator8Iterator8position5check28_$u7b$$u7b$closure$u7d$$u7d$17h023ea0fd7eac061eE', symObjAddr: 0xE00, symBinAddr: 0x100063C70, symSize: 0xA0 }
  - { offset: 0xE0F93, size: 0x8, addend: 0x0, symName: '__ZN4core4iter6traits8iterator8Iterator8position5check28_$u7b$$u7b$closure$u7d$$u7d$17h1f727f378d99b92eE', symObjAddr: 0xEA0, symBinAddr: 0x100063D10, symSize: 0xA0 }
  - { offset: 0xE104F, size: 0x8, addend: 0x0, symName: '__ZN87_$LT$I$u20$as$u20$core..iter..traits..iterator..Iterator..advance_by..SpecAdvanceBy$GT$15spec_advance_by28_$u7b$$u7b$closure$u7d$$u7d$17ha5465d116875f591E', symObjAddr: 0xF40, symBinAddr: 0x100063DB0, symSize: 0x19 }
  - { offset: 0xE33B8, size: 0x8, addend: 0x0, symName: '__ZN121_$LT$quiche..recovery..gcongestion..bbr2..drain..Drain$u20$as$u20$quiche..recovery..gcongestion..bbr2..mode..ModeImpl$GT$24is_probing_for_bandwidth17hcf955f431a34737aE', symObjAddr: 0x0, symBinAddr: 0x100063DD0, symSize: 0x10 }
  - { offset: 0xE3764, size: 0x8, addend: 0x0, symName: '__ZN121_$LT$quiche..recovery..gcongestion..bbr2..drain..Drain$u20$as$u20$quiche..recovery..gcongestion..bbr2..mode..ModeImpl$GT$24is_probing_for_bandwidth17hcf955f431a34737aE', symObjAddr: 0x0, symBinAddr: 0x100063DD0, symSize: 0x10 }
  - { offset: 0xE3790, size: 0x8, addend: 0x0, symName: '__ZN121_$LT$quiche..recovery..gcongestion..bbr2..drain..Drain$u20$as$u20$quiche..recovery..gcongestion..bbr2..mode..ModeImpl$GT$19on_congestion_event17h6d2bd9738d6bc926E', symObjAddr: 0x10, symBinAddr: 0x100063DE0, symSize: 0x1E0 }
  - { offset: 0xE3855, size: 0x8, addend: 0x0, symName: '__ZN121_$LT$quiche..recovery..gcongestion..bbr2..drain..Drain$u20$as$u20$quiche..recovery..gcongestion..bbr2..mode..ModeImpl$GT$15get_cwnd_limits17h633ac995b46f7c88E', symObjAddr: 0x1F0, symBinAddr: 0x100063FC0, symSize: 0x20 }
  - { offset: 0xE388F, size: 0x8, addend: 0x0, symName: '__ZN121_$LT$quiche..recovery..gcongestion..bbr2..drain..Drain$u20$as$u20$quiche..recovery..gcongestion..bbr2..mode..ModeImpl$GT$18on_exit_quiescence17h97d44825141dfda1E', symObjAddr: 0x210, symBinAddr: 0x100063FE0, symSize: 0x50 }
  - { offset: 0xE38E6, size: 0x8, addend: 0x0, symName: '__ZN121_$LT$quiche..recovery..gcongestion..bbr2..drain..Drain$u20$as$u20$quiche..recovery..gcongestion..bbr2..mode..ModeImpl$GT$5enter17heee12ca33c979692E', symObjAddr: 0x260, symBinAddr: 0x100064030, symSize: 0x20 }
  - { offset: 0xE3930, size: 0x8, addend: 0x0, symName: '__ZN121_$LT$quiche..recovery..gcongestion..bbr2..drain..Drain$u20$as$u20$quiche..recovery..gcongestion..bbr2..mode..ModeImpl$GT$5leave17h46ec1622d68f40ebE', symObjAddr: 0x280, symBinAddr: 0x100064050, symSize: 0x20 }
  - { offset: 0xE39CE, size: 0x8, addend: 0x0, symName: '__ZN86_$LT$quiche..recovery..gcongestion..bbr2..drain..Drain$u20$as$u20$core..fmt..Debug$GT$3fmt17h01bc2aa50a3601b6E', symObjAddr: 0x440, symBinAddr: 0x100064210, symSize: 0x83 }
  - { offset: 0xE4922, size: 0x8, addend: 0x0, symName: __ZN6quiche8recovery11gcongestion4bbr25drain5Drain13into_probe_bw17h875edf9a95beeb4fE, symObjAddr: 0x2A0, symBinAddr: 0x100064070, symSize: 0x180 }
  - { offset: 0xE4993, size: 0x8, addend: 0x0, symName: __ZN6quiche8recovery11gcongestion4bbr25drain5Drain12drain_target17hb9a887c947263a8eE, symObjAddr: 0x420, symBinAddr: 0x1000641F0, symSize: 0x20 }
  - { offset: 0xE4AA4, size: 0x8, addend: 0x0, symName: '__ZN104_$LT$core..iter..adapters..cloned..Cloned$LT$I$GT$$u20$as$u20$core..iter..traits..iterator..Iterator$GT$4fold17hc52648b441ff11efE', symObjAddr: 0x0, symBinAddr: 0x1000642A0, symSize: 0xD0 }
  - { offset: 0xE4D11, size: 0x8, addend: 0x0, symName: '__ZN104_$LT$core..iter..adapters..cloned..Cloned$LT$I$GT$$u20$as$u20$core..iter..traits..iterator..Iterator$GT$4fold17hc52648b441ff11efE', symObjAddr: 0x0, symBinAddr: 0x1000642A0, symSize: 0xD0 }
  - { offset: 0xE4DCE, size: 0x8, addend: 0x0, symName: '__ZN104_$LT$core..iter..adapters..cloned..Cloned$LT$I$GT$$u20$as$u20$core..iter..traits..iterator..Iterator$GT$4fold17he1c4f2c4d2c08ba9E', symObjAddr: 0xD0, symBinAddr: 0x100064370, symSize: 0x120 }
  - { offset: 0xE4E8D, size: 0x8, addend: 0x0, symName: '__ZN104_$LT$core..iter..adapters..cloned..Cloned$LT$I$GT$$u20$as$u20$core..iter..traits..iterator..Iterator$GT$4next17h528c2b4bac1fd6e8E', symObjAddr: 0x1F0, symBinAddr: 0x100064490, symSize: 0xB0 }
  - { offset: 0xE4EFF, size: 0x8, addend: 0x0, symName: '__ZN104_$LT$core..iter..adapters..cloned..Cloned$LT$I$GT$$u20$as$u20$core..iter..traits..iterator..Iterator$GT$4next17ha27325e2c1b29466E', symObjAddr: 0x2A0, symBinAddr: 0x100064540, symSize: 0x80 }
  - { offset: 0xE4F70, size: 0x8, addend: 0x0, symName: '__ZN104_$LT$core..iter..adapters..cloned..Cloned$LT$I$GT$$u20$as$u20$core..iter..traits..iterator..Iterator$GT$4next17ha3d587c7ba689d0bE', symObjAddr: 0x320, symBinAddr: 0x1000645C0, symSize: 0xB0 }
  - { offset: 0xE4FE2, size: 0x8, addend: 0x0, symName: '__ZN104_$LT$core..iter..adapters..cloned..Cloned$LT$I$GT$$u20$as$u20$core..iter..traits..iterator..Iterator$GT$9size_hint17h74eac3275b8e2364E', symObjAddr: 0x3D0, symBinAddr: 0x100064670, symSize: 0x30 }
  - { offset: 0xE5020, size: 0x8, addend: 0x0, symName: '__ZN104_$LT$core..iter..adapters..cloned..Cloned$LT$I$GT$$u20$as$u20$core..iter..traits..iterator..Iterator$GT$9size_hint17h81f181e551b1e067E', symObjAddr: 0x400, symBinAddr: 0x1000646A0, symSize: 0x30 }
  - { offset: 0xE505E, size: 0x8, addend: 0x0, symName: '__ZN104_$LT$core..iter..adapters..cloned..Cloned$LT$I$GT$$u20$as$u20$core..iter..traits..iterator..Iterator$GT$9size_hint17he5ca281075461ba8E', symObjAddr: 0x430, symBinAddr: 0x1000646D0, symSize: 0x30 }
  - { offset: 0xE509C, size: 0x8, addend: 0x0, symName: '__ZN104_$LT$core..iter..adapters..cloned..Cloned$LT$I$GT$$u20$as$u20$core..iter..traits..iterator..Iterator$GT$9size_hint17heb105e969785c708E', symObjAddr: 0x460, symBinAddr: 0x100064700, symSize: 0x30 }
  - { offset: 0xE531F, size: 0x8, addend: 0x0, symName: __ZN4core4iter6traits8iterator8Iterator7collect17h23d41466f61602b7E, symObjAddr: 0x490, symBinAddr: 0x100064730, symSize: 0x50 }
  - { offset: 0xE53B4, size: 0x8, addend: 0x0, symName: __ZN4core4iter6traits8iterator8Iterator7collect17hc4f796c7c2d9b471E, symObjAddr: 0x4E0, symBinAddr: 0x100064780, symSize: 0x70 }
  - { offset: 0xE544A, size: 0x8, addend: 0x0, symName: __ZN4core4iter6traits8iterator8Iterator7collect17hd656a698ccae61b9E, symObjAddr: 0x550, symBinAddr: 0x1000647F0, symSize: 0x50 }
  - { offset: 0xE54DF, size: 0x8, addend: 0x0, symName: __ZN4core4iter6traits8iterator8Iterator8for_each17h26b4a11191416132E, symObjAddr: 0x5A0, symBinAddr: 0x100064840, symSize: 0x30 }
  - { offset: 0xE554A, size: 0x8, addend: 0x0, symName: __ZN4core4iter6traits8iterator8Iterator8for_each17h482e83728100a04dE, symObjAddr: 0x5D0, symBinAddr: 0x100064870, symSize: 0x40 }
  - { offset: 0xE55C0, size: 0x8, addend: 0x0, symName: '__ZN63_$LT$I$u20$as$u20$core..iter..traits..collect..IntoIterator$GT$9into_iter17h45ee6f5d7724e1eeE', symObjAddr: 0x610, symBinAddr: 0x1000648B0, symSize: 0x30 }
  - { offset: 0xE55F7, size: 0x8, addend: 0x0, symName: '__ZN63_$LT$I$u20$as$u20$core..iter..traits..collect..IntoIterator$GT$9into_iter17h9eaccdffd663279aE', symObjAddr: 0x640, symBinAddr: 0x1000648E0, symSize: 0x30 }
  - { offset: 0xE562F, size: 0x8, addend: 0x0, symName: '__ZN63_$LT$I$u20$as$u20$core..iter..traits..collect..IntoIterator$GT$9into_iter17ha3c5a2e420d4174eE', symObjAddr: 0x670, symBinAddr: 0x100064910, symSize: 0x20 }
  - { offset: 0xE5666, size: 0x8, addend: 0x0, symName: '__ZN63_$LT$I$u20$as$u20$core..iter..traits..collect..IntoIterator$GT$9into_iter17he2e8348300f69214E', symObjAddr: 0x690, symBinAddr: 0x100064930, symSize: 0x14 }
  - { offset: 0xE7512, size: 0x8, addend: 0x0, symName: __ZN6quiche8recovery10congestion8recovery13RecoveryEpoch31detect_and_remove_acked_packets17hedfa52f0758001e7E, symObjAddr: 0x0, symBinAddr: 0x100064950, symSize: 0x890 }
  - { offset: 0xE7DC4, size: 0x8, addend: 0x0, symName: '__ZN104_$LT$quiche..recovery..congestion..recovery..LegacyRecovery$u20$as$u20$quiche..recovery..RecoveryOps$GT$17should_elicit_ack17hceb57bfdcfd5688aE', symObjAddr: 0x2140, symBinAddr: 0x100066A90, symSize: 0x60 }
  - { offset: 0xE7E01, size: 0x8, addend: 0x0, symName: '__ZN104_$LT$quiche..recovery..congestion..recovery..LegacyRecovery$u20$as$u20$quiche..recovery..RecoveryOps$GT$16get_acked_frames17h6209679e69df6f2cE', symObjAddr: 0x21A0, symBinAddr: 0x100066AF0, symSize: 0x50 }
  - { offset: 0xE7E3E, size: 0x8, addend: 0x0, symName: '__ZN104_$LT$quiche..recovery..congestion..recovery..LegacyRecovery$u20$as$u20$quiche..recovery..RecoveryOps$GT$15get_lost_frames17h69f3ca3429aaee17E', symObjAddr: 0x21F0, symBinAddr: 0x100066B40, symSize: 0x50 }
  - { offset: 0xE7E7B, size: 0x8, addend: 0x0, symName: '__ZN104_$LT$quiche..recovery..congestion..recovery..LegacyRecovery$u20$as$u20$quiche..recovery..RecoveryOps$GT$26get_largest_acked_on_epoch17h71d09ec6616bc6fdE', symObjAddr: 0x2240, symBinAddr: 0x100066B90, symSize: 0x40 }
  - { offset: 0xE7EB8, size: 0x8, addend: 0x0, symName: '__ZN104_$LT$quiche..recovery..congestion..recovery..LegacyRecovery$u20$as$u20$quiche..recovery..RecoveryOps$GT$15has_lost_frames17h193fc5913bfe2d59E', symObjAddr: 0x2280, symBinAddr: 0x100066BD0, symSize: 0x40 }
  - { offset: 0xE7EF5, size: 0x8, addend: 0x0, symName: '__ZN104_$LT$quiche..recovery..congestion..recovery..LegacyRecovery$u20$as$u20$quiche..recovery..RecoveryOps$GT$11loss_probes17hae91e52f57510f1aE', symObjAddr: 0x22C0, symBinAddr: 0x100066C10, symSize: 0x30 }
  - { offset: 0xE7F32, size: 0x8, addend: 0x0, symName: '__ZN104_$LT$quiche..recovery..congestion..recovery..LegacyRecovery$u20$as$u20$quiche..recovery..RecoveryOps$GT$9ping_sent17hec42b50d1d7ec1b0E', symObjAddr: 0x22F0, symBinAddr: 0x100066C40, symSize: 0x80 }
  - { offset: 0xE7F91, size: 0x8, addend: 0x0, symName: '__ZN104_$LT$quiche..recovery..congestion..recovery..LegacyRecovery$u20$as$u20$quiche..recovery..RecoveryOps$GT$14on_packet_sent17hc6dc7272e4329dabE', symObjAddr: 0x2370, symBinAddr: 0x100066CC0, symSize: 0x5C0 }
  - { offset: 0xE80B8, size: 0x8, addend: 0x0, symName: '__ZN104_$LT$quiche..recovery..congestion..recovery..LegacyRecovery$u20$as$u20$quiche..recovery..RecoveryOps$GT$20get_packet_send_time17h55c222d4c08adf51E', symObjAddr: 0x2930, symBinAddr: 0x100067280, symSize: 0x30 }
  - { offset: 0xE80F5, size: 0x8, addend: 0x0, symName: '__ZN104_$LT$quiche..recovery..congestion..recovery..LegacyRecovery$u20$as$u20$quiche..recovery..RecoveryOps$GT$15on_ack_received17hb6a511066cdb6c6aE', symObjAddr: 0x2960, symBinAddr: 0x1000672B0, symSize: 0x750 }
  - { offset: 0xE82BF, size: 0x8, addend: 0x0, symName: '__ZN104_$LT$quiche..recovery..congestion..recovery..LegacyRecovery$u20$as$u20$quiche..recovery..RecoveryOps$GT$25on_loss_detection_timeout17hd851d3e8353d3abeE', symObjAddr: 0x30B0, symBinAddr: 0x100067A00, symSize: 0x6A0 }
  - { offset: 0xE84D7, size: 0x8, addend: 0x0, symName: '__ZN104_$LT$quiche..recovery..congestion..recovery..LegacyRecovery$u20$as$u20$quiche..recovery..RecoveryOps$GT$26on_pkt_num_space_discarded17hc29ea28d7d4bc83cE', symObjAddr: 0x3750, symBinAddr: 0x1000680A0, symSize: 0x1B0 }
  - { offset: 0xE856B, size: 0x8, addend: 0x0, symName: '__ZN104_$LT$quiche..recovery..congestion..recovery..LegacyRecovery$u20$as$u20$quiche..recovery..RecoveryOps$GT$14on_path_change17ha2f9e177e7dd995dE', symObjAddr: 0x3900, symBinAddr: 0x100068250, symSize: 0x30 }
  - { offset: 0xE85C6, size: 0x8, addend: 0x0, symName: '__ZN104_$LT$quiche..recovery..congestion..recovery..LegacyRecovery$u20$as$u20$quiche..recovery..RecoveryOps$GT$20loss_detection_timer17h51a18f8daf6d2a5cE', symObjAddr: 0x3930, symBinAddr: 0x100068280, symSize: 0x20 }
  - { offset: 0xE85F4, size: 0x8, addend: 0x0, symName: '__ZN104_$LT$quiche..recovery..congestion..recovery..LegacyRecovery$u20$as$u20$quiche..recovery..RecoveryOps$GT$4cwnd17h551aa54a6d2af12fE', symObjAddr: 0x3950, symBinAddr: 0x1000682A0, symSize: 0x20 }
  - { offset: 0xE8622, size: 0x8, addend: 0x0, symName: '__ZN104_$LT$quiche..recovery..congestion..recovery..LegacyRecovery$u20$as$u20$quiche..recovery..RecoveryOps$GT$14cwnd_available17h480d481ac4778d4eE', symObjAddr: 0x3970, symBinAddr: 0x1000682C0, symSize: 0xB0 }
  - { offset: 0xE8676, size: 0x8, addend: 0x0, symName: '__ZN104_$LT$quiche..recovery..congestion..recovery..LegacyRecovery$u20$as$u20$quiche..recovery..RecoveryOps$GT$3rtt17h0b8e5038ba9a40e2E', symObjAddr: 0x3A20, symBinAddr: 0x100068370, symSize: 0x20 }
  - { offset: 0xE86A4, size: 0x8, addend: 0x0, symName: '__ZN104_$LT$quiche..recovery..congestion..recovery..LegacyRecovery$u20$as$u20$quiche..recovery..RecoveryOps$GT$7min_rtt17h70b54cbbe61354c4E', symObjAddr: 0x3A40, symBinAddr: 0x100068390, symSize: 0x20 }
  - { offset: 0xE86D2, size: 0x8, addend: 0x0, symName: '__ZN104_$LT$quiche..recovery..congestion..recovery..LegacyRecovery$u20$as$u20$quiche..recovery..RecoveryOps$GT$7max_rtt17h798e646b90d5f647E', symObjAddr: 0x3A60, symBinAddr: 0x1000683B0, symSize: 0x20 }
  - { offset: 0xE8700, size: 0x8, addend: 0x0, symName: '__ZN104_$LT$quiche..recovery..congestion..recovery..LegacyRecovery$u20$as$u20$quiche..recovery..RecoveryOps$GT$6rttvar17hd317566c3a384815E', symObjAddr: 0x3A80, symBinAddr: 0x1000683D0, symSize: 0x20 }
  - { offset: 0xE872E, size: 0x8, addend: 0x0, symName: '__ZN104_$LT$quiche..recovery..congestion..recovery..LegacyRecovery$u20$as$u20$quiche..recovery..RecoveryOps$GT$3pto17h6e580477c53800fcE', symObjAddr: 0x3AA0, symBinAddr: 0x1000683F0, symSize: 0x70 }
  - { offset: 0xE875C, size: 0x8, addend: 0x0, symName: '__ZN104_$LT$quiche..recovery..congestion..recovery..LegacyRecovery$u20$as$u20$quiche..recovery..RecoveryOps$GT$13delivery_rate17hbf11b78c56a99e86E', symObjAddr: 0x3B10, symBinAddr: 0x100068460, symSize: 0x20 }
  - { offset: 0xE878A, size: 0x8, addend: 0x0, symName: '__ZN104_$LT$quiche..recovery..congestion..recovery..LegacyRecovery$u20$as$u20$quiche..recovery..RecoveryOps$GT$13max_bandwidth17h0b358bc34589edadE', symObjAddr: 0x3B30, symBinAddr: 0x100068480, symSize: 0x20 }
  - { offset: 0xE87B8, size: 0x8, addend: 0x0, symName: '__ZN104_$LT$quiche..recovery..congestion..recovery..LegacyRecovery$u20$as$u20$quiche..recovery..RecoveryOps$GT$12startup_exit17h4ddeaca2d8dcaeebE', symObjAddr: 0x3B50, symBinAddr: 0x1000684A0, symSize: 0x30 }
  - { offset: 0xE87E6, size: 0x8, addend: 0x0, symName: '__ZN104_$LT$quiche..recovery..congestion..recovery..LegacyRecovery$u20$as$u20$quiche..recovery..RecoveryOps$GT$17max_datagram_size17h770953b958efbe3eE', symObjAddr: 0x3B80, symBinAddr: 0x1000684D0, symSize: 0x20 }
  - { offset: 0xE8814, size: 0x8, addend: 0x0, symName: '__ZN104_$LT$quiche..recovery..congestion..recovery..LegacyRecovery$u20$as$u20$quiche..recovery..RecoveryOps$GT$30pmtud_update_max_datagram_size17h131c403b288a11f5E', symObjAddr: 0x3BA0, symBinAddr: 0x1000684F0, symSize: 0x180 }
  - { offset: 0xE884D, size: 0x8, addend: 0x0, symName: '__ZN104_$LT$quiche..recovery..congestion..recovery..LegacyRecovery$u20$as$u20$quiche..recovery..RecoveryOps$GT$24update_max_datagram_size17h2c4c8a7f17fd43aaE', symObjAddr: 0x3D20, symBinAddr: 0x100068670, symSize: 0x40 }
  - { offset: 0xE8886, size: 0x8, addend: 0x0, symName: '__ZN104_$LT$quiche..recovery..congestion..recovery..LegacyRecovery$u20$as$u20$quiche..recovery..RecoveryOps$GT$24bytes_in_flight_duration17hd9b7f1a94923b674E', symObjAddr: 0x3D60, symBinAddr: 0x1000686B0, symSize: 0x20 }
  - { offset: 0xE88B4, size: 0x8, addend: 0x0, symName: '__ZN104_$LT$quiche..recovery..congestion..recovery..LegacyRecovery$u20$as$u20$quiche..recovery..RecoveryOps$GT$14on_app_limited17h8c1b1a618867735fE', symObjAddr: 0x3D80, symBinAddr: 0x1000686D0, symSize: 0x10 }
  - { offset: 0xE88DE, size: 0x8, addend: 0x0, symName: '__ZN104_$LT$quiche..recovery..congestion..recovery..LegacyRecovery$u20$as$u20$quiche..recovery..RecoveryOps$GT$18update_app_limited17hab5a29cf3f08d2e7E', symObjAddr: 0x3D90, symBinAddr: 0x1000686E0, symSize: 0x30 }
  - { offset: 0xE8917, size: 0x8, addend: 0x0, symName: '__ZN104_$LT$quiche..recovery..congestion..recovery..LegacyRecovery$u20$as$u20$quiche..recovery..RecoveryOps$GT$32delivery_rate_update_app_limited17h907afe00f56549d7E', symObjAddr: 0x3DC0, symBinAddr: 0x100068710, symSize: 0x40 }
  - { offset: 0xE8950, size: 0x8, addend: 0x0, symName: '__ZN104_$LT$quiche..recovery..congestion..recovery..LegacyRecovery$u20$as$u20$quiche..recovery..RecoveryOps$GT$20update_max_ack_delay17h5a479b5aa03f469dE', symObjAddr: 0x3E00, symBinAddr: 0x100068750, symSize: 0x20 }
  - { offset: 0xE8989, size: 0x8, addend: 0x0, symName: '__ZN104_$LT$quiche..recovery..congestion..recovery..LegacyRecovery$u20$as$u20$quiche..recovery..RecoveryOps$GT$12send_quantum17h2d0b76de51c39f06E', symObjAddr: 0x3E20, symBinAddr: 0x100068770, symSize: 0x20 }
  - { offset: 0xE89B7, size: 0x8, addend: 0x0, symName: '__ZN104_$LT$quiche..recovery..congestion..recovery..LegacyRecovery$u20$as$u20$quiche..recovery..RecoveryOps$GT$21get_next_release_time17h9c43f208ec924916E', symObjAddr: 0x3E40, symBinAddr: 0x100068790, symSize: 0xA0 }
  - { offset: 0xE8A22, size: 0x8, addend: 0x0, symName: '__ZN104_$LT$quiche..recovery..congestion..recovery..LegacyRecovery$u20$as$u20$quiche..recovery..RecoveryOps$GT$19gcongestion_enabled17h73417e89613a1990E', symObjAddr: 0x3EE0, symBinAddr: 0x100068830, symSize: 0x10 }
  - { offset: 0xE8A50, size: 0x8, addend: 0x0, symName: '__ZN104_$LT$quiche..recovery..congestion..recovery..LegacyRecovery$u20$as$u20$quiche..recovery..RecoveryOps$GT$10lost_count17ha715c0b83e32a6c1E', symObjAddr: 0x3EF0, symBinAddr: 0x100068840, symSize: 0x20 }
  - { offset: 0xE8A7E, size: 0x8, addend: 0x0, symName: '__ZN104_$LT$quiche..recovery..congestion..recovery..LegacyRecovery$u20$as$u20$quiche..recovery..RecoveryOps$GT$10bytes_lost17h1cb846872d346140E', symObjAddr: 0x3F10, symBinAddr: 0x100068860, symSize: 0x20 }
  - { offset: 0xE8ABF, size: 0x8, addend: 0x0, symName: '__ZN91_$LT$quiche..recovery..congestion..recovery..LegacyRecovery$u20$as$u20$core..fmt..Debug$GT$3fmt17h6c101be53fe6403cE', symObjAddr: 0x3F30, symBinAddr: 0x100068880, symSize: 0x880 }
  - { offset: 0xE8E39, size: 0x8, addend: 0x0, symName: '__ZN96_$LT$quiche..recovery..congestion..recovery..RecoveryEpoch$u20$as$u20$core..default..Default$GT$7default17hb17a0eb4c18f52faE', symObjAddr: 0x47B0, symBinAddr: 0x100069100, symSize: 0x15A }
  - { offset: 0xEBC0E, size: 0x8, addend: 0x0, symName: __ZN6quiche8recovery10congestion8recovery13RecoveryEpoch31detect_and_remove_acked_packets17hedfa52f0758001e7E, symObjAddr: 0x0, symBinAddr: 0x100064950, symSize: 0x890 }
  - { offset: 0xEBE63, size: 0x8, addend: 0x0, symName: __ZN6quiche8recovery10congestion8recovery13RecoveryEpoch19detect_lost_packets17hfcafd00c10e06ab2E, symObjAddr: 0x890, symBinAddr: 0x1000651E0, symSize: 0x920 }
  - { offset: 0xEC067, size: 0x8, addend: 0x0, symName: __ZN6quiche8recovery10congestion8recovery13RecoveryEpoch28drain_acked_and_lost_packets17h8d6ae8e3cecc7d10E, symObjAddr: 0x11B0, symBinAddr: 0x100065B00, symSize: 0x120 }
  - { offset: 0xEC260, size: 0x8, addend: 0x0, symName: __ZN6quiche8recovery10congestion8recovery14LegacyRecovery15new_with_config17h8ede625cb01d095eE, symObjAddr: 0x12D0, symBinAddr: 0x100065C20, symSize: 0x220 }
  - { offset: 0xEC2AE, size: 0x8, addend: 0x0, symName: __ZN6quiche8recovery10congestion8recovery14LegacyRecovery19loss_time_and_space17h7f84aef6cb879f06E, symObjAddr: 0x14F0, symBinAddr: 0x100065E40, symSize: 0x1E0 }
  - { offset: 0xEC34A, size: 0x8, addend: 0x0, symName: __ZN6quiche8recovery10congestion8recovery14LegacyRecovery18pto_time_and_space17h8990e1016326dfdaE, symObjAddr: 0x16D0, symBinAddr: 0x100066020, symSize: 0x480 }
  - { offset: 0xEC441, size: 0x8, addend: 0x0, symName: __ZN6quiche8recovery10congestion8recovery14LegacyRecovery24set_loss_detection_timer17haacac032aa136026E, symObjAddr: 0x1B50, symBinAddr: 0x1000664A0, symSize: 0x190 }
  - { offset: 0xEC4EC, size: 0x8, addend: 0x0, symName: __ZN6quiche8recovery10congestion8recovery14LegacyRecovery19detect_lost_packets17h2072f6242342c84dE, symObjAddr: 0x1CE0, symBinAddr: 0x100066630, symSize: 0x460 }
  - { offset: 0xEC7EC, size: 0x8, addend: 0x0, symName: '__ZN42_$LT$$RF$T$u20$as$u20$core..fmt..Debug$GT$3fmt17h4bded64569450f8fE', symObjAddr: 0x0, symBinAddr: 0x100069260, symSize: 0x20 }
  - { offset: 0xEC910, size: 0x8, addend: 0x0, symName: '__ZN42_$LT$$RF$T$u20$as$u20$core..fmt..Debug$GT$3fmt17h4bded64569450f8fE', symObjAddr: 0x0, symBinAddr: 0x100069260, symSize: 0x20 }
  - { offset: 0xEC956, size: 0x8, addend: 0x0, symName: '__ZN42_$LT$$RF$T$u20$as$u20$core..fmt..Debug$GT$3fmt17hae2dc6cf94c0b418E', symObjAddr: 0x20, symBinAddr: 0x100069280, symSize: 0x20 }
  - { offset: 0xEC9FE, size: 0x8, addend: 0x0, symName: __ZN4core3cmp9PartialEq2ne17hbd173d774a9a036cE, symObjAddr: 0x40, symBinAddr: 0x1000692A0, symSize: 0x20 }
  - { offset: 0xECBF4, size: 0x8, addend: 0x0, symName: '__ZN68_$LT$octets..BufferTooShortError$u20$as$u20$core..cmp..PartialEq$GT$2eq17hfe8f86046c33046bE', symObjAddr: 0x60, symBinAddr: 0x1000692C0, symSize: 0x12 }
  - { offset: 0xECDA0, size: 0x8, addend: 0x0, symName: __ZN9hashbrown3raw11TableLayout20calculate_layout_for17h1870e119b66ebf6fE, symObjAddr: 0x0, symBinAddr: 0x1000692E0, symSize: 0x2E0 }
  - { offset: 0xEE743, size: 0x8, addend: 0x0, symName: __ZN9hashbrown3raw19capacity_to_buckets17h0e28189b18d58cfdE, symObjAddr: 0x1650, symBinAddr: 0x10006A930, symSize: 0x26E }
  - { offset: 0xEEBDB, size: 0x8, addend: 0x0, symName: __ZN9hashbrown3raw11TableLayout20calculate_layout_for17h1870e119b66ebf6fE, symObjAddr: 0x0, symBinAddr: 0x1000692E0, symSize: 0x2E0 }
  - { offset: 0xEF1A9, size: 0x8, addend: 0x0, symName: __ZN9hashbrown3raw13RawTableInner15fix_insert_slot17h28b4b6dfda98f432E, symObjAddr: 0x2E0, symBinAddr: 0x1000695C0, symSize: 0x140 }
  - { offset: 0xEF5B0, size: 0x8, addend: 0x0, symName: __ZN9hashbrown3raw13RawTableInner15rehash_in_place17h47bd0e223dd9d799E, symObjAddr: 0x420, symBinAddr: 0x100069700, symSize: 0x5B0 }
  - { offset: 0xEFD85, size: 0x8, addend: 0x0, symName: __ZN9hashbrown3raw13RawTableInner16find_insert_slot17ha9b724a91a2c0601E, symObjAddr: 0x9D0, symBinAddr: 0x100069CB0, symSize: 0x140 }
  - { offset: 0xEFF83, size: 0x8, addend: 0x0, symName: __ZN9hashbrown3raw13RawTableInner19prepare_insert_slot17h854fbd9c61a64954E, symObjAddr: 0xB10, symBinAddr: 0x100069DF0, symSize: 0x60 }
  - { offset: 0xF0274, size: 0x8, addend: 0x0, symName: __ZN9hashbrown3raw13RawTableInner23prepare_rehash_in_place17h87307298c816d063E, symObjAddr: 0xB70, symBinAddr: 0x100069E50, symSize: 0x340 }
  - { offset: 0xF0994, size: 0x8, addend: 0x0, symName: __ZN9hashbrown3raw13RawTableInner25find_insert_slot_in_group17h6c0761cf2869a318E, symObjAddr: 0xEB0, symBinAddr: 0x10006A190, symSize: 0x160 }
  - { offset: 0xF0CE3, size: 0x8, addend: 0x0, symName: __ZN9hashbrown3raw13RawTableInner30find_or_find_insert_slot_inner17h8bce723023c1050dE, symObjAddr: 0x1010, symBinAddr: 0x10006A2F0, symSize: 0x410 }
  - { offset: 0xF11AD, size: 0x8, addend: 0x0, symName: __ZN9hashbrown3raw13RawTableInner5erase17hae1836dd4eec8fabE, symObjAddr: 0x1420, symBinAddr: 0x10006A700, symSize: 0x230 }
  - { offset: 0xF14D9, size: 0x8, addend: 0x0, symName: '__ZN6quiche8recovery10congestion4bbr2117_$LT$impl$u20$core..convert..From$LT$quiche..recovery..congestion..bbr2..BBR2StateMachine$GT$$u20$for$u20$$RF$str$GT$4from17hfd3408681c76867cE', symObjAddr: 0x0, symBinAddr: 0x10006ABA0, symSize: 0xE0 }
  - { offset: 0xF1507, size: 0x8, addend: 0x0, symName: __ZN6quiche8recovery10congestion4bbr24BBR217he7260a214ea9d1c0E, symObjAddr: 0x1408, symBinAddr: 0x100470158, symSize: 0x0 }
  - { offset: 0xF186E, size: 0x8, addend: 0x0, symName: '__ZN6quiche8recovery10congestion4bbr2117_$LT$impl$u20$core..convert..From$LT$quiche..recovery..congestion..bbr2..BBR2StateMachine$GT$$u20$for$u20$$RF$str$GT$4from17hfd3408681c76867cE', symObjAddr: 0x0, symBinAddr: 0x10006ABA0, symSize: 0xE0 }
  - { offset: 0xF189B, size: 0x8, addend: 0x0, symName: __ZN6quiche8recovery10congestion4bbr219bbr2_enter_recovery17h4b8342fbf98de4fbE, symObjAddr: 0x3F0, symBinAddr: 0x10006AF90, symSize: 0xD0 }
  - { offset: 0xF18E3, size: 0x8, addend: 0x0, symName: __ZN6quiche8recovery10congestion4bbr218bbr2_exit_recovery17h7b07712db6b34fcfE, symObjAddr: 0x4C0, symBinAddr: 0x10006B060, symSize: 0x40 }
  - { offset: 0xF190D, size: 0x8, addend: 0x0, symName: __ZN6quiche8recovery10congestion4bbr27on_init17h3b25ba822aaccc44E, symObjAddr: 0x500, symBinAddr: 0x10006B0A0, symSize: 0x20 }
  - { offset: 0xF1937, size: 0x8, addend: 0x0, symName: __ZN6quiche8recovery10congestion4bbr214on_packet_sent17h694085b6f17587c7E, symObjAddr: 0x520, symBinAddr: 0x10006B0C0, symSize: 0x50 }
  - { offset: 0xF198E, size: 0x8, addend: 0x0, symName: __ZN6quiche8recovery10congestion4bbr216on_packets_acked17hf9b93c0978cf9f69E, symObjAddr: 0x570, symBinAddr: 0x10006B110, symSize: 0x2C0 }
  - { offset: 0xF1A68, size: 0x8, addend: 0x0, symName: __ZN6quiche8recovery10congestion4bbr216congestion_event17h00388fa233108032E, symObjAddr: 0x830, symBinAddr: 0x10006B3D0, symSize: 0xD0 }
  - { offset: 0xF1ACE, size: 0x8, addend: 0x0, symName: __ZN6quiche8recovery10congestion4bbr210checkpoint17hd98df2b1121530d9E, symObjAddr: 0x900, symBinAddr: 0x10006B4A0, symSize: 0x10 }
  - { offset: 0xF1AF8, size: 0x8, addend: 0x0, symName: __ZN6quiche8recovery10congestion4bbr28rollback17hf8dd751019eb6c49E, symObjAddr: 0x910, symBinAddr: 0x10006B4B0, symSize: 0x10 }
  - { offset: 0xF1B26, size: 0x8, addend: 0x0, symName: __ZN6quiche8recovery10congestion4bbr217has_custom_pacing17h122f8993deeb7e2dE, symObjAddr: 0x920, symBinAddr: 0x10006B4C0, symSize: 0x10 }
  - { offset: 0xF1B44, size: 0x8, addend: 0x0, symName: __ZN6quiche8recovery10congestion4bbr29rate_kbps17h03aabbbbd25a655fE, symObjAddr: 0x930, symBinAddr: 0x10006B4D0, symSize: 0x70 }
  - { offset: 0xF1B72, size: 0x8, addend: 0x0, symName: __ZN6quiche8recovery10congestion4bbr29debug_fmt17hde6255f3fbd0f86bE, symObjAddr: 0x9A0, symBinAddr: 0x10006B540, symSize: 0x810 }
  - { offset: 0xF1DBC, size: 0x8, addend: 0x0, symName: '__ZN89_$LT$quiche..recovery..congestion..bbr2..BBR2StateMachine$u20$as$u20$core..fmt..Debug$GT$3fmt17h82b38a05df0ce73cE', symObjAddr: 0x11B0, symBinAddr: 0x10006BD50, symSize: 0x100 }
  - { offset: 0xF1DFC, size: 0x8, addend: 0x0, symName: '__ZN93_$LT$quiche..recovery..congestion..bbr2..BBR2StateMachine$u20$as$u20$core..cmp..PartialEq$GT$2eq17h3be48096c0c335d4E', symObjAddr: 0x12B0, symBinAddr: 0x10006BE50, symSize: 0x30 }
  - { offset: 0xF1E76, size: 0x8, addend: 0x0, symName: '__ZN85_$LT$quiche..recovery..congestion..bbr2..BBR2AckPhase$u20$as$u20$core..fmt..Debug$GT$3fmt17h0ea1d96344110719E', symObjAddr: 0x12E0, symBinAddr: 0x10006BE80, symSize: 0xD0 }
  - { offset: 0xF1EB6, size: 0x8, addend: 0x0, symName: '__ZN89_$LT$quiche..recovery..congestion..bbr2..BBR2AckPhase$u20$as$u20$core..cmp..PartialEq$GT$2eq17h58cf8070add833cdE', symObjAddr: 0x13B0, symBinAddr: 0x10006BF50, symSize: 0x24 }
  - { offset: 0xF3E9D, size: 0x8, addend: 0x0, symName: __ZN6quiche8recovery10congestion4bbr25State3new17h8deee4a94edd1269E, symObjAddr: 0xE0, symBinAddr: 0x10006AC80, symSize: 0x310 }
  - { offset: 0xF4110, size: 0x8, addend: 0x0, symName: '__ZN100_$LT$core..iter..adapters..take..Take$LT$I$GT$$u20$as$u20$core..iter..traits..iterator..Iterator$GT$4next17h52e65d1a81d75c29E', symObjAddr: 0x0, symBinAddr: 0x10006BF80, symSize: 0x50 }
  - { offset: 0xF4136, size: 0x8, addend: 0x0, symName: '__ZN100_$LT$core..iter..adapters..take..Take$LT$I$GT$$u20$as$u20$core..iter..traits..iterator..Iterator$GT$4next17h52e65d1a81d75c29E', symObjAddr: 0x0, symBinAddr: 0x10006BF80, symSize: 0x50 }
  - { offset: 0xF41DE, size: 0x8, addend: 0x0, symName: '__ZN100_$LT$core..iter..adapters..take..Take$LT$I$GT$$u20$as$u20$core..iter..traits..iterator..Iterator$GT$8try_fold5check28_$u7b$$u7b$closure$u7d$$u7d$17hb95deece5f52af78E', symObjAddr: 0x190, symBinAddr: 0x10006C110, symSize: 0xC0 }
  - { offset: 0xF42B6, size: 0x8, addend: 0x0, symName: '__ZN100_$LT$core..iter..adapters..take..Take$LT$I$GT$$u20$as$u20$core..iter..traits..iterator..Iterator$GT$8try_fold17hc9322f7180828726E', symObjAddr: 0x50, symBinAddr: 0x10006BFD0, symSize: 0x140 }
  - { offset: 0xF43A1, size: 0x8, addend: 0x0, symName: '__ZN100_$LT$core..iter..adapters..take..Take$LT$I$GT$$u20$as$u20$core..iter..traits..iterator..Iterator$GT$9size_hint17hf1bc602861310455E', symObjAddr: 0x250, symBinAddr: 0x10006C1D0, symSize: 0x110 }
  - { offset: 0xF46B5, size: 0x8, addend: 0x0, symName: __ZN4core4iter6traits8iterator8Iterator4fuse17ha524e631f21e07dfE, symObjAddr: 0x360, symBinAddr: 0x10006C2E0, symSize: 0x40 }
  - { offset: 0xF4702, size: 0x8, addend: 0x0, symName: __ZN4core4iter6traits8iterator8Iterator7flatten17h4438669500e7d2a6E, symObjAddr: 0x3A0, symBinAddr: 0x10006C320, symSize: 0x90 }
  - { offset: 0xF4785, size: 0x8, addend: 0x0, symName: '__ZN63_$LT$I$u20$as$u20$core..iter..traits..collect..IntoIterator$GT$9into_iter17hc0ba335e45ce2aa0E', symObjAddr: 0x430, symBinAddr: 0x10006C3B0, symSize: 0x23 }
  - { offset: 0xF60D5, size: 0x8, addend: 0x0, symName: '__ZN3std3f6421_$LT$impl$u20$f64$GT$4ceil17h4df0b62938bf2475E', symObjAddr: 0x0, symBinAddr: 0x10006C3E0, symSize: 0x20 }
  - { offset: 0xF62A0, size: 0x8, addend: 0x0, symName: '__ZN4core3str21_$LT$impl$u20$str$GT$5parse17he53fb7910284f3f7E', symObjAddr: 0x90, symBinAddr: 0x10006C470, symSize: 0x30 }
  - { offset: 0xF6308, size: 0x8, addend: 0x0, symName: '__ZN65_$LT$u8$u20$as$u20$core..ops..bit..BitXorAssign$LT$$RF$u8$GT$$GT$13bitxor_assign17h0235d9c6846c98f6E', symObjAddr: 0xC0, symBinAddr: 0x10006C4A0, symSize: 0x14 }
  - { offset: 0xF6401, size: 0x8, addend: 0x0, symName: '__ZN3std3f6421_$LT$impl$u20$f64$GT$4ceil17h4df0b62938bf2475E', symObjAddr: 0x0, symBinAddr: 0x10006C3E0, symSize: 0x20 }
  - { offset: 0xF644A, size: 0x8, addend: 0x0, symName: '__ZN3std3f6421_$LT$impl$u20$f64$GT$4powi17hd0fa24dd924949f6E', symObjAddr: 0x20, symBinAddr: 0x10006C400, symSize: 0x30 }
  - { offset: 0xF64AD, size: 0x8, addend: 0x0, symName: '__ZN3std3f6421_$LT$impl$u20$f64$GT$5round17h556d1f8ff2cd2914E', symObjAddr: 0x50, symBinAddr: 0x10006C430, symSize: 0x40 }
  - { offset: 0xF6595, size: 0x8, addend: 0x0, symName: '__ZN3log13__private_api70_$LT$impl$u20$log..__private_api..sealed..KVs$u20$for$u20$$LP$$RP$$GT$8into_kvs17h13e9da7c4e04027eE', symObjAddr: 0x0, symBinAddr: 0x10006C4C0, symSize: 0x20 }
  - { offset: 0xF660D, size: 0x8, addend: 0x0, symName: '__ZN3log13__private_api70_$LT$impl$u20$log..__private_api..sealed..KVs$u20$for$u20$$LP$$RP$$GT$8into_kvs17h13e9da7c4e04027eE', symObjAddr: 0x0, symBinAddr: 0x10006C4C0, symSize: 0x20 }
  - { offset: 0xF6656, size: 0x8, addend: 0x0, symName: '__ZN42_$LT$$RF$T$u20$as$u20$core..fmt..Debug$GT$3fmt17h82178a0baff217fbE', symObjAddr: 0x20, symBinAddr: 0x10006C4E0, symSize: 0x20 }
  - { offset: 0xF669C, size: 0x8, addend: 0x0, symName: '__ZN42_$LT$$RF$T$u20$as$u20$core..fmt..Debug$GT$3fmt17hbbcc1e91aad55bfeE', symObjAddr: 0x40, symBinAddr: 0x10006C500, symSize: 0x20 }
  - { offset: 0xF6744, size: 0x8, addend: 0x0, symName: __ZN4core3cmp9PartialEq2ne17h070d277ed2330e59E, symObjAddr: 0x60, symBinAddr: 0x10006C520, symSize: 0x1F }
  - { offset: 0xF6A5C, size: 0x8, addend: 0x0, symName: __ZN6quiche2h35qpack7decoder14Representation9from_byte17hf206fb25c62eee21E, symObjAddr: 0x0, symBinAddr: 0x10006C540, symSize: 0x60 }
  - { offset: 0xF6B64, size: 0x8, addend: 0x0, symName: __ZN6quiche2h35qpack7decoder13lookup_static17h3e817673f6119d8aE, symObjAddr: 0x1BB0, symBinAddr: 0x10006E0F0, symSize: 0x120 }
  - { offset: 0xF6B90, size: 0x8, addend: 0x0, symName: __ZN6quiche2h35qpack7decoder10decode_int17hf6a4df6d5f337917E, symObjAddr: 0x1CD0, symBinAddr: 0x10006E210, symSize: 0x2F0 }
  - { offset: 0xF6CF3, size: 0x8, addend: 0x0, symName: __ZN6quiche2h35qpack7decoder10decode_str17h0a7965d2fc7530ddE, symObjAddr: 0x1FC0, symBinAddr: 0x10006E500, symSize: 0x2D0 }
  - { offset: 0xF6E47, size: 0x8, addend: 0x0, symName: '__ZN78_$LT$quiche..h3..qpack..decoder..Decoder$u20$as$u20$core..default..Default$GT$7default17h55a5341a6a63004fE', symObjAddr: 0x2290, symBinAddr: 0x10006E7D0, symSize: 0x6 }
  - { offset: 0xF6EB7, size: 0x8, addend: 0x0, symName: __ZN6quiche2h35qpack7decoder14Representation9from_byte17hf206fb25c62eee21E, symObjAddr: 0x0, symBinAddr: 0x10006C540, symSize: 0x60 }
  - { offset: 0xF6ED9, size: 0x8, addend: 0x0, symName: __ZN6quiche2h35qpack7decoder7Decoder3new17hebc730f29af4f06aE, symObjAddr: 0x60, symBinAddr: 0x10006C5A0, symSize: 0x10 }
  - { offset: 0xF7521, size: 0x8, addend: 0x0, symName: __ZN6quiche2h35qpack7decoder7Decoder7control17h02564c7bcaecfdf1E, symObjAddr: 0x70, symBinAddr: 0x10006C5B0, symSize: 0x20 }
  - { offset: 0xF769E, size: 0x8, addend: 0x0, symName: __ZN6quiche2h35qpack7decoder7Decoder6decode17h074786bad2c6f727E, symObjAddr: 0x90, symBinAddr: 0x10006C5D0, symSize: 0x1B20 }
  - { offset: 0xF7F6F, size: 0x8, addend: 0x0, symName: '__ZN153_$LT$intrusive_collections..pointer_ops..DefaultPointerOps$LT$alloc..sync..Arc$LT$T$GT$$GT$$u20$as$u20$intrusive_collections..pointer_ops..PointerOps$GT$8from_raw17hfb84be18fd3cc123E', symObjAddr: 0x0, symBinAddr: 0x10006E7E0, symSize: 0x30 }
  - { offset: 0xF7F8B, size: 0x8, addend: 0x0, symName: '__ZN153_$LT$intrusive_collections..pointer_ops..DefaultPointerOps$LT$alloc..sync..Arc$LT$T$GT$$GT$$u20$as$u20$intrusive_collections..pointer_ops..PointerOps$GT$8from_raw17hfb84be18fd3cc123E', symObjAddr: 0x0, symBinAddr: 0x10006E7E0, symSize: 0x30 }
  - { offset: 0xF7FCE, size: 0x8, addend: 0x0, symName: '__ZN153_$LT$intrusive_collections..pointer_ops..DefaultPointerOps$LT$alloc..sync..Arc$LT$T$GT$$GT$$u20$as$u20$intrusive_collections..pointer_ops..PointerOps$GT$8into_raw17hc22693e089a39071E', symObjAddr: 0x30, symBinAddr: 0x10006E810, symSize: 0x30 }
  - { offset: 0xF8012, size: 0x8, addend: 0x0, symName: __ZN21intrusive_collections11pointer_ops22clone_pointer_from_raw17hdd7a67d656ac8d9eE, symObjAddr: 0x60, symBinAddr: 0x10006E840, symSize: 0x7C }
  - { offset: 0xF8437, size: 0x8, addend: 0x0, symName: __ZN4core9ub_checks23maybe_is_nonoverlapping7runtime17h34a7f907513833ceE, symObjAddr: 0x0, symBinAddr: 0x10006E8C0, symSize: 0xBD }
  - { offset: 0xF85BC, size: 0x8, addend: 0x0, symName: __ZN4core9ub_checks23maybe_is_nonoverlapping7runtime17h34a7f907513833ceE, symObjAddr: 0x0, symBinAddr: 0x10006E8C0, symSize: 0xBD }
  - { offset: 0xF87CC, size: 0x8, addend: 0x0, symName: __ZN6quiche8recovery18LossDetectionTimer6update17h776f48b0bfa3e79bE, symObjAddr: 0x0, symBinAddr: 0x10006E980, symSize: 0x30 }
  - { offset: 0xFB318, size: 0x8, addend: 0x0, symName: '__ZN73_$LT$quiche..recovery..LossDetectionTimer$u20$as$u20$core..fmt..Debug$GT$3fmt17h66e86d66f0905b77E', symObjAddr: 0x50, symBinAddr: 0x10006E9D0, symSize: 0x170 }
  - { offset: 0xFB753, size: 0x8, addend: 0x0, symName: '__ZN91_$LT$quiche..recovery..CongestionControlAlgorithm$u20$as$u20$core..str..traits..FromStr$GT$8from_str17hdd25464a6a6fa138E', symObjAddr: 0x4C0, symBinAddr: 0x10006EE40, symSize: 0x170 }
  - { offset: 0xFB787, size: 0x8, addend: 0x0, symName: '__ZN59_$LT$quiche..recovery..Sent$u20$as$u20$core..fmt..Debug$GT$3fmt17h64ec194ded8c5870E', symObjAddr: 0x630, symBinAddr: 0x10006EFB0, symSize: 0x670 }
  - { offset: 0xFBAA5, size: 0x8, addend: 0x0, symName: '__ZN79_$LT$quiche..recovery..LossDetectionTimer$u20$as$u20$core..default..Default$GT$7default17h558e970b7b25aa89E', symObjAddr: 0xF10, symBinAddr: 0x10006F890, symSize: 0x10 }
  - { offset: 0xFBAC8, size: 0x8, addend: 0x0, symName: '__ZN73_$LT$quiche..recovery..RecoveryConfig$u20$as$u20$core..cmp..PartialEq$GT$2eq17hd59fa52473c1b872E', symObjAddr: 0xF20, symBinAddr: 0x10006F8A0, symSize: 0x160 }
  - { offset: 0xFBB08, size: 0x8, addend: 0x0, symName: '__ZN81_$LT$quiche..recovery..OnAckReceivedOutcome$u20$as$u20$core..default..Default$GT$7default17h7e16c05613080771E', symObjAddr: 0x1080, symBinAddr: 0x10006FA00, symSize: 0x30 }
  - { offset: 0xFBB2B, size: 0x8, addend: 0x0, symName: '__ZN128_$LT$quiche..recovery..Recovery$u20$as$u20$core..convert..From$LT$quiche..recovery..congestion..recovery..LegacyRecovery$GT$$GT$4from17hb80b2a8b57360c0eE', symObjAddr: 0x10B0, symBinAddr: 0x10006FA30, symSize: 0x30 }
  - { offset: 0xFBB5E, size: 0x8, addend: 0x0, symName: '__ZN124_$LT$quiche..recovery..Recovery$u20$as$u20$core..convert..From$LT$quiche..recovery..gcongestion..recovery..GRecovery$GT$$GT$4from17hb60f8f1ba834edd7E', symObjAddr: 0x10E0, symBinAddr: 0x10006FA60, symSize: 0x40 }
  - { offset: 0xFBB91, size: 0x8, addend: 0x0, symName: '__ZN131_$LT$quiche..recovery..Recovery$u20$as$u20$core..convert..TryInto$LT$quiche..recovery..congestion..recovery..LegacyRecovery$GT$$GT$8try_into17hfa8dae070a370fd9E', symObjAddr: 0x1120, symBinAddr: 0x10006FAA0, symSize: 0xE0 }
  - { offset: 0xFBC00, size: 0x8, addend: 0x0, symName: '__ZN127_$LT$quiche..recovery..Recovery$u20$as$u20$core..convert..TryInto$LT$quiche..recovery..gcongestion..recovery..GRecovery$GT$$GT$8try_into17h467ec8364cb88afeE', symObjAddr: 0x1200, symBinAddr: 0x10006FB80, symSize: 0xE0 }
  - { offset: 0xFBC6F, size: 0x8, addend: 0x0, symName: '__ZN76_$LT$quiche..recovery..Recovery$u20$as$u20$quiche..recovery..RecoveryOps$GT$10lost_count17h87701a7daccbabb0E', symObjAddr: 0x12E0, symBinAddr: 0x10006FC60, symSize: 0x60 }
  - { offset: 0xFBCD5, size: 0x8, addend: 0x0, symName: '__ZN76_$LT$quiche..recovery..Recovery$u20$as$u20$quiche..recovery..RecoveryOps$GT$10bytes_lost17h04cd6c970fd6e54eE', symObjAddr: 0x1340, symBinAddr: 0x10006FCC0, symSize: 0x60 }
  - { offset: 0xFBD3B, size: 0x8, addend: 0x0, symName: '__ZN76_$LT$quiche..recovery..Recovery$u20$as$u20$quiche..recovery..RecoveryOps$GT$17should_elicit_ack17h67787961910c0092E', symObjAddr: 0x13A0, symBinAddr: 0x10006FD20, symSize: 0x80 }
  - { offset: 0xFBDAF, size: 0x8, addend: 0x0, symName: '__ZN76_$LT$quiche..recovery..Recovery$u20$as$u20$quiche..recovery..RecoveryOps$GT$16get_acked_frames17h33263e4f8942758fE', symObjAddr: 0x1420, symBinAddr: 0x10006FDA0, symSize: 0x80 }
  - { offset: 0xFBE23, size: 0x8, addend: 0x0, symName: '__ZN76_$LT$quiche..recovery..Recovery$u20$as$u20$quiche..recovery..RecoveryOps$GT$15get_lost_frames17h79b1ab6f74c5f74aE', symObjAddr: 0x14A0, symBinAddr: 0x10006FE20, symSize: 0x80 }
  - { offset: 0xFBE97, size: 0x8, addend: 0x0, symName: '__ZN76_$LT$quiche..recovery..Recovery$u20$as$u20$quiche..recovery..RecoveryOps$GT$26get_largest_acked_on_epoch17h1bd8a8b22072262eE', symObjAddr: 0x1520, symBinAddr: 0x10006FEA0, symSize: 0x80 }
  - { offset: 0xFBF0B, size: 0x8, addend: 0x0, symName: '__ZN76_$LT$quiche..recovery..Recovery$u20$as$u20$quiche..recovery..RecoveryOps$GT$15has_lost_frames17hc08c5b601c7f8414E', symObjAddr: 0x15A0, symBinAddr: 0x10006FF20, symSize: 0x80 }
  - { offset: 0xFBF7F, size: 0x8, addend: 0x0, symName: '__ZN76_$LT$quiche..recovery..Recovery$u20$as$u20$quiche..recovery..RecoveryOps$GT$11loss_probes17h4011df5164a6a1abE', symObjAddr: 0x1620, symBinAddr: 0x10006FFA0, symSize: 0x70 }
  - { offset: 0xFBFF3, size: 0x8, addend: 0x0, symName: '__ZN76_$LT$quiche..recovery..Recovery$u20$as$u20$quiche..recovery..RecoveryOps$GT$9ping_sent17h87cc3b5bbbfe9128E', symObjAddr: 0x1690, symBinAddr: 0x100070010, symSize: 0x70 }
  - { offset: 0xFC063, size: 0x8, addend: 0x0, symName: '__ZN76_$LT$quiche..recovery..Recovery$u20$as$u20$quiche..recovery..RecoveryOps$GT$14on_packet_sent17h08cc2f4c025a1af9E', symObjAddr: 0x1700, symBinAddr: 0x100070080, symSize: 0x160 }
  - { offset: 0xFC110, size: 0x8, addend: 0x0, symName: '__ZN76_$LT$quiche..recovery..Recovery$u20$as$u20$quiche..recovery..RecoveryOps$GT$20get_packet_send_time17hd887ba386232ebd7E', symObjAddr: 0x1860, symBinAddr: 0x1000701E0, symSize: 0x80 }
  - { offset: 0xFC184, size: 0x8, addend: 0x0, symName: '__ZN76_$LT$quiche..recovery..Recovery$u20$as$u20$quiche..recovery..RecoveryOps$GT$15on_ack_received17hbe4ea4f86aab0720E', symObjAddr: 0x18E0, symBinAddr: 0x100070260, symSize: 0x290 }
  - { offset: 0xFC254, size: 0x8, addend: 0x0, symName: '__ZN76_$LT$quiche..recovery..Recovery$u20$as$u20$quiche..recovery..RecoveryOps$GT$25on_loss_detection_timeout17h156f270d6ca96b68E', symObjAddr: 0x1B70, symBinAddr: 0x1000704F0, symSize: 0x120 }
  - { offset: 0xFC2E6, size: 0x8, addend: 0x0, symName: '__ZN76_$LT$quiche..recovery..Recovery$u20$as$u20$quiche..recovery..RecoveryOps$GT$26on_pkt_num_space_discarded17hdb11868d1ac84686E', symObjAddr: 0x1C90, symBinAddr: 0x100070610, symSize: 0xF0 }
  - { offset: 0xFC373, size: 0x8, addend: 0x0, symName: '__ZN76_$LT$quiche..recovery..Recovery$u20$as$u20$quiche..recovery..RecoveryOps$GT$14on_path_change17h07acba535831650fE', symObjAddr: 0x1D80, symBinAddr: 0x100070700, symSize: 0xC0 }
  - { offset: 0xFC403, size: 0x8, addend: 0x0, symName: '__ZN76_$LT$quiche..recovery..Recovery$u20$as$u20$quiche..recovery..RecoveryOps$GT$20loss_detection_timer17hc0e74c7483ada2c9E', symObjAddr: 0x1E40, symBinAddr: 0x1000707C0, symSize: 0x70 }
  - { offset: 0xFC469, size: 0x8, addend: 0x0, symName: '__ZN76_$LT$quiche..recovery..Recovery$u20$as$u20$quiche..recovery..RecoveryOps$GT$4cwnd17h1e910622a5c88857E', symObjAddr: 0x1EB0, symBinAddr: 0x100070830, symSize: 0x60 }
  - { offset: 0xFC4CF, size: 0x8, addend: 0x0, symName: '__ZN76_$LT$quiche..recovery..Recovery$u20$as$u20$quiche..recovery..RecoveryOps$GT$14cwnd_available17hf53f61b1ff0dbfabE', symObjAddr: 0x1F10, symBinAddr: 0x100070890, symSize: 0x60 }
  - { offset: 0xFC535, size: 0x8, addend: 0x0, symName: '__ZN76_$LT$quiche..recovery..Recovery$u20$as$u20$quiche..recovery..RecoveryOps$GT$3rtt17hdde85c0bb293d904E', symObjAddr: 0x1F70, symBinAddr: 0x1000708F0, symSize: 0x70 }
  - { offset: 0xFC59B, size: 0x8, addend: 0x0, symName: '__ZN76_$LT$quiche..recovery..Recovery$u20$as$u20$quiche..recovery..RecoveryOps$GT$7min_rtt17h921d49f2e30b595cE', symObjAddr: 0x1FE0, symBinAddr: 0x100070960, symSize: 0x70 }
  - { offset: 0xFC601, size: 0x8, addend: 0x0, symName: '__ZN76_$LT$quiche..recovery..Recovery$u20$as$u20$quiche..recovery..RecoveryOps$GT$7max_rtt17he0ebcc9e497fa3a4E', symObjAddr: 0x2050, symBinAddr: 0x1000709D0, symSize: 0x70 }
  - { offset: 0xFC667, size: 0x8, addend: 0x0, symName: '__ZN76_$LT$quiche..recovery..Recovery$u20$as$u20$quiche..recovery..RecoveryOps$GT$6rttvar17h670dec885a684fd3E', symObjAddr: 0x20C0, symBinAddr: 0x100070A40, symSize: 0x70 }
  - { offset: 0xFC6CD, size: 0x8, addend: 0x0, symName: '__ZN76_$LT$quiche..recovery..Recovery$u20$as$u20$quiche..recovery..RecoveryOps$GT$3pto17h95cd7df5a7362593E', symObjAddr: 0x2130, symBinAddr: 0x100070AB0, symSize: 0x70 }
  - { offset: 0xFC733, size: 0x8, addend: 0x0, symName: '__ZN76_$LT$quiche..recovery..Recovery$u20$as$u20$quiche..recovery..RecoveryOps$GT$13delivery_rate17hae6f124609621323E', symObjAddr: 0x21A0, symBinAddr: 0x100070B20, symSize: 0x60 }
  - { offset: 0xFC799, size: 0x8, addend: 0x0, symName: '__ZN76_$LT$quiche..recovery..Recovery$u20$as$u20$quiche..recovery..RecoveryOps$GT$13max_bandwidth17h39e21498d442bbdaE', symObjAddr: 0x2200, symBinAddr: 0x100070B80, symSize: 0x70 }
  - { offset: 0xFC7FF, size: 0x8, addend: 0x0, symName: '__ZN76_$LT$quiche..recovery..Recovery$u20$as$u20$quiche..recovery..RecoveryOps$GT$12startup_exit17h951e6b5412b48228E', symObjAddr: 0x2270, symBinAddr: 0x100070BF0, symSize: 0x70 }
  - { offset: 0xFC865, size: 0x8, addend: 0x0, symName: '__ZN76_$LT$quiche..recovery..Recovery$u20$as$u20$quiche..recovery..RecoveryOps$GT$17max_datagram_size17h8cb9ce552323f384E', symObjAddr: 0x22E0, symBinAddr: 0x100070C60, symSize: 0x60 }
  - { offset: 0xFC8CB, size: 0x8, addend: 0x0, symName: '__ZN76_$LT$quiche..recovery..Recovery$u20$as$u20$quiche..recovery..RecoveryOps$GT$30pmtud_update_max_datagram_size17h873b015cf9339928E', symObjAddr: 0x2340, symBinAddr: 0x100070CC0, symSize: 0x60 }
  - { offset: 0xFC93B, size: 0x8, addend: 0x0, symName: '__ZN76_$LT$quiche..recovery..Recovery$u20$as$u20$quiche..recovery..RecoveryOps$GT$24update_max_datagram_size17h935901c7b2fbfd33E', symObjAddr: 0x23A0, symBinAddr: 0x100070D20, symSize: 0x60 }
  - { offset: 0xFC9AB, size: 0x8, addend: 0x0, symName: '__ZN76_$LT$quiche..recovery..Recovery$u20$as$u20$quiche..recovery..RecoveryOps$GT$14on_app_limited17hbf975c41405bfc59E', symObjAddr: 0x2400, symBinAddr: 0x100070D80, symSize: 0x50 }
  - { offset: 0xFCA0D, size: 0x8, addend: 0x0, symName: '__ZN76_$LT$quiche..recovery..Recovery$u20$as$u20$quiche..recovery..RecoveryOps$GT$24bytes_in_flight_duration17h6ba5478a6edf608bE', symObjAddr: 0x2450, symBinAddr: 0x100070DD0, symSize: 0x70 }
  - { offset: 0xFCA74, size: 0x8, addend: 0x0, symName: '__ZN76_$LT$quiche..recovery..Recovery$u20$as$u20$quiche..recovery..RecoveryOps$GT$18update_app_limited17h0c29e9a7c86d6a15E', symObjAddr: 0x24C0, symBinAddr: 0x100070E40, symSize: 0x70 }
  - { offset: 0xFCAE6, size: 0x8, addend: 0x0, symName: '__ZN76_$LT$quiche..recovery..Recovery$u20$as$u20$quiche..recovery..RecoveryOps$GT$32delivery_rate_update_app_limited17h9232fb4611872f82E', symObjAddr: 0x2530, symBinAddr: 0x100070EB0, symSize: 0x70 }
  - { offset: 0xFCB58, size: 0x8, addend: 0x0, symName: '__ZN76_$LT$quiche..recovery..Recovery$u20$as$u20$quiche..recovery..RecoveryOps$GT$20update_max_ack_delay17h778bb1e10b186dddE', symObjAddr: 0x25A0, symBinAddr: 0x100070F20, symSize: 0x70 }
  - { offset: 0xFCBCA, size: 0x8, addend: 0x0, symName: '__ZN76_$LT$quiche..recovery..Recovery$u20$as$u20$quiche..recovery..RecoveryOps$GT$12send_quantum17h8ce3b715b0a4e080E', symObjAddr: 0x2610, symBinAddr: 0x100070F90, symSize: 0x60 }
  - { offset: 0xFCC31, size: 0x8, addend: 0x0, symName: '__ZN76_$LT$quiche..recovery..Recovery$u20$as$u20$quiche..recovery..RecoveryOps$GT$19gcongestion_enabled17h49ee8470ae2894a5E', symObjAddr: 0x2670, symBinAddr: 0x100070FF0, symSize: 0x60 }
  - { offset: 0xFCC9E, size: 0x8, addend: 0x0, symName: '__ZN85_$LT$quiche..recovery..CongestionControlAlgorithm$u20$as$u20$core..cmp..PartialEq$GT$2eq17h004f86585eb9ba57E', symObjAddr: 0x26D0, symBinAddr: 0x100071050, symSize: 0x30 }
  - { offset: 0xFCD1D, size: 0x8, addend: 0x0, symName: '__ZN61_$LT$quiche..recovery..Sent$u20$as$u20$core..clone..Clone$GT$5clone17he41dc01b4ddb049cE', symObjAddr: 0x2700, symBinAddr: 0x100071080, symSize: 0x330 }
  - { offset: 0xFCD51, size: 0x8, addend: 0x0, symName: '__ZN66_$LT$quiche..recovery..ReleaseTime$u20$as$u20$core..fmt..Debug$GT$3fmt17h531b231bf8e093d8E', symObjAddr: 0x2A30, symBinAddr: 0x1000713B0, symSize: 0x90 }
  - { offset: 0xFCDB2, size: 0x8, addend: 0x0, symName: '__ZN74_$LT$quiche..recovery..RecoveryStats$u20$as$u20$core..default..Default$GT$7default17he1f9b0bc679c1ef4E', symObjAddr: 0x2AC0, symBinAddr: 0x100071440, symSize: 0x46 }
  - { offset: 0xFDA97, size: 0x8, addend: 0x0, symName: __ZN6quiche8recovery18LossDetectionTimer6update17h776f48b0bfa3e79bE, symObjAddr: 0x0, symBinAddr: 0x10006E980, symSize: 0x30 }
  - { offset: 0xFDAC7, size: 0x8, addend: 0x0, symName: __ZN6quiche8recovery18LossDetectionTimer5clear17ha897855b3dc17959E, symObjAddr: 0x30, symBinAddr: 0x10006E9B0, symSize: 0x20 }
  - { offset: 0xFE225, size: 0x8, addend: 0x0, symName: __ZN6quiche8recovery14RecoveryConfig11from_config17hdea2f1e28ab29dbfE, symObjAddr: 0x1C0, symBinAddr: 0x10006EB40, symSize: 0x1A0 }
  - { offset: 0xFE633, size: 0x8, addend: 0x0, symName: __ZN6quiche8recovery8Recovery15new_with_config17h548b1872d0488c24E, symObjAddr: 0x360, symBinAddr: 0x10006ECE0, symSize: 0x160 }
  - { offset: 0xFE691, size: 0x8, addend: 0x0, symName: __ZN6quiche8recovery11ReleaseTime3inc17h20ff06fa97a4c1f0E, symObjAddr: 0xCA0, symBinAddr: 0x10006F620, symSize: 0x60 }
  - { offset: 0xFE6E1, size: 0x8, addend: 0x0, symName: __ZN6quiche8recovery11ReleaseTime7set_max17hfb89241b2a270f55E, symObjAddr: 0xD00, symBinAddr: 0x10006F680, symSize: 0xA0 }
  - { offset: 0xFE73E, size: 0x8, addend: 0x0, symName: __ZN6quiche8recovery15ReleaseDecision4time17h5c7dcd880d7aaccfE, symObjAddr: 0xDA0, symBinAddr: 0x10006F720, symSize: 0x80 }
  - { offset: 0xFE79B, size: 0x8, addend: 0x0, symName: __ZN6quiche8recovery13RecoveryStats16set_startup_exit17h345c1d2556288993E, symObjAddr: 0xE20, symBinAddr: 0x10006F7A0, symSize: 0x70 }
  - { offset: 0xFE7CE, size: 0x8, addend: 0x0, symName: __ZN6quiche8recovery11StartupExit3new17h077a91648952f053E, symObjAddr: 0xE90, symBinAddr: 0x10006F810, symSize: 0x80 }
  - { offset: 0xFE954, size: 0x8, addend: 0x0, symName: '__ZN42_$LT$$RF$T$u20$as$u20$core..fmt..Debug$GT$3fmt17h3e978323ed79ddc4E', symObjAddr: 0x0, symBinAddr: 0x100071490, symSize: 0x20 }
  - { offset: 0xFE970, size: 0x8, addend: 0x0, symName: '__ZN42_$LT$$RF$T$u20$as$u20$core..fmt..Debug$GT$3fmt17h3e978323ed79ddc4E', symObjAddr: 0x0, symBinAddr: 0x100071490, symSize: 0x20 }
  - { offset: 0xFE9BC, size: 0x8, addend: 0x0, symName: '__ZN50_$LT$$RF$mut$u20$T$u20$as$u20$core..fmt..Debug$GT$3fmt17h9599e6bf4ffbc8d7E', symObjAddr: 0xB0, symBinAddr: 0x100071540, symSize: 0x20 }
  - { offset: 0xFEA64, size: 0x8, addend: 0x0, symName: '__ZN4core5slice29_$LT$impl$u20$$u5b$T$u5d$$GT$4iter17h544f602e02c15897E', symObjAddr: 0x20, symBinAddr: 0x1000714B0, symSize: 0x20 }
  - { offset: 0xFEA9B, size: 0x8, addend: 0x0, symName: '__ZN4core5slice29_$LT$impl$u20$$u5b$T$u5d$$GT$8iter_mut17h23be5e779390ebecE', symObjAddr: 0x40, symBinAddr: 0x1000714D0, symSize: 0x20 }
  - { offset: 0xFEB58, size: 0x8, addend: 0x0, symName: '__ZN4core5slice4iter87_$LT$impl$u20$core..iter..traits..collect..IntoIterator$u20$for$u20$$RF$$u5b$T$u5d$$GT$9into_iter17hc984f745c8b5c4b0E', symObjAddr: 0x60, symBinAddr: 0x1000714F0, symSize: 0x50 }
  - { offset: 0xFF7BE, size: 0x8, addend: 0x0, symName: '__ZN6quiche5frame5Frame10from_bytes28_$u7b$$u7b$closure$u7d$$u7d$17h08f84ab0c0b37d1fE', symObjAddr: 0xE0, symBinAddr: 0x100071570, symSize: 0x20 }
  - { offset: 0xFF7F3, size: 0x8, addend: 0x0, symName: '__ZN6quiche5frame5Frame10from_bytes28_$u7b$$u7b$closure$u7d$$u7d$17hf27528d1fc7fd6ddE', symObjAddr: 0x100, symBinAddr: 0x100071590, symSize: 0x20 }
  - { offset: 0xFF828, size: 0x8, addend: 0x0, symName: '__ZN6quiche5frame5Frame10from_bytes28_$u7b$$u7b$closure$u7d$$u7d$17hd3c4a27b240e89a8E', symObjAddr: 0x120, symBinAddr: 0x1000715B0, symSize: 0x16 }
  - { offset: 0xFFC2D, size: 0x8, addend: 0x0, symName: '__ZN58_$LT$$u5b$T$u3b$$u20$1$u5d$$u20$as$u20$smallvec..Array$GT$4size17h9160f18a48376b9cE', symObjAddr: 0xD0, symBinAddr: 0x100071560, symSize: 0x10 }
  - { offset: 0x1001FD, size: 0x8, addend: 0x0, symName: '__ZN50_$LT$T$u20$as$u20$core..convert..Into$LT$U$GT$$GT$4into17hadfbaacfa6ab959fE', symObjAddr: 0x0, symBinAddr: 0x1000715D0, symSize: 0x20 }
  - { offset: 0x100219, size: 0x8, addend: 0x0, symName: '__ZN50_$LT$T$u20$as$u20$core..convert..Into$LT$U$GT$$GT$4into17hadfbaacfa6ab959fE', symObjAddr: 0x0, symBinAddr: 0x1000715D0, symSize: 0x20 }
  - { offset: 0x10025A, size: 0x8, addend: 0x0, symName: '__ZN50_$LT$T$u20$as$u20$core..convert..Into$LT$U$GT$$GT$4into17hc798839554dac804E', symObjAddr: 0x20, symBinAddr: 0x1000715F0, symSize: 0x20 }
  - { offset: 0x1002A0, size: 0x8, addend: 0x0, symName: '__ZN53_$LT$T$u20$as$u20$core..convert..TryInto$LT$U$GT$$GT$8try_into17h272eb73a2042cb7aE', symObjAddr: 0x40, symBinAddr: 0x100071610, symSize: 0x30 }
  - { offset: 0x1002E0, size: 0x8, addend: 0x0, symName: '__ZN53_$LT$T$u20$as$u20$core..convert..TryInto$LT$U$GT$$GT$8try_into17h58d6fee2d873bd08E', symObjAddr: 0x70, symBinAddr: 0x100071640, symSize: 0x30 }
  - { offset: 0x100320, size: 0x8, addend: 0x0, symName: '__ZN53_$LT$T$u20$as$u20$core..convert..TryInto$LT$U$GT$$GT$8try_into17h902324ec05c4cde1E', symObjAddr: 0xA0, symBinAddr: 0x100071670, symSize: 0x20 }
  - { offset: 0x100366, size: 0x8, addend: 0x0, symName: '__ZN55_$LT$$RF$T$u20$as$u20$core..convert..AsRef$LT$U$GT$$GT$6as_ref17h18592257a9f01050E', symObjAddr: 0xC0, symBinAddr: 0x100071690, symSize: 0x30 }
  - { offset: 0x1003A6, size: 0x8, addend: 0x0, symName: '__ZN55_$LT$$RF$T$u20$as$u20$core..convert..AsRef$LT$U$GT$$GT$6as_ref17h6119b3fe622e15e5E', symObjAddr: 0xF0, symBinAddr: 0x1000716C0, symSize: 0x19 }
  - { offset: 0x100B53, size: 0x8, addend: 0x0, symName: '__ZN4core5array8equality103_$LT$impl$u20$core..cmp..PartialEq$LT$$u5b$U$u3b$$u20$N$u5d$$GT$$u20$for$u20$$u5b$T$u3b$$u20$N$u5d$$GT$2eq17he8703a66b4ea2b03E', symObjAddr: 0x0, symBinAddr: 0x1000716E0, symSize: 0x20 }
  - { offset: 0x100B74, size: 0x8, addend: 0x0, symName: '__ZN4core5array8equality103_$LT$impl$u20$core..cmp..PartialEq$LT$$u5b$U$u3b$$u20$N$u5d$$GT$$u20$for$u20$$u5b$T$u3b$$u20$N$u5d$$GT$2eq17he8703a66b4ea2b03E', symObjAddr: 0x0, symBinAddr: 0x1000716E0, symSize: 0x20 }
  - { offset: 0x100BC6, size: 0x8, addend: 0x0, symName: '__ZN69_$LT$T$u20$as$u20$core..array..equality..SpecArrayEq$LT$U$C$_$GT$$GT$7spec_eq17h4883d8b8f7314c78E', symObjAddr: 0x80, symBinAddr: 0x100071760, symSize: 0x21 }
  - { offset: 0x100C1F, size: 0x8, addend: 0x0, symName: '__ZN51_$LT$T$u20$as$u20$core..borrow..Borrow$LT$T$GT$$GT$6borrow17hf32ab65a8b019143E', symObjAddr: 0x20, symBinAddr: 0x100071700, symSize: 0x10 }
  - { offset: 0x100C5A, size: 0x8, addend: 0x0, symName: '__ZN55_$LT$$RF$T$u20$as$u20$core..borrow..Borrow$LT$T$GT$$GT$6borrow17h21750166ce431581E', symObjAddr: 0x30, symBinAddr: 0x100071710, symSize: 0x20 }
  - { offset: 0x100F35, size: 0x8, addend: 0x0, symName: __ZN5alloc3ffi5c_str7CString3new17h4815035971bfe9ffE, symObjAddr: 0x50, symBinAddr: 0x100071730, symSize: 0x30 }
  - { offset: 0x100FDF, size: 0x8, addend: 0x0, symName: __ZN6quiche6packet5Epoch6epochs17habff17ffee28366bE, symObjAddr: 0x0, symBinAddr: 0x100071790, symSize: 0x80 }
  - { offset: 0x101003, size: 0x8, addend: 0x0, symName: __ZN6quiche6packet6EPOCHS17h0dc3353d3f3b09a0E, symObjAddr: 0x6430, symBinAddr: 0x1003C0068, symSize: 0x0 }
  - { offset: 0x1010B2, size: 0x8, addend: 0x0, symName: '__ZN60_$LT$quiche..packet..Epoch$u20$as$u20$core..fmt..Display$GT$3fmt17hb3a233853858e234E', symObjAddr: 0x90, symBinAddr: 0x100071820, symSize: 0x70 }
  - { offset: 0x10110F, size: 0x8, addend: 0x0, symName: '__ZN6quiche6packet84_$LT$impl$u20$core..convert..From$LT$quiche..packet..Epoch$GT$$u20$for$u20$usize$GT$4from17h6ea2076c4eb421f7E', symObjAddr: 0x100, symBinAddr: 0x100071890, symSize: 0x10 }
  - { offset: 0x1011F7, size: 0x8, addend: 0x0, symName: '__ZN71_$LT$quiche..packet..ConnectionId$u20$as$u20$core..default..Default$GT$7default17h4a0f00273be9b44cE', symObjAddr: 0x2E0, symBinAddr: 0x100071A70, symSize: 0x30 }
  - { offset: 0x10121A, size: 0x8, addend: 0x0, symName: '__ZN101_$LT$quiche..packet..ConnectionId$u20$as$u20$core..convert..From$LT$alloc..vec..Vec$LT$u8$GT$$GT$$GT$4from17h6b96acaf293136fcE', symObjAddr: 0x310, symBinAddr: 0x100071AA0, symSize: 0x20 }
  - { offset: 0x10124D, size: 0x8, addend: 0x0, symName: '__ZN69_$LT$quiche..packet..ConnectionId$u20$as$u20$core..cmp..PartialEq$GT$2eq17h114b1c4db68585afE', symObjAddr: 0x330, symBinAddr: 0x100071AC0, symSize: 0x50 }
  - { offset: 0x10128D, size: 0x8, addend: 0x0, symName: '__ZN89_$LT$quiche..packet..ConnectionId$u20$as$u20$core..convert..AsRef$LT$$u5b$u8$u5d$$GT$$GT$6as_ref17h5c2b59708d1fef32E', symObjAddr: 0x380, symBinAddr: 0x100071B10, symSize: 0x80 }
  - { offset: 0x1012F9, size: 0x8, addend: 0x0, symName: '__ZN72_$LT$quiche..packet..ConnectionId$u20$as$u20$core..ops..deref..Deref$GT$5deref17h28639322ff640327E', symObjAddr: 0x400, symBinAddr: 0x100071B90, symSize: 0x80 }
  - { offset: 0x101369, size: 0x8, addend: 0x0, symName: '__ZN67_$LT$quiche..packet..ConnectionId$u20$as$u20$core..clone..Clone$GT$5clone17h37fc71fe80b55520E', symObjAddr: 0x480, symBinAddr: 0x100071C10, symSize: 0x50 }
  - { offset: 0x10139D, size: 0x8, addend: 0x0, symName: '__ZN65_$LT$quiche..packet..ConnectionId$u20$as$u20$core..fmt..Debug$GT$3fmt17h72f035539e392577E', symObjAddr: 0x4D0, symBinAddr: 0x100071C60, symSize: 0x110 }
  - { offset: 0x101526, size: 0x8, addend: 0x0, symName: '__ZN59_$LT$quiche..packet..Header$u20$as$u20$core..fmt..Debug$GT$3fmt17hce9ce99ecb97a3d5E', symObjAddr: 0x1E10, symBinAddr: 0x1000735A0, symSize: 0x5E0 }
  - { offset: 0x101798, size: 0x8, addend: 0x0, symName: __ZN6quiche6packet11pkt_num_len17h04c4b1d07d20681eE, symObjAddr: 0x23F0, symBinAddr: 0x100073B80, symSize: 0xB0 }
  - { offset: 0x10184E, size: 0x8, addend: 0x0, symName: __ZN6quiche6packet11decrypt_hdr17ha2a06d5a1a995fb7E, symObjAddr: 0x24A0, symBinAddr: 0x100073C30, symSize: 0x920 }
  - { offset: 0x101BB2, size: 0x8, addend: 0x0, symName: __ZN6quiche6packet14decode_pkt_num17h047c182220b84946E, symObjAddr: 0x2DC0, symBinAddr: 0x100074550, symSize: 0x260 }
  - { offset: 0x101C83, size: 0x8, addend: 0x0, symName: __ZN6quiche6packet11decrypt_pkt17he0e0f7498003b243E, symObjAddr: 0x3020, symBinAddr: 0x1000747B0, symSize: 0x3F0 }
  - { offset: 0x101E50, size: 0x8, addend: 0x0, symName: __ZN6quiche6packet11encrypt_hdr17h47e707d2a1151193E, symObjAddr: 0x3410, symBinAddr: 0x100074BA0, symSize: 0x5C0 }
  - { offset: 0x10206D, size: 0x8, addend: 0x0, symName: __ZN6quiche6packet11encrypt_pkt17he1cf261ef1f37b7eE, symObjAddr: 0x39D0, symBinAddr: 0x100075160, symSize: 0x310 }
  - { offset: 0x102193, size: 0x8, addend: 0x0, symName: __ZN6quiche6packet14encode_pkt_num17h704e7dec5767be78E, symObjAddr: 0x3CE0, symBinAddr: 0x100075470, symSize: 0x2D0 }
  - { offset: 0x10225E, size: 0x8, addend: 0x0, symName: __ZN6quiche6packet17negotiate_version17h4e0052e0eb4dfdd5E, symObjAddr: 0x3FB0, symBinAddr: 0x100075740, symSize: 0x3A0 }
  - { offset: 0x1023C4, size: 0x8, addend: 0x0, symName: __ZN6quiche6packet5retry17hee433abd45824ac8E, symObjAddr: 0x4350, symBinAddr: 0x100075AE0, symSize: 0x580 }
  - { offset: 0x1024F0, size: 0x8, addend: 0x0, symName: __ZN6quiche6packet22verify_retry_integrity17he932529af95c0750E, symObjAddr: 0x48D0, symBinAddr: 0x100076060, symSize: 0x2C0 }
  - { offset: 0x102645, size: 0x8, addend: 0x0, symName: __ZN6quiche6packet27compute_retry_integrity_tag17hcbf16704deaad6b0E, symObjAddr: 0x4B90, symBinAddr: 0x100076320, symSize: 0x810 }
  - { offset: 0x102B62, size: 0x8, addend: 0x0, symName: '__ZN62_$LT$quiche..packet..Epoch$u20$as$u20$core..cmp..PartialEq$GT$2eq17hbc9d4c751c1f22b0E', symObjAddr: 0x60D0, symBinAddr: 0x100077860, symSize: 0x30 }
  - { offset: 0x102BDC, size: 0x8, addend: 0x0, symName: '__ZN57_$LT$quiche..packet..Type$u20$as$u20$core..fmt..Debug$GT$3fmt17h9c6838b166e31717E', symObjAddr: 0x6100, symBinAddr: 0x100077890, symSize: 0xE0 }
  - { offset: 0x102C1C, size: 0x8, addend: 0x0, symName: '__ZN61_$LT$quiche..packet..Type$u20$as$u20$core..cmp..PartialEq$GT$2eq17h50a6f191b17eeff2E', symObjAddr: 0x61E0, symBinAddr: 0x100077970, symSize: 0x30 }
  - { offset: 0x102C96, size: 0x8, addend: 0x0, symName: '__ZN71_$LT$quiche..packet..PktNumWindow$u20$as$u20$core..default..Default$GT$7default17ha74ea733a5da3bccE', symObjAddr: 0x6210, symBinAddr: 0x1000779A0, symSize: 0x20 }
  - { offset: 0x104FB6, size: 0x8, addend: 0x0, symName: __ZN6quiche6packet5Epoch6epochs17habff17ffee28366bE, symObjAddr: 0x0, symBinAddr: 0x100071790, symSize: 0x80 }
  - { offset: 0x104FD8, size: 0x8, addend: 0x0, symName: __ZN6quiche6packet5Epoch5count17hf32f17a9d743058eE, symObjAddr: 0x80, symBinAddr: 0x100071810, symSize: 0x10 }
  - { offset: 0x104FEB, size: 0x8, addend: 0x0, symName: __ZN6quiche6packet4Type10from_epoch17hdeffddb82b009349E, symObjAddr: 0x110, symBinAddr: 0x1000718A0, symSize: 0x40 }
  - { offset: 0x105014, size: 0x8, addend: 0x0, symName: __ZN6quiche6packet4Type8to_epoch17h3810601dec2a9754E, symObjAddr: 0x150, symBinAddr: 0x1000718E0, symSize: 0xD0 }
  - { offset: 0x10558C, size: 0x8, addend: 0x0, symName: __ZN6quiche6packet12ConnectionId8from_vec17h833729ec54afecabE, symObjAddr: 0x220, symBinAddr: 0x1000719B0, symSize: 0x40 }
  - { offset: 0x1055AE, size: 0x8, addend: 0x0, symName: __ZN6quiche6packet12ConnectionId8from_ref17h9cf229a8fd33a445E, symObjAddr: 0x260, symBinAddr: 0x1000719F0, symSize: 0x40 }
  - { offset: 0x1055D0, size: 0x8, addend: 0x0, symName: __ZN6quiche6packet12ConnectionId10into_owned17h2d42d1b1b51de919E, symObjAddr: 0x2A0, symBinAddr: 0x100071A30, symSize: 0x40 }
  - { offset: 0x105618, size: 0x8, addend: 0x0, symName: __ZN6quiche6packet6Header10from_slice17ha01122cf05c1d23fE, symObjAddr: 0x5E0, symBinAddr: 0x100071D70, symSize: 0x50 }
  - { offset: 0x1056C5, size: 0x8, addend: 0x0, symName: __ZN6quiche6packet6Header10from_bytes17h8f34cdbb82726db1E, symObjAddr: 0x630, symBinAddr: 0x100071DC0, symSize: 0x1020 }
  - { offset: 0x105A2D, size: 0x8, addend: 0x0, symName: __ZN6quiche6packet6Header8to_bytes17hd2ff5c0cb06ae4d7E, symObjAddr: 0x1650, symBinAddr: 0x100072DE0, symSize: 0x7A0 }
  - { offset: 0x105C5E, size: 0x8, addend: 0x0, symName: __ZN6quiche6packet6Header7is_long17hab2627bc20be6e15E, symObjAddr: 0x1DF0, symBinAddr: 0x100073580, symSize: 0x20 }
  - { offset: 0x105E80, size: 0x8, addend: 0x0, symName: __ZN6quiche6packet11PktNumSpace3new17h16db9ffcd2c1072fE, symObjAddr: 0x53A0, symBinAddr: 0x100076B30, symSize: 0x130 }
  - { offset: 0x105EA0, size: 0x8, addend: 0x0, symName: __ZN6quiche6packet11PktNumSpace5clear17h81a01c8d674a90eeE, symObjAddr: 0x54D0, symBinAddr: 0x100076C60, symSize: 0x20 }
  - { offset: 0x105ED0, size: 0x8, addend: 0x0, symName: __ZN6quiche6packet11PktNumSpace5ready17h83ea7e032efdf7dcE, symObjAddr: 0x54F0, symBinAddr: 0x100076C80, symSize: 0x20 }
  - { offset: 0x105F7D, size: 0x8, addend: 0x0, symName: __ZN6quiche6packet11PktNumSpace14on_packet_sent17hb6623c562620a7d0E, symObjAddr: 0x5510, symBinAddr: 0x100076CA0, symSize: 0x50 }
  - { offset: 0x106083, size: 0x8, addend: 0x0, symName: __ZN6quiche6packet13CryptoContext3new17h0a1f4568e3a821b4E, symObjAddr: 0x5560, symBinAddr: 0x100076CF0, symSize: 0x140 }
  - { offset: 0x1060C3, size: 0x8, addend: 0x0, symName: __ZN6quiche6packet13CryptoContext5clear17h1eb4bb85d3e672a9E, symObjAddr: 0x56A0, symBinAddr: 0x100076E30, symSize: 0x190 }
  - { offset: 0x1060F3, size: 0x8, addend: 0x0, symName: __ZN6quiche6packet13CryptoContext14data_available17h2255e73681454ecbE, symObjAddr: 0x5830, symBinAddr: 0x100076FC0, symSize: 0x20 }
  - { offset: 0x106116, size: 0x8, addend: 0x0, symName: __ZN6quiche6packet13CryptoContext15crypto_overhead17hbc9a5f5dae7b43e0E, symObjAddr: 0x5850, symBinAddr: 0x100076FE0, symSize: 0x80 }
  - { offset: 0x106157, size: 0x8, addend: 0x0, symName: __ZN6quiche6packet13CryptoContext8has_keys17h44a553de3f2af0a6E, symObjAddr: 0x58D0, symBinAddr: 0x100077060, symSize: 0x50 }
  - { offset: 0x10617A, size: 0x8, addend: 0x0, symName: __ZN6quiche6packet13PktNumManager3new17h89296a5ecd2bb3aaE, symObjAddr: 0x5920, symBinAddr: 0x1000770B0, symSize: 0x40 }
  - { offset: 0x10619A, size: 0x8, addend: 0x0, symName: __ZN6quiche6packet13PktNumManager14on_packet_sent17h2622c659d8ad7bf3E, symObjAddr: 0x5960, symBinAddr: 0x1000770F0, symSize: 0xB0 }
  - { offset: 0x10623B, size: 0x8, addend: 0x0, symName: __ZN6quiche6packet13PktNumManager23should_arm_skip_counter17h58c37dd2a5c03021E, symObjAddr: 0x5A10, symBinAddr: 0x1000771A0, symSize: 0x70 }
  - { offset: 0x1062A9, size: 0x8, addend: 0x0, symName: __ZN6quiche6packet13PktNumManager14should_skip_pn17h1bc02e5534366cf8E, symObjAddr: 0x5A80, symBinAddr: 0x100077210, symSize: 0x80 }
  - { offset: 0x106335, size: 0x8, addend: 0x0, symName: __ZN6quiche6packet13PktNumManager7skip_pn17hd5c1c7c764bf11e6E, symObjAddr: 0x5B00, symBinAddr: 0x100077290, symSize: 0x20 }
  - { offset: 0x106383, size: 0x8, addend: 0x0, symName: __ZN6quiche6packet13PktNumManager11set_skip_pn17h17973897f293da11E, symObjAddr: 0x5B20, symBinAddr: 0x1000772B0, symSize: 0x130 }
  - { offset: 0x106421, size: 0x8, addend: 0x0, symName: __ZN6quiche6packet13PktNumManager16arm_skip_counter17haf9726199876a03fE, symObjAddr: 0x5C50, symBinAddr: 0x1000773E0, symSize: 0x170 }
  - { offset: 0x1064FC, size: 0x8, addend: 0x0, symName: __ZN6quiche6packet12PktNumWindow6insert17h5b5bb3ab8d6d5213E, symObjAddr: 0x5DC0, symBinAddr: 0x100077550, symSize: 0x190 }
  - { offset: 0x106563, size: 0x8, addend: 0x0, symName: __ZN6quiche6packet12PktNumWindow8contains17he52e58c1457b001eE, symObjAddr: 0x5F50, symBinAddr: 0x1000776E0, symSize: 0xF0 }
  - { offset: 0x1065C0, size: 0x8, addend: 0x0, symName: __ZN6quiche6packet12PktNumWindow5upper17h2ddca249a82e2cc0E, symObjAddr: 0x6040, symBinAddr: 0x1000777D0, symSize: 0x90 }
  - { offset: 0x10678A, size: 0x8, addend: 0x0, symName: __ZN4core5alloc6layout6Layout15from_size_align17hdb5ff8988d4e735fE, symObjAddr: 0x0, symBinAddr: 0x1000779C0, symSize: 0x60 }
  - { offset: 0x106B43, size: 0x8, addend: 0x0, symName: __ZN4core5alloc6layout6Layout25from_size_align_unchecked18precondition_check17hc4e822fcfb0ed9a7E, symObjAddr: 0x140, symBinAddr: 0x100077B00, symSize: 0xB0 }
  - { offset: 0x106FF9, size: 0x8, addend: 0x0, symName: __ZN4core5alloc6layout6Layout15from_size_align17hdb5ff8988d4e735fE, symObjAddr: 0x0, symBinAddr: 0x1000779C0, symSize: 0x60 }
  - { offset: 0x1070C2, size: 0x8, addend: 0x0, symName: __ZN4core5alloc6layout6Layout18padding_needed_for17h1b254c03cee94726E, symObjAddr: 0x60, symBinAddr: 0x100077A20, symSize: 0xE0 }
  - { offset: 0x10731C, size: 0x8, addend: 0x0, symName: __ZN4core5alloc6layout6Layout4size17ha72647905d68f1deE, symObjAddr: 0x1F0, symBinAddr: 0x100077BB0, symSize: 0xE }
  - { offset: 0x10735C, size: 0x8, addend: 0x0, symName: __ZN6quiche8recovery10congestion5pacer5Pacer3new17h4b1bc4d1fdedbf51E, symObjAddr: 0x0, symBinAddr: 0x100077BC0, symSize: 0x190 }
  - { offset: 0x107764, size: 0x8, addend: 0x0, symName: '__ZN79_$LT$quiche..recovery..congestion..pacer..Pacer$u20$as$u20$core..fmt..Debug$GT$3fmt17hb1648bcb089d61dbE', symObjAddr: 0x620, symBinAddr: 0x1000781E0, symSize: 0x181 }
  - { offset: 0x1077DD, size: 0x8, addend: 0x0, symName: __ZN6quiche8recovery10congestion5pacer5Pacer3new17h4b1bc4d1fdedbf51E, symObjAddr: 0x0, symBinAddr: 0x100077BC0, symSize: 0x190 }
  - { offset: 0x10788D, size: 0x8, addend: 0x0, symName: __ZN6quiche8recovery10congestion5pacer5Pacer7enabled17hb67ec818e0be4a2bE, symObjAddr: 0x190, symBinAddr: 0x100077D50, symSize: 0x10 }
  - { offset: 0x1078AF, size: 0x8, addend: 0x0, symName: __ZN6quiche8recovery10congestion5pacer5Pacer4rate17h1d124e1b7dfb380bE, symObjAddr: 0x1A0, symBinAddr: 0x100077D60, symSize: 0x10 }
  - { offset: 0x1078D1, size: 0x8, addend: 0x0, symName: __ZN6quiche8recovery10congestion5pacer5Pacer15max_pacing_rate17hf03362a74b74c3a7E, symObjAddr: 0x1B0, symBinAddr: 0x100077D70, symSize: 0x20 }
  - { offset: 0x107900, size: 0x8, addend: 0x0, symName: __ZN6quiche8recovery10congestion5pacer5Pacer6update17hc5d61b5dbfa4c045E, symObjAddr: 0x1D0, symBinAddr: 0x100077D90, symSize: 0xF0 }
  - { offset: 0x107976, size: 0x8, addend: 0x0, symName: __ZN6quiche8recovery10congestion5pacer5Pacer5reset17h27420506baf853d2E, symObjAddr: 0x2C0, symBinAddr: 0x100077E80, symSize: 0x80 }
  - { offset: 0x1079A6, size: 0x8, addend: 0x0, symName: __ZN6quiche8recovery10congestion5pacer5Pacer4send17h16541efed1f0bd5eE, symObjAddr: 0x340, symBinAddr: 0x100077F00, symSize: 0x2C0 }
  - { offset: 0x107A53, size: 0x8, addend: 0x0, symName: __ZN6quiche8recovery10congestion5pacer5Pacer9next_time17h8adeeedd10151aa5E, symObjAddr: 0x600, symBinAddr: 0x1000781C0, symSize: 0x20 }
  - { offset: 0x107BAD, size: 0x8, addend: 0x0, symName: __ZN6quiche2h35qpack7encoder7Encoder3new17h60281321efaf9b80E, symObjAddr: 0x0, symBinAddr: 0x100078370, symSize: 0x10 }
  - { offset: 0x107C0D, size: 0x8, addend: 0x0, symName: __ZN6quiche2h35qpack7encoder10encode_int17h70987dfdbb02aa9bE, symObjAddr: 0x10, symBinAddr: 0x100078380, symSize: 0x310 }
  - { offset: 0x107CFA, size: 0x8, addend: 0x0, symName: '__ZN78_$LT$quiche..h3..qpack..encoder..Encoder$u20$as$u20$core..default..Default$GT$7default17hbb810493268428f6E', symObjAddr: 0x320, symBinAddr: 0x100078690, symSize: 0x6 }
  - { offset: 0x107D1F, size: 0x8, addend: 0x0, symName: __ZN6quiche2h35qpack7encoder7Encoder3new17h60281321efaf9b80E, symObjAddr: 0x0, symBinAddr: 0x100078370, symSize: 0x10 }
  - { offset: 0x107ED6, size: 0x8, addend: 0x0, symName: '__ZN59_$LT$alloc..alloc..Global$u20$as$u20$core..clone..Clone$GT$5clone17he023d6bdf367dbb2E', symObjAddr: 0x0, symBinAddr: 0x1000786A0, symSize: 0x10 }
  - { offset: 0x108797, size: 0x8, addend: 0x0, symName: '__ZN59_$LT$alloc..alloc..Global$u20$as$u20$core..clone..Clone$GT$5clone17he023d6bdf367dbb2E', symObjAddr: 0x0, symBinAddr: 0x1000786A0, symSize: 0x10 }
  - { offset: 0x1087ED, size: 0x8, addend: 0x0, symName: '__ZN63_$LT$alloc..alloc..Global$u20$as$u20$core..alloc..Allocator$GT$10deallocate17hdb1e348acbc24d20E', symObjAddr: 0x410, symBinAddr: 0x100078AB0, symSize: 0x70 }
  - { offset: 0x1088B5, size: 0x8, addend: 0x0, symName: '__ZN63_$LT$alloc..alloc..Global$u20$as$u20$core..alloc..Allocator$GT$8allocate17h933adaf7bc78644bE', symObjAddr: 0x480, symBinAddr: 0x100078B20, symSize: 0x30 }
  - { offset: 0x108918, size: 0x8, addend: 0x0, symName: __ZN5alloc5alloc15exchange_malloc17h991eda528cc32472E, symObjAddr: 0x10, symBinAddr: 0x1000786B0, symSize: 0xA0 }
  - { offset: 0x1089AF, size: 0x8, addend: 0x0, symName: __ZN5alloc5alloc5alloc17h0e48a97e8880ec34E, symObjAddr: 0xB0, symBinAddr: 0x100078750, symSize: 0x40 }
  - { offset: 0x108A4D, size: 0x8, addend: 0x0, symName: __ZN5alloc5alloc7dealloc17hb1de009faa50d4c6E, symObjAddr: 0x390, symBinAddr: 0x100078A30, symSize: 0x40 }
  - { offset: 0x108ABD, size: 0x8, addend: 0x0, symName: __ZN5alloc5alloc7realloc17hfcafa4b0c4f7ae5dE, symObjAddr: 0x3D0, symBinAddr: 0x100078A70, symSize: 0x40 }
  - { offset: 0x108B67, size: 0x8, addend: 0x0, symName: '__ZN63_$LT$alloc..alloc..Global$u20$as$u20$core..default..Default$GT$7default17h6d07edc525089029E', symObjAddr: 0x4B0, symBinAddr: 0x100078B50, symSize: 0x6 }
  - { offset: 0x108DAE, size: 0x8, addend: 0x0, symName: __ZN5alloc5alloc6Global10alloc_impl17h2d7bf6d86941771fE, symObjAddr: 0xF0, symBinAddr: 0x100078790, symSize: 0x2A0 }
  - { offset: 0x1091D7, size: 0x8, addend: 0x0, symName: '__ZN115_$LT$alloc..collections..vec_deque..drain..Drain$LT$T$C$A$GT$$u20$as$u20$core..iter..traits..iterator..Iterator$GT$4next17h3f91231f8a30cd80E', symObjAddr: 0x0, symBinAddr: 0x100078B60, symSize: 0x160 }
  - { offset: 0x10B2C0, size: 0x8, addend: 0x0, symName: __ZN4core4iter6traits8iterator8Iterator3map17hc18a53288dee3bdeE, symObjAddr: 0xA30, symBinAddr: 0x100078E10, symSize: 0x40 }
  - { offset: 0x10B32E, size: 0x8, addend: 0x0, symName: __ZN4core4iter6traits8iterator8Iterator4fold17h95ebc57a3165f8e8E, symObjAddr: 0xA70, symBinAddr: 0x100078E50, symSize: 0x170 }
  - { offset: 0x10B3D1, size: 0x8, addend: 0x0, symName: '__ZN63_$LT$I$u20$as$u20$core..iter..traits..collect..IntoIterator$GT$9into_iter17h38becc27f92d68e4E', symObjAddr: 0xE50, symBinAddr: 0x100079230, symSize: 0x23 }
  - { offset: 0x10B5E3, size: 0x8, addend: 0x0, symName: '__ZN115_$LT$alloc..collections..vec_deque..drain..Drain$LT$T$C$A$GT$$u20$as$u20$core..iter..traits..iterator..Iterator$GT$4next17h3f91231f8a30cd80E', symObjAddr: 0x0, symBinAddr: 0x100078B60, symSize: 0x160 }
  - { offset: 0x10B813, size: 0x8, addend: 0x0, symName: '__ZN115_$LT$alloc..collections..vec_deque..drain..Drain$LT$T$C$A$GT$$u20$as$u20$core..iter..traits..iterator..Iterator$GT$4next17h8aa63ab97be47081E', symObjAddr: 0x160, symBinAddr: 0x100078CC0, symSize: 0x150 }
  - { offset: 0x10BA58, size: 0x8, addend: 0x0, symName: '__ZN169_$LT$$LT$alloc..collections..vec_deque..drain..Drain$LT$T$C$A$GT$$u20$as$u20$core..ops..drop..Drop$GT$..drop..DropGuard$LT$T$C$A$GT$$u20$as$u20$core..ops..drop..Drop$GT$4drop27join_head_and_tail_wrapping17h1dec107f88b4900cE', symObjAddr: 0x2B0, symBinAddr: 0x1003AF8F0, symSize: 0x280 }
  - { offset: 0x10BE87, size: 0x8, addend: 0x0, symName: '__ZN169_$LT$$LT$alloc..collections..vec_deque..drain..Drain$LT$T$C$A$GT$$u20$as$u20$core..ops..drop..Drop$GT$..drop..DropGuard$LT$T$C$A$GT$$u20$as$u20$core..ops..drop..Drop$GT$4drop27join_head_and_tail_wrapping17h3632b517fdcfa86fE', symObjAddr: 0x530, symBinAddr: 0x1003AFB70, symSize: 0x280 }
  - { offset: 0x10C2B6, size: 0x8, addend: 0x0, symName: '__ZN169_$LT$$LT$alloc..collections..vec_deque..drain..Drain$LT$T$C$A$GT$$u20$as$u20$core..ops..drop..Drop$GT$..drop..DropGuard$LT$T$C$A$GT$$u20$as$u20$core..ops..drop..Drop$GT$4drop27join_head_and_tail_wrapping17h6b5ec898a4dfcef8E', symObjAddr: 0x7B0, symBinAddr: 0x1003AFDF0, symSize: 0x280 }
  - { offset: 0x10DA8C, size: 0x8, addend: 0x0, symName: '__ZN5alloc11collections9vec_deque5drain18Drain$LT$T$C$A$GT$9as_slices17h2efd82255d5bcbdcE', symObjAddr: 0xBE0, symBinAddr: 0x100078FC0, symSize: 0xD0 }
  - { offset: 0x10DC82, size: 0x8, addend: 0x0, symName: '__ZN5alloc11collections9vec_deque5drain18Drain$LT$T$C$A$GT$9as_slices17h6a29d78c1f60aa33E', symObjAddr: 0xCB0, symBinAddr: 0x100079090, symSize: 0xD0 }
  - { offset: 0x10DE85, size: 0x8, addend: 0x0, symName: '__ZN5alloc11collections9vec_deque5drain18Drain$LT$T$C$A$GT$9as_slices17h8c2f166ea54df86aE', symObjAddr: 0xD80, symBinAddr: 0x100079160, symSize: 0xD0 }
  - { offset: 0x10E015, size: 0x8, addend: 0x0, symName: '__ZN153_$LT$core..result..Result$LT$T$C$F$GT$$u20$as$u20$core..ops..try_trait..FromResidual$LT$core..result..Result$LT$core..convert..Infallible$C$E$GT$$GT$$GT$13from_residual17h06c7225bae65aadaE', symObjAddr: 0x0, symBinAddr: 0x100079260, symSize: 0x40 }
  - { offset: 0x10FC20, size: 0x8, addend: 0x0, symName: '__ZN42_$LT$$RF$T$u20$as$u20$core..fmt..Debug$GT$3fmt17ha15510099940f79cE', symObjAddr: 0x1150, symBinAddr: 0x10007A3B0, symSize: 0x20 }
  - { offset: 0x10FCC0, size: 0x8, addend: 0x0, symName: '__ZN153_$LT$core..result..Result$LT$T$C$F$GT$$u20$as$u20$core..ops..try_trait..FromResidual$LT$core..result..Result$LT$core..convert..Infallible$C$E$GT$$GT$$GT$13from_residual17h06c7225bae65aadaE', symObjAddr: 0x0, symBinAddr: 0x100079260, symSize: 0x40 }
  - { offset: 0x10FD27, size: 0x8, addend: 0x0, symName: '__ZN153_$LT$core..result..Result$LT$T$C$F$GT$$u20$as$u20$core..ops..try_trait..FromResidual$LT$core..result..Result$LT$core..convert..Infallible$C$E$GT$$GT$$GT$13from_residual17h092944eef91fdff0E', symObjAddr: 0x40, symBinAddr: 0x1000792A0, symSize: 0x40 }
  - { offset: 0x10FD8E, size: 0x8, addend: 0x0, symName: '__ZN153_$LT$core..result..Result$LT$T$C$F$GT$$u20$as$u20$core..ops..try_trait..FromResidual$LT$core..result..Result$LT$core..convert..Infallible$C$E$GT$$GT$$GT$13from_residual17h11f53914e8876992E', symObjAddr: 0x80, symBinAddr: 0x1000792E0, symSize: 0x40 }
  - { offset: 0x10FDF5, size: 0x8, addend: 0x0, symName: '__ZN153_$LT$core..result..Result$LT$T$C$F$GT$$u20$as$u20$core..ops..try_trait..FromResidual$LT$core..result..Result$LT$core..convert..Infallible$C$E$GT$$GT$$GT$13from_residual17h12b68fa56406d987E', symObjAddr: 0xC0, symBinAddr: 0x100079320, symSize: 0x50 }
  - { offset: 0x10FE5C, size: 0x8, addend: 0x0, symName: '__ZN153_$LT$core..result..Result$LT$T$C$F$GT$$u20$as$u20$core..ops..try_trait..FromResidual$LT$core..result..Result$LT$core..convert..Infallible$C$E$GT$$GT$$GT$13from_residual17h1312861aea99e054E', symObjAddr: 0x110, symBinAddr: 0x100079370, symSize: 0x40 }
  - { offset: 0x10FEC3, size: 0x8, addend: 0x0, symName: '__ZN153_$LT$core..result..Result$LT$T$C$F$GT$$u20$as$u20$core..ops..try_trait..FromResidual$LT$core..result..Result$LT$core..convert..Infallible$C$E$GT$$GT$$GT$13from_residual17h1598518625bf991cE', symObjAddr: 0x150, symBinAddr: 0x1000793B0, symSize: 0x40 }
  - { offset: 0x10FF2A, size: 0x8, addend: 0x0, symName: '__ZN153_$LT$core..result..Result$LT$T$C$F$GT$$u20$as$u20$core..ops..try_trait..FromResidual$LT$core..result..Result$LT$core..convert..Infallible$C$E$GT$$GT$$GT$13from_residual17h16d7be670c23fa49E', symObjAddr: 0x190, symBinAddr: 0x1000793F0, symSize: 0x40 }
  - { offset: 0x10FF91, size: 0x8, addend: 0x0, symName: '__ZN153_$LT$core..result..Result$LT$T$C$F$GT$$u20$as$u20$core..ops..try_trait..FromResidual$LT$core..result..Result$LT$core..convert..Infallible$C$E$GT$$GT$$GT$13from_residual17h17609b1bbcf67c0cE', symObjAddr: 0x1D0, symBinAddr: 0x100079430, symSize: 0x40 }
  - { offset: 0x10FFF8, size: 0x8, addend: 0x0, symName: '__ZN153_$LT$core..result..Result$LT$T$C$F$GT$$u20$as$u20$core..ops..try_trait..FromResidual$LT$core..result..Result$LT$core..convert..Infallible$C$E$GT$$GT$$GT$13from_residual17h28605cf0e91d7addE', symObjAddr: 0x210, symBinAddr: 0x100079470, symSize: 0x40 }
  - { offset: 0x11005F, size: 0x8, addend: 0x0, symName: '__ZN153_$LT$core..result..Result$LT$T$C$F$GT$$u20$as$u20$core..ops..try_trait..FromResidual$LT$core..result..Result$LT$core..convert..Infallible$C$E$GT$$GT$$GT$13from_residual17h28a155e1395f99c2E', symObjAddr: 0x250, symBinAddr: 0x1000794B0, symSize: 0x40 }
  - { offset: 0x1100C6, size: 0x8, addend: 0x0, symName: '__ZN153_$LT$core..result..Result$LT$T$C$F$GT$$u20$as$u20$core..ops..try_trait..FromResidual$LT$core..result..Result$LT$core..convert..Infallible$C$E$GT$$GT$$GT$13from_residual17h29c4d5a3c9fb7168E', symObjAddr: 0x290, symBinAddr: 0x1000794F0, symSize: 0x40 }
  - { offset: 0x11012D, size: 0x8, addend: 0x0, symName: '__ZN153_$LT$core..result..Result$LT$T$C$F$GT$$u20$as$u20$core..ops..try_trait..FromResidual$LT$core..result..Result$LT$core..convert..Infallible$C$E$GT$$GT$$GT$13from_residual17h2a41c3e4e752587dE', symObjAddr: 0x2D0, symBinAddr: 0x100079530, symSize: 0x40 }
  - { offset: 0x110194, size: 0x8, addend: 0x0, symName: '__ZN153_$LT$core..result..Result$LT$T$C$F$GT$$u20$as$u20$core..ops..try_trait..FromResidual$LT$core..result..Result$LT$core..convert..Infallible$C$E$GT$$GT$$GT$13from_residual17h2b74b44adbecccc5E', symObjAddr: 0x310, symBinAddr: 0x100079570, symSize: 0x30 }
  - { offset: 0x1101FB, size: 0x8, addend: 0x0, symName: '__ZN153_$LT$core..result..Result$LT$T$C$F$GT$$u20$as$u20$core..ops..try_trait..FromResidual$LT$core..result..Result$LT$core..convert..Infallible$C$E$GT$$GT$$GT$13from_residual17h2f0c631b009c6ecaE', symObjAddr: 0x340, symBinAddr: 0x1000795A0, symSize: 0x40 }
  - { offset: 0x110262, size: 0x8, addend: 0x0, symName: '__ZN153_$LT$core..result..Result$LT$T$C$F$GT$$u20$as$u20$core..ops..try_trait..FromResidual$LT$core..result..Result$LT$core..convert..Infallible$C$E$GT$$GT$$GT$13from_residual17h3273267d33b57e0eE', symObjAddr: 0x380, symBinAddr: 0x1000795E0, symSize: 0x40 }
  - { offset: 0x1102C9, size: 0x8, addend: 0x0, symName: '__ZN153_$LT$core..result..Result$LT$T$C$F$GT$$u20$as$u20$core..ops..try_trait..FromResidual$LT$core..result..Result$LT$core..convert..Infallible$C$E$GT$$GT$$GT$13from_residual17h358fbe3f686d2cf1E', symObjAddr: 0x3C0, symBinAddr: 0x100079620, symSize: 0x40 }
  - { offset: 0x110330, size: 0x8, addend: 0x0, symName: '__ZN153_$LT$core..result..Result$LT$T$C$F$GT$$u20$as$u20$core..ops..try_trait..FromResidual$LT$core..result..Result$LT$core..convert..Infallible$C$E$GT$$GT$$GT$13from_residual17h36f083a490c7f76bE', symObjAddr: 0x400, symBinAddr: 0x100079660, symSize: 0x30 }
  - { offset: 0x110397, size: 0x8, addend: 0x0, symName: '__ZN153_$LT$core..result..Result$LT$T$C$F$GT$$u20$as$u20$core..ops..try_trait..FromResidual$LT$core..result..Result$LT$core..convert..Infallible$C$E$GT$$GT$$GT$13from_residual17h36f21fe6e1634e92E', symObjAddr: 0x430, symBinAddr: 0x100079690, symSize: 0x20 }
  - { offset: 0x1103FE, size: 0x8, addend: 0x0, symName: '__ZN153_$LT$core..result..Result$LT$T$C$F$GT$$u20$as$u20$core..ops..try_trait..FromResidual$LT$core..result..Result$LT$core..convert..Infallible$C$E$GT$$GT$$GT$13from_residual17h377129ae295d20ebE', symObjAddr: 0x450, symBinAddr: 0x1000796B0, symSize: 0x50 }
  - { offset: 0x110465, size: 0x8, addend: 0x0, symName: '__ZN153_$LT$core..result..Result$LT$T$C$F$GT$$u20$as$u20$core..ops..try_trait..FromResidual$LT$core..result..Result$LT$core..convert..Infallible$C$E$GT$$GT$$GT$13from_residual17h378ae4c28f605bbaE', symObjAddr: 0x4A0, symBinAddr: 0x100079700, symSize: 0x40 }
  - { offset: 0x1104CC, size: 0x8, addend: 0x0, symName: '__ZN153_$LT$core..result..Result$LT$T$C$F$GT$$u20$as$u20$core..ops..try_trait..FromResidual$LT$core..result..Result$LT$core..convert..Infallible$C$E$GT$$GT$$GT$13from_residual17h3c1557eec793ab7cE', symObjAddr: 0x4E0, symBinAddr: 0x100079740, symSize: 0x50 }
  - { offset: 0x110533, size: 0x8, addend: 0x0, symName: '__ZN153_$LT$core..result..Result$LT$T$C$F$GT$$u20$as$u20$core..ops..try_trait..FromResidual$LT$core..result..Result$LT$core..convert..Infallible$C$E$GT$$GT$$GT$13from_residual17h3e2c0c7e7b5b6037E', symObjAddr: 0x530, symBinAddr: 0x100079790, symSize: 0x40 }
  - { offset: 0x11059A, size: 0x8, addend: 0x0, symName: '__ZN153_$LT$core..result..Result$LT$T$C$F$GT$$u20$as$u20$core..ops..try_trait..FromResidual$LT$core..result..Result$LT$core..convert..Infallible$C$E$GT$$GT$$GT$13from_residual17h3e4e635547dcc67aE', symObjAddr: 0x570, symBinAddr: 0x1000797D0, symSize: 0x40 }
  - { offset: 0x110601, size: 0x8, addend: 0x0, symName: '__ZN153_$LT$core..result..Result$LT$T$C$F$GT$$u20$as$u20$core..ops..try_trait..FromResidual$LT$core..result..Result$LT$core..convert..Infallible$C$E$GT$$GT$$GT$13from_residual17h42380cdd28e3e5d2E', symObjAddr: 0x5B0, symBinAddr: 0x100079810, symSize: 0x40 }
  - { offset: 0x110668, size: 0x8, addend: 0x0, symName: '__ZN153_$LT$core..result..Result$LT$T$C$F$GT$$u20$as$u20$core..ops..try_trait..FromResidual$LT$core..result..Result$LT$core..convert..Infallible$C$E$GT$$GT$$GT$13from_residual17h4846326f7abc731bE', symObjAddr: 0x5F0, symBinAddr: 0x100079850, symSize: 0x20 }
  - { offset: 0x1106CF, size: 0x8, addend: 0x0, symName: '__ZN153_$LT$core..result..Result$LT$T$C$F$GT$$u20$as$u20$core..ops..try_trait..FromResidual$LT$core..result..Result$LT$core..convert..Infallible$C$E$GT$$GT$$GT$13from_residual17h4ea66785691e1c01E', symObjAddr: 0x610, symBinAddr: 0x100079870, symSize: 0x10 }
  - { offset: 0x110736, size: 0x8, addend: 0x0, symName: '__ZN153_$LT$core..result..Result$LT$T$C$F$GT$$u20$as$u20$core..ops..try_trait..FromResidual$LT$core..result..Result$LT$core..convert..Infallible$C$E$GT$$GT$$GT$13from_residual17h5431096dc99cc545E', symObjAddr: 0x620, symBinAddr: 0x100079880, symSize: 0x40 }
  - { offset: 0x11079D, size: 0x8, addend: 0x0, symName: '__ZN153_$LT$core..result..Result$LT$T$C$F$GT$$u20$as$u20$core..ops..try_trait..FromResidual$LT$core..result..Result$LT$core..convert..Infallible$C$E$GT$$GT$$GT$13from_residual17h589d43940ef3fa01E', symObjAddr: 0x660, symBinAddr: 0x1000798C0, symSize: 0x40 }
  - { offset: 0x110804, size: 0x8, addend: 0x0, symName: '__ZN153_$LT$core..result..Result$LT$T$C$F$GT$$u20$as$u20$core..ops..try_trait..FromResidual$LT$core..result..Result$LT$core..convert..Infallible$C$E$GT$$GT$$GT$13from_residual17h5ace99126173a58bE', symObjAddr: 0x6A0, symBinAddr: 0x100079900, symSize: 0x40 }
  - { offset: 0x11086B, size: 0x8, addend: 0x0, symName: '__ZN153_$LT$core..result..Result$LT$T$C$F$GT$$u20$as$u20$core..ops..try_trait..FromResidual$LT$core..result..Result$LT$core..convert..Infallible$C$E$GT$$GT$$GT$13from_residual17h5e7fe5b86e51e273E', symObjAddr: 0x6E0, symBinAddr: 0x100079940, symSize: 0x40 }
  - { offset: 0x1108D2, size: 0x8, addend: 0x0, symName: '__ZN153_$LT$core..result..Result$LT$T$C$F$GT$$u20$as$u20$core..ops..try_trait..FromResidual$LT$core..result..Result$LT$core..convert..Infallible$C$E$GT$$GT$$GT$13from_residual17h63f29b79f385027eE', symObjAddr: 0x720, symBinAddr: 0x100079980, symSize: 0x10 }
  - { offset: 0x110939, size: 0x8, addend: 0x0, symName: '__ZN153_$LT$core..result..Result$LT$T$C$F$GT$$u20$as$u20$core..ops..try_trait..FromResidual$LT$core..result..Result$LT$core..convert..Infallible$C$E$GT$$GT$$GT$13from_residual17h689ff968a3922e80E', symObjAddr: 0x730, symBinAddr: 0x100079990, symSize: 0x60 }
  - { offset: 0x1109A0, size: 0x8, addend: 0x0, symName: '__ZN153_$LT$core..result..Result$LT$T$C$F$GT$$u20$as$u20$core..ops..try_trait..FromResidual$LT$core..result..Result$LT$core..convert..Infallible$C$E$GT$$GT$$GT$13from_residual17h6a7700b7d749b39dE', symObjAddr: 0x790, symBinAddr: 0x1000799F0, symSize: 0x30 }
  - { offset: 0x110A07, size: 0x8, addend: 0x0, symName: '__ZN153_$LT$core..result..Result$LT$T$C$F$GT$$u20$as$u20$core..ops..try_trait..FromResidual$LT$core..result..Result$LT$core..convert..Infallible$C$E$GT$$GT$$GT$13from_residual17h6a88db0615c44986E', symObjAddr: 0x7C0, symBinAddr: 0x100079A20, symSize: 0x40 }
  - { offset: 0x110A6E, size: 0x8, addend: 0x0, symName: '__ZN153_$LT$core..result..Result$LT$T$C$F$GT$$u20$as$u20$core..ops..try_trait..FromResidual$LT$core..result..Result$LT$core..convert..Infallible$C$E$GT$$GT$$GT$13from_residual17h6db2a21eb9b99d46E', symObjAddr: 0x800, symBinAddr: 0x100079A60, symSize: 0x40 }
  - { offset: 0x110AD5, size: 0x8, addend: 0x0, symName: '__ZN153_$LT$core..result..Result$LT$T$C$F$GT$$u20$as$u20$core..ops..try_trait..FromResidual$LT$core..result..Result$LT$core..convert..Infallible$C$E$GT$$GT$$GT$13from_residual17h6db3a54899f6a133E', symObjAddr: 0x840, symBinAddr: 0x100079AA0, symSize: 0x40 }
  - { offset: 0x110B3C, size: 0x8, addend: 0x0, symName: '__ZN153_$LT$core..result..Result$LT$T$C$F$GT$$u20$as$u20$core..ops..try_trait..FromResidual$LT$core..result..Result$LT$core..convert..Infallible$C$E$GT$$GT$$GT$13from_residual17h73a8239fbd999cadE', symObjAddr: 0x880, symBinAddr: 0x100079AE0, symSize: 0x40 }
  - { offset: 0x110BA3, size: 0x8, addend: 0x0, symName: '__ZN153_$LT$core..result..Result$LT$T$C$F$GT$$u20$as$u20$core..ops..try_trait..FromResidual$LT$core..result..Result$LT$core..convert..Infallible$C$E$GT$$GT$$GT$13from_residual17h7a2e2dbd30b02f08E', symObjAddr: 0x8C0, symBinAddr: 0x100079B20, symSize: 0x40 }
  - { offset: 0x110C0A, size: 0x8, addend: 0x0, symName: '__ZN153_$LT$core..result..Result$LT$T$C$F$GT$$u20$as$u20$core..ops..try_trait..FromResidual$LT$core..result..Result$LT$core..convert..Infallible$C$E$GT$$GT$$GT$13from_residual17h7d6b09a6b6fa5906E', symObjAddr: 0x900, symBinAddr: 0x100079B60, symSize: 0x40 }
  - { offset: 0x110C71, size: 0x8, addend: 0x0, symName: '__ZN153_$LT$core..result..Result$LT$T$C$F$GT$$u20$as$u20$core..ops..try_trait..FromResidual$LT$core..result..Result$LT$core..convert..Infallible$C$E$GT$$GT$$GT$13from_residual17h81165b68aa4ae292E', symObjAddr: 0x940, symBinAddr: 0x100079BA0, symSize: 0x40 }
  - { offset: 0x110CD8, size: 0x8, addend: 0x0, symName: '__ZN153_$LT$core..result..Result$LT$T$C$F$GT$$u20$as$u20$core..ops..try_trait..FromResidual$LT$core..result..Result$LT$core..convert..Infallible$C$E$GT$$GT$$GT$13from_residual17h81e2423ceb370b81E', symObjAddr: 0x980, symBinAddr: 0x100079BE0, symSize: 0x40 }
  - { offset: 0x110D3F, size: 0x8, addend: 0x0, symName: '__ZN153_$LT$core..result..Result$LT$T$C$F$GT$$u20$as$u20$core..ops..try_trait..FromResidual$LT$core..result..Result$LT$core..convert..Infallible$C$E$GT$$GT$$GT$13from_residual17h841d65f5aa2a1c40E', symObjAddr: 0x9C0, symBinAddr: 0x100079C20, symSize: 0x30 }
  - { offset: 0x110DA6, size: 0x8, addend: 0x0, symName: '__ZN153_$LT$core..result..Result$LT$T$C$F$GT$$u20$as$u20$core..ops..try_trait..FromResidual$LT$core..result..Result$LT$core..convert..Infallible$C$E$GT$$GT$$GT$13from_residual17h84571ed852aa6d1dE', symObjAddr: 0x9F0, symBinAddr: 0x100079C50, symSize: 0x40 }
  - { offset: 0x110E0D, size: 0x8, addend: 0x0, symName: '__ZN153_$LT$core..result..Result$LT$T$C$F$GT$$u20$as$u20$core..ops..try_trait..FromResidual$LT$core..result..Result$LT$core..convert..Infallible$C$E$GT$$GT$$GT$13from_residual17h84a07a345945298eE', symObjAddr: 0xA30, symBinAddr: 0x100079C90, symSize: 0x20 }
  - { offset: 0x110E74, size: 0x8, addend: 0x0, symName: '__ZN153_$LT$core..result..Result$LT$T$C$F$GT$$u20$as$u20$core..ops..try_trait..FromResidual$LT$core..result..Result$LT$core..convert..Infallible$C$E$GT$$GT$$GT$13from_residual17h851c7dadb03ac756E', symObjAddr: 0xA50, symBinAddr: 0x100079CB0, symSize: 0x40 }
  - { offset: 0x110EDB, size: 0x8, addend: 0x0, symName: '__ZN153_$LT$core..result..Result$LT$T$C$F$GT$$u20$as$u20$core..ops..try_trait..FromResidual$LT$core..result..Result$LT$core..convert..Infallible$C$E$GT$$GT$$GT$13from_residual17h883fb72622ad5837E', symObjAddr: 0xA90, symBinAddr: 0x100079CF0, symSize: 0x30 }
  - { offset: 0x110F42, size: 0x8, addend: 0x0, symName: '__ZN153_$LT$core..result..Result$LT$T$C$F$GT$$u20$as$u20$core..ops..try_trait..FromResidual$LT$core..result..Result$LT$core..convert..Infallible$C$E$GT$$GT$$GT$13from_residual17h8866c64563f850abE', symObjAddr: 0xAC0, symBinAddr: 0x100079D20, symSize: 0x40 }
  - { offset: 0x110FA9, size: 0x8, addend: 0x0, symName: '__ZN153_$LT$core..result..Result$LT$T$C$F$GT$$u20$as$u20$core..ops..try_trait..FromResidual$LT$core..result..Result$LT$core..convert..Infallible$C$E$GT$$GT$$GT$13from_residual17h8e38682a5fa1ae97E', symObjAddr: 0xB00, symBinAddr: 0x100079D60, symSize: 0x40 }
  - { offset: 0x111010, size: 0x8, addend: 0x0, symName: '__ZN153_$LT$core..result..Result$LT$T$C$F$GT$$u20$as$u20$core..ops..try_trait..FromResidual$LT$core..result..Result$LT$core..convert..Infallible$C$E$GT$$GT$$GT$13from_residual17h90d04c732bedc922E', symObjAddr: 0xB40, symBinAddr: 0x100079DA0, symSize: 0x40 }
  - { offset: 0x111077, size: 0x8, addend: 0x0, symName: '__ZN153_$LT$core..result..Result$LT$T$C$F$GT$$u20$as$u20$core..ops..try_trait..FromResidual$LT$core..result..Result$LT$core..convert..Infallible$C$E$GT$$GT$$GT$13from_residual17h925c33bb2a1fcc8dE', symObjAddr: 0xB80, symBinAddr: 0x100079DE0, symSize: 0x30 }
  - { offset: 0x1110DE, size: 0x8, addend: 0x0, symName: '__ZN153_$LT$core..result..Result$LT$T$C$F$GT$$u20$as$u20$core..ops..try_trait..FromResidual$LT$core..result..Result$LT$core..convert..Infallible$C$E$GT$$GT$$GT$13from_residual17h98dc67d1bf764d0cE', symObjAddr: 0xBB0, symBinAddr: 0x100079E10, symSize: 0x40 }
  - { offset: 0x111145, size: 0x8, addend: 0x0, symName: '__ZN153_$LT$core..result..Result$LT$T$C$F$GT$$u20$as$u20$core..ops..try_trait..FromResidual$LT$core..result..Result$LT$core..convert..Infallible$C$E$GT$$GT$$GT$13from_residual17h9ad38eb37dd9c288E', symObjAddr: 0xBF0, symBinAddr: 0x100079E50, symSize: 0x50 }
  - { offset: 0x1111AC, size: 0x8, addend: 0x0, symName: '__ZN153_$LT$core..result..Result$LT$T$C$F$GT$$u20$as$u20$core..ops..try_trait..FromResidual$LT$core..result..Result$LT$core..convert..Infallible$C$E$GT$$GT$$GT$13from_residual17h9aee978bdb390803E', symObjAddr: 0xC40, symBinAddr: 0x100079EA0, symSize: 0x40 }
  - { offset: 0x111213, size: 0x8, addend: 0x0, symName: '__ZN153_$LT$core..result..Result$LT$T$C$F$GT$$u20$as$u20$core..ops..try_trait..FromResidual$LT$core..result..Result$LT$core..convert..Infallible$C$E$GT$$GT$$GT$13from_residual17ha19ece2c8648c52bE', symObjAddr: 0xC80, symBinAddr: 0x100079EE0, symSize: 0x30 }
  - { offset: 0x11127A, size: 0x8, addend: 0x0, symName: '__ZN153_$LT$core..result..Result$LT$T$C$F$GT$$u20$as$u20$core..ops..try_trait..FromResidual$LT$core..result..Result$LT$core..convert..Infallible$C$E$GT$$GT$$GT$13from_residual17haa6c11d8366f3d49E', symObjAddr: 0xCB0, symBinAddr: 0x100079F10, symSize: 0x40 }
  - { offset: 0x1112E1, size: 0x8, addend: 0x0, symName: '__ZN153_$LT$core..result..Result$LT$T$C$F$GT$$u20$as$u20$core..ops..try_trait..FromResidual$LT$core..result..Result$LT$core..convert..Infallible$C$E$GT$$GT$$GT$13from_residual17haf510d48ab990100E', symObjAddr: 0xCF0, symBinAddr: 0x100079F50, symSize: 0x40 }
  - { offset: 0x111348, size: 0x8, addend: 0x0, symName: '__ZN153_$LT$core..result..Result$LT$T$C$F$GT$$u20$as$u20$core..ops..try_trait..FromResidual$LT$core..result..Result$LT$core..convert..Infallible$C$E$GT$$GT$$GT$13from_residual17hb8c3d5bc9dfdb15aE', symObjAddr: 0xD30, symBinAddr: 0x100079F90, symSize: 0x60 }
  - { offset: 0x1113AF, size: 0x8, addend: 0x0, symName: '__ZN153_$LT$core..result..Result$LT$T$C$F$GT$$u20$as$u20$core..ops..try_trait..FromResidual$LT$core..result..Result$LT$core..convert..Infallible$C$E$GT$$GT$$GT$13from_residual17hc294a5614e79d4beE', symObjAddr: 0xD90, symBinAddr: 0x100079FF0, symSize: 0x40 }
  - { offset: 0x111416, size: 0x8, addend: 0x0, symName: '__ZN153_$LT$core..result..Result$LT$T$C$F$GT$$u20$as$u20$core..ops..try_trait..FromResidual$LT$core..result..Result$LT$core..convert..Infallible$C$E$GT$$GT$$GT$13from_residual17hc4d36576d7bed2e6E', symObjAddr: 0xDD0, symBinAddr: 0x10007A030, symSize: 0x40 }
  - { offset: 0x11147D, size: 0x8, addend: 0x0, symName: '__ZN153_$LT$core..result..Result$LT$T$C$F$GT$$u20$as$u20$core..ops..try_trait..FromResidual$LT$core..result..Result$LT$core..convert..Infallible$C$E$GT$$GT$$GT$13from_residual17hc63b34711901ba76E', symObjAddr: 0xE10, symBinAddr: 0x10007A070, symSize: 0x30 }
  - { offset: 0x1114E4, size: 0x8, addend: 0x0, symName: '__ZN153_$LT$core..result..Result$LT$T$C$F$GT$$u20$as$u20$core..ops..try_trait..FromResidual$LT$core..result..Result$LT$core..convert..Infallible$C$E$GT$$GT$$GT$13from_residual17hc9bda5f4710c3b99E', symObjAddr: 0xE40, symBinAddr: 0x10007A0A0, symSize: 0x20 }
  - { offset: 0x11154B, size: 0x8, addend: 0x0, symName: '__ZN153_$LT$core..result..Result$LT$T$C$F$GT$$u20$as$u20$core..ops..try_trait..FromResidual$LT$core..result..Result$LT$core..convert..Infallible$C$E$GT$$GT$$GT$13from_residual17hca2e229ffa14daefE', symObjAddr: 0xE60, symBinAddr: 0x10007A0C0, symSize: 0x40 }
  - { offset: 0x1115B2, size: 0x8, addend: 0x0, symName: '__ZN153_$LT$core..result..Result$LT$T$C$F$GT$$u20$as$u20$core..ops..try_trait..FromResidual$LT$core..result..Result$LT$core..convert..Infallible$C$E$GT$$GT$$GT$13from_residual17hcaa16d655bb8c2d1E', symObjAddr: 0xEA0, symBinAddr: 0x10007A100, symSize: 0x30 }
  - { offset: 0x111619, size: 0x8, addend: 0x0, symName: '__ZN153_$LT$core..result..Result$LT$T$C$F$GT$$u20$as$u20$core..ops..try_trait..FromResidual$LT$core..result..Result$LT$core..convert..Infallible$C$E$GT$$GT$$GT$13from_residual17hd0f37bc45952ecf6E', symObjAddr: 0xED0, symBinAddr: 0x10007A130, symSize: 0x40 }
  - { offset: 0x111680, size: 0x8, addend: 0x0, symName: '__ZN153_$LT$core..result..Result$LT$T$C$F$GT$$u20$as$u20$core..ops..try_trait..FromResidual$LT$core..result..Result$LT$core..convert..Infallible$C$E$GT$$GT$$GT$13from_residual17hd144474ace545030E', symObjAddr: 0xF10, symBinAddr: 0x10007A170, symSize: 0x30 }
  - { offset: 0x1116E7, size: 0x8, addend: 0x0, symName: '__ZN153_$LT$core..result..Result$LT$T$C$F$GT$$u20$as$u20$core..ops..try_trait..FromResidual$LT$core..result..Result$LT$core..convert..Infallible$C$E$GT$$GT$$GT$13from_residual17hd496b4ab5a927df4E', symObjAddr: 0xF40, symBinAddr: 0x10007A1A0, symSize: 0x30 }
  - { offset: 0x11174E, size: 0x8, addend: 0x0, symName: '__ZN153_$LT$core..result..Result$LT$T$C$F$GT$$u20$as$u20$core..ops..try_trait..FromResidual$LT$core..result..Result$LT$core..convert..Infallible$C$E$GT$$GT$$GT$13from_residual17hd968e05b2d23806bE', symObjAddr: 0xF70, symBinAddr: 0x10007A1D0, symSize: 0x30 }
  - { offset: 0x1117B5, size: 0x8, addend: 0x0, symName: '__ZN153_$LT$core..result..Result$LT$T$C$F$GT$$u20$as$u20$core..ops..try_trait..FromResidual$LT$core..result..Result$LT$core..convert..Infallible$C$E$GT$$GT$$GT$13from_residual17hdf22b9599d6ab36cE', symObjAddr: 0xFA0, symBinAddr: 0x10007A200, symSize: 0x30 }
  - { offset: 0x11181C, size: 0x8, addend: 0x0, symName: '__ZN153_$LT$core..result..Result$LT$T$C$F$GT$$u20$as$u20$core..ops..try_trait..FromResidual$LT$core..result..Result$LT$core..convert..Infallible$C$E$GT$$GT$$GT$13from_residual17he323187a38c1bf29E', symObjAddr: 0xFD0, symBinAddr: 0x10007A230, symSize: 0x60 }
  - { offset: 0x111883, size: 0x8, addend: 0x0, symName: '__ZN153_$LT$core..result..Result$LT$T$C$F$GT$$u20$as$u20$core..ops..try_trait..FromResidual$LT$core..result..Result$LT$core..convert..Infallible$C$E$GT$$GT$$GT$13from_residual17he4f681fe1c4bec3fE', symObjAddr: 0x1030, symBinAddr: 0x10007A290, symSize: 0x40 }
  - { offset: 0x1118EA, size: 0x8, addend: 0x0, symName: '__ZN153_$LT$core..result..Result$LT$T$C$F$GT$$u20$as$u20$core..ops..try_trait..FromResidual$LT$core..result..Result$LT$core..convert..Infallible$C$E$GT$$GT$$GT$13from_residual17he8cb2bab5cc3775eE', symObjAddr: 0x1070, symBinAddr: 0x10007A2D0, symSize: 0x30 }
  - { offset: 0x111951, size: 0x8, addend: 0x0, symName: '__ZN153_$LT$core..result..Result$LT$T$C$F$GT$$u20$as$u20$core..ops..try_trait..FromResidual$LT$core..result..Result$LT$core..convert..Infallible$C$E$GT$$GT$$GT$13from_residual17he9236c880933c51dE', symObjAddr: 0x10A0, symBinAddr: 0x10007A300, symSize: 0x30 }
  - { offset: 0x1119B8, size: 0x8, addend: 0x0, symName: '__ZN153_$LT$core..result..Result$LT$T$C$F$GT$$u20$as$u20$core..ops..try_trait..FromResidual$LT$core..result..Result$LT$core..convert..Infallible$C$E$GT$$GT$$GT$13from_residual17hedb19515a880aa82E', symObjAddr: 0x10D0, symBinAddr: 0x10007A330, symSize: 0x40 }
  - { offset: 0x111A1F, size: 0x8, addend: 0x0, symName: '__ZN153_$LT$core..result..Result$LT$T$C$F$GT$$u20$as$u20$core..ops..try_trait..FromResidual$LT$core..result..Result$LT$core..convert..Infallible$C$E$GT$$GT$$GT$13from_residual17hf8474e69807d0551E', symObjAddr: 0x1110, symBinAddr: 0x10007A370, symSize: 0x40 }
  - { offset: 0x113644, size: 0x8, addend: 0x0, symName: '__ZN70_$LT$core..result..Result$LT$T$C$E$GT$$u20$as$u20$core..fmt..Debug$GT$3fmt17h3d70550b0af66fd4E', symObjAddr: 0x2790, symBinAddr: 0x10007B9F0, symSize: 0xA0 }
  - { offset: 0x1136CF, size: 0x8, addend: 0x0, symName: '__ZN70_$LT$core..result..Result$LT$T$C$E$GT$$u20$as$u20$core..fmt..Debug$GT$3fmt17hdd3b8ac8279eb1a6E', symObjAddr: 0x2830, symBinAddr: 0x10007BA90, symSize: 0x90 }
  - { offset: 0x113760, size: 0x8, addend: 0x0, symName: '__ZN74_$LT$core..result..Result$LT$T$C$E$GT$$u20$as$u20$core..cmp..PartialEq$GT$2eq17h3cad42a44a67bc5eE', symObjAddr: 0x28C0, symBinAddr: 0x10007BB20, symSize: 0xE0 }
